
flying_arm_test.elf:     file format elf32-littlearm

Sections:
Idx Name          Size      VMA       LMA       File off  Algn
  0 .isr_vector   00000188  08000000  08000000  00001000  2**0
                  CONTENTS, ALLOC, LOAD, READONLY, DATA
  1 .text         00005dbc  08000190  08000190  00001190  2**4
                  CONTENTS, ALLOC, LOAD, READONLY, CODE
  2 .rodata       00000078  08005f4c  08005f4c  00006f4c  2**2
                  CONTENTS, ALLOC, LOAD, READONLY, DATA
  3 .ARM.extab    00000000  08005fc4  08005fc4  00007074  2**0
                  CONTENTS
  4 .ARM          00000008  08005fc4  08005fc4  00006fc4  2**2
                  CONTENTS, ALLOC, LOAD, READONLY, DATA
  5 .preinit_array 00000000  08005fcc  08005fcc  00007074  2**0
                  CONTENTS, ALLOC, LOAD, DATA
  6 .init_array   00000004  08005fcc  08005fcc  00006fcc  2**2
                  CONTENTS, ALLOC, LOAD, READONLY, DATA
  7 .fini_array   00000004  08005fd0  08005fd0  00006fd0  2**2
                  CONTENTS, ALLOC, LOAD, READONLY, DATA
  8 .data         00000074  20000000  08005fd4  00007000  2**2
                  CONTENTS, ALLOC, LOAD, DATA
  9 .ccmram       00000000  10000000  10000000  00007074  2**0
                  CONTENTS
 10 .bss          00000308  20000078  20000078  00007078  2**3
                  ALLOC
 11 ._user_heap_stack 00000600  20000380  20000380  00007078  2**0
                  ALLOC
 12 .ARM.attributes 00000030  00000000  00000000  00007074  2**0
                  CONTENTS, READONLY
 13 .debug_info   00011f87  00000000  00000000  000070a4  2**0
                  CONTENTS, READONLY, DEBUGGING, OCTETS
 14 .debug_abbrev 000025f9  00000000  00000000  0001902b  2**0
                  CONTENTS, READONLY, DEBUGGING, OCTETS
 15 .debug_aranges 00001098  00000000  00000000  0001b628  2**3
                  CONTENTS, READONLY, DEBUGGING, OCTETS
 16 .debug_rnglists 00000d2e  00000000  00000000  0001c6c0  2**0
                  CONTENTS, READONLY, DEBUGGING, OCTETS
 17 .debug_macro  00023716  00000000  00000000  0001d3ee  2**0
                  CONTENTS, READONLY, DEBUGGING, OCTETS
 18 .debug_line   000154bc  00000000  00000000  00040b04  2**0
                  CONTENTS, READONLY, DEBUGGING, OCTETS
 19 .debug_str    000db21f  00000000  00000000  00055fc0  2**0
                  CONTENTS, READONLY, DEBUGGING, OCTETS
 20 .comment      00000043  00000000  00000000  001311df  2**0
                  CONTENTS, READONLY
 21 .debug_frame  00004d38  00000000  00000000  00131224  2**2
                  CONTENTS, READONLY, DEBUGGING, OCTETS
 22 .debug_line_str 0000005d  00000000  00000000  00135f5c  2**0
                  CONTENTS, READONLY, DEBUGGING, OCTETS

Disassembly of section .text:

08000190 <__do_global_dtors_aux>:
 8000190:	b510      	push	{r4, lr}
 8000192:	4c05      	ldr	r4, [pc, #20]	@ (80001a8 <__do_global_dtors_aux+0x18>)
 8000194:	7823      	ldrb	r3, [r4, #0]
 8000196:	b933      	cbnz	r3, 80001a6 <__do_global_dtors_aux+0x16>
 8000198:	4b04      	ldr	r3, [pc, #16]	@ (80001ac <__do_global_dtors_aux+0x1c>)
 800019a:	b113      	cbz	r3, 80001a2 <__do_global_dtors_aux+0x12>
 800019c:	4804      	ldr	r0, [pc, #16]	@ (80001b0 <__do_global_dtors_aux+0x20>)
 800019e:	f3af 8000 	nop.w
 80001a2:	2301      	movs	r3, #1
 80001a4:	7023      	strb	r3, [r4, #0]
 80001a6:	bd10      	pop	{r4, pc}
 80001a8:	20000078 	.word	0x20000078
 80001ac:	00000000 	.word	0x00000000
 80001b0:	08005f34 	.word	0x08005f34

080001b4 <frame_dummy>:
 80001b4:	b508      	push	{r3, lr}
 80001b6:	4b03      	ldr	r3, [pc, #12]	@ (80001c4 <frame_dummy+0x10>)
 80001b8:	b11b      	cbz	r3, 80001c2 <frame_dummy+0xe>
 80001ba:	4903      	ldr	r1, [pc, #12]	@ (80001c8 <frame_dummy+0x14>)
 80001bc:	4803      	ldr	r0, [pc, #12]	@ (80001cc <frame_dummy+0x18>)
 80001be:	f3af 8000 	nop.w
 80001c2:	bd08      	pop	{r3, pc}
 80001c4:	00000000 	.word	0x00000000
 80001c8:	2000007c 	.word	0x2000007c
 80001cc:	08005f34 	.word	0x08005f34

080001d0 <strlen>:
 80001d0:	4603      	mov	r3, r0
 80001d2:	f813 2b01 	ldrb.w	r2, [r3], #1
 80001d6:	2a00      	cmp	r2, #0
 80001d8:	d1fb      	bne.n	80001d2 <strlen+0x2>
 80001da:	1a18      	subs	r0, r3, r0
 80001dc:	3801      	subs	r0, #1
 80001de:	4770      	bx	lr

080001e0 <memchr>:
 80001e0:	f001 01ff 	and.w	r1, r1, #255	@ 0xff
 80001e4:	2a10      	cmp	r2, #16
 80001e6:	db2b      	blt.n	8000240 <memchr+0x60>
 80001e8:	f010 0f07 	tst.w	r0, #7
 80001ec:	d008      	beq.n	8000200 <memchr+0x20>
 80001ee:	f810 3b01 	ldrb.w	r3, [r0], #1
 80001f2:	3a01      	subs	r2, #1
 80001f4:	428b      	cmp	r3, r1
 80001f6:	d02d      	beq.n	8000254 <memchr+0x74>
 80001f8:	f010 0f07 	tst.w	r0, #7
 80001fc:	b342      	cbz	r2, 8000250 <memchr+0x70>
 80001fe:	d1f6      	bne.n	80001ee <memchr+0xe>
 8000200:	b4f0      	push	{r4, r5, r6, r7}
 8000202:	ea41 2101 	orr.w	r1, r1, r1, lsl #8
 8000206:	ea41 4101 	orr.w	r1, r1, r1, lsl #16
 800020a:	f022 0407 	bic.w	r4, r2, #7
 800020e:	f07f 0700 	mvns.w	r7, #0
 8000212:	2300      	movs	r3, #0
 8000214:	e8f0 5602 	ldrd	r5, r6, [r0], #8
 8000218:	3c08      	subs	r4, #8
 800021a:	ea85 0501 	eor.w	r5, r5, r1
 800021e:	ea86 0601 	eor.w	r6, r6, r1
 8000222:	fa85 f547 	uadd8	r5, r5, r7
 8000226:	faa3 f587 	sel	r5, r3, r7
 800022a:	fa86 f647 	uadd8	r6, r6, r7
 800022e:	faa5 f687 	sel	r6, r5, r7
 8000232:	b98e      	cbnz	r6, 8000258 <memchr+0x78>
 8000234:	d1ee      	bne.n	8000214 <memchr+0x34>
 8000236:	bcf0      	pop	{r4, r5, r6, r7}
 8000238:	f001 01ff 	and.w	r1, r1, #255	@ 0xff
 800023c:	f002 0207 	and.w	r2, r2, #7
 8000240:	b132      	cbz	r2, 8000250 <memchr+0x70>
 8000242:	f810 3b01 	ldrb.w	r3, [r0], #1
 8000246:	3a01      	subs	r2, #1
 8000248:	ea83 0301 	eor.w	r3, r3, r1
 800024c:	b113      	cbz	r3, 8000254 <memchr+0x74>
 800024e:	d1f8      	bne.n	8000242 <memchr+0x62>
 8000250:	2000      	movs	r0, #0
 8000252:	4770      	bx	lr
 8000254:	3801      	subs	r0, #1
 8000256:	4770      	bx	lr
 8000258:	2d00      	cmp	r5, #0
 800025a:	bf06      	itte	eq
 800025c:	4635      	moveq	r5, r6
 800025e:	3803      	subeq	r0, #3
 8000260:	3807      	subne	r0, #7
 8000262:	f015 0f01 	tst.w	r5, #1
 8000266:	d107      	bne.n	8000278 <memchr+0x98>
 8000268:	3001      	adds	r0, #1
 800026a:	f415 7f80 	tst.w	r5, #256	@ 0x100
 800026e:	bf02      	ittt	eq
 8000270:	3001      	addeq	r0, #1
 8000272:	f415 3fc0 	tsteq.w	r5, #98304	@ 0x18000
 8000276:	3001      	addeq	r0, #1
 8000278:	bcf0      	pop	{r4, r5, r6, r7}
 800027a:	3801      	subs	r0, #1
 800027c:	4770      	bx	lr
 800027e:	bf00      	nop

08000280 <__aeabi_drsub>:
 8000280:	f081 4100 	eor.w	r1, r1, #2147483648	@ 0x80000000
 8000284:	e002      	b.n	800028c <__adddf3>
 8000286:	bf00      	nop

08000288 <__aeabi_dsub>:
 8000288:	f083 4300 	eor.w	r3, r3, #2147483648	@ 0x80000000

0800028c <__adddf3>:
 800028c:	b530      	push	{r4, r5, lr}
 800028e:	ea4f 0441 	mov.w	r4, r1, lsl #1
 8000292:	ea4f 0543 	mov.w	r5, r3, lsl #1
 8000296:	ea94 0f05 	teq	r4, r5
 800029a:	bf08      	it	eq
 800029c:	ea90 0f02 	teqeq	r0, r2
 80002a0:	bf1f      	itttt	ne
 80002a2:	ea54 0c00 	orrsne.w	ip, r4, r0
 80002a6:	ea55 0c02 	orrsne.w	ip, r5, r2
 80002aa:	ea7f 5c64 	mvnsne.w	ip, r4, asr #21
 80002ae:	ea7f 5c65 	mvnsne.w	ip, r5, asr #21
 80002b2:	f000 80e2 	beq.w	800047a <__adddf3+0x1ee>
 80002b6:	ea4f 5454 	mov.w	r4, r4, lsr #21
 80002ba:	ebd4 5555 	rsbs	r5, r4, r5, lsr #21
 80002be:	bfb8      	it	lt
 80002c0:	426d      	neglt	r5, r5
 80002c2:	dd0c      	ble.n	80002de <__adddf3+0x52>
 80002c4:	442c      	add	r4, r5
 80002c6:	ea80 0202 	eor.w	r2, r0, r2
 80002ca:	ea81 0303 	eor.w	r3, r1, r3
 80002ce:	ea82 0000 	eor.w	r0, r2, r0
 80002d2:	ea83 0101 	eor.w	r1, r3, r1
 80002d6:	ea80 0202 	eor.w	r2, r0, r2
 80002da:	ea81 0303 	eor.w	r3, r1, r3
 80002de:	2d36      	cmp	r5, #54	@ 0x36
 80002e0:	bf88      	it	hi
 80002e2:	bd30      	pophi	{r4, r5, pc}
 80002e4:	f011 4f00 	tst.w	r1, #2147483648	@ 0x80000000
 80002e8:	ea4f 3101 	mov.w	r1, r1, lsl #12
 80002ec:	f44f 1c80 	mov.w	ip, #1048576	@ 0x100000
 80002f0:	ea4c 3111 	orr.w	r1, ip, r1, lsr #12
 80002f4:	d002      	beq.n	80002fc <__adddf3+0x70>
 80002f6:	4240      	negs	r0, r0
 80002f8:	eb61 0141 	sbc.w	r1, r1, r1, lsl #1
 80002fc:	f013 4f00 	tst.w	r3, #2147483648	@ 0x80000000
 8000300:	ea4f 3303 	mov.w	r3, r3, lsl #12
 8000304:	ea4c 3313 	orr.w	r3, ip, r3, lsr #12
 8000308:	d002      	beq.n	8000310 <__adddf3+0x84>
 800030a:	4252      	negs	r2, r2
 800030c:	eb63 0343 	sbc.w	r3, r3, r3, lsl #1
 8000310:	ea94 0f05 	teq	r4, r5
 8000314:	f000 80a7 	beq.w	8000466 <__adddf3+0x1da>
 8000318:	f1a4 0401 	sub.w	r4, r4, #1
 800031c:	f1d5 0e20 	rsbs	lr, r5, #32
 8000320:	db0d      	blt.n	800033e <__adddf3+0xb2>
 8000322:	fa02 fc0e 	lsl.w	ip, r2, lr
 8000326:	fa22 f205 	lsr.w	r2, r2, r5
 800032a:	1880      	adds	r0, r0, r2
 800032c:	f141 0100 	adc.w	r1, r1, #0
 8000330:	fa03 f20e 	lsl.w	r2, r3, lr
 8000334:	1880      	adds	r0, r0, r2
 8000336:	fa43 f305 	asr.w	r3, r3, r5
 800033a:	4159      	adcs	r1, r3
 800033c:	e00e      	b.n	800035c <__adddf3+0xd0>
 800033e:	f1a5 0520 	sub.w	r5, r5, #32
 8000342:	f10e 0e20 	add.w	lr, lr, #32
 8000346:	2a01      	cmp	r2, #1
 8000348:	fa03 fc0e 	lsl.w	ip, r3, lr
 800034c:	bf28      	it	cs
 800034e:	f04c 0c02 	orrcs.w	ip, ip, #2
 8000352:	fa43 f305 	asr.w	r3, r3, r5
 8000356:	18c0      	adds	r0, r0, r3
 8000358:	eb51 71e3 	adcs.w	r1, r1, r3, asr #31
 800035c:	f001 4500 	and.w	r5, r1, #2147483648	@ 0x80000000
 8000360:	d507      	bpl.n	8000372 <__adddf3+0xe6>
 8000362:	f04f 0e00 	mov.w	lr, #0
 8000366:	f1dc 0c00 	rsbs	ip, ip, #0
 800036a:	eb7e 0000 	sbcs.w	r0, lr, r0
 800036e:	eb6e 0101 	sbc.w	r1, lr, r1
 8000372:	f5b1 1f80 	cmp.w	r1, #1048576	@ 0x100000
 8000376:	d31b      	bcc.n	80003b0 <__adddf3+0x124>
 8000378:	f5b1 1f00 	cmp.w	r1, #2097152	@ 0x200000
 800037c:	d30c      	bcc.n	8000398 <__adddf3+0x10c>
 800037e:	0849      	lsrs	r1, r1, #1
 8000380:	ea5f 0030 	movs.w	r0, r0, rrx
 8000384:	ea4f 0c3c 	mov.w	ip, ip, rrx
 8000388:	f104 0401 	add.w	r4, r4, #1
 800038c:	ea4f 5244 	mov.w	r2, r4, lsl #21
 8000390:	f512 0f80 	cmn.w	r2, #4194304	@ 0x400000
 8000394:	f080 809a 	bcs.w	80004cc <__adddf3+0x240>
 8000398:	f1bc 4f00 	cmp.w	ip, #2147483648	@ 0x80000000
 800039c:	bf08      	it	eq
 800039e:	ea5f 0c50 	movseq.w	ip, r0, lsr #1
 80003a2:	f150 0000 	adcs.w	r0, r0, #0
 80003a6:	eb41 5104 	adc.w	r1, r1, r4, lsl #20
 80003aa:	ea41 0105 	orr.w	r1, r1, r5
 80003ae:	bd30      	pop	{r4, r5, pc}
 80003b0:	ea5f 0c4c 	movs.w	ip, ip, lsl #1
 80003b4:	4140      	adcs	r0, r0
 80003b6:	eb41 0101 	adc.w	r1, r1, r1
 80003ba:	3c01      	subs	r4, #1
 80003bc:	bf28      	it	cs
 80003be:	f5b1 1f80 	cmpcs.w	r1, #1048576	@ 0x100000
 80003c2:	d2e9      	bcs.n	8000398 <__adddf3+0x10c>
 80003c4:	f091 0f00 	teq	r1, #0
 80003c8:	bf04      	itt	eq
 80003ca:	4601      	moveq	r1, r0
 80003cc:	2000      	moveq	r0, #0
 80003ce:	fab1 f381 	clz	r3, r1
 80003d2:	bf08      	it	eq
 80003d4:	3320      	addeq	r3, #32
 80003d6:	f1a3 030b 	sub.w	r3, r3, #11
 80003da:	f1b3 0220 	subs.w	r2, r3, #32
 80003de:	da0c      	bge.n	80003fa <__adddf3+0x16e>
 80003e0:	320c      	adds	r2, #12
 80003e2:	dd08      	ble.n	80003f6 <__adddf3+0x16a>
 80003e4:	f102 0c14 	add.w	ip, r2, #20
 80003e8:	f1c2 020c 	rsb	r2, r2, #12
 80003ec:	fa01 f00c 	lsl.w	r0, r1, ip
 80003f0:	fa21 f102 	lsr.w	r1, r1, r2
 80003f4:	e00c      	b.n	8000410 <__adddf3+0x184>
 80003f6:	f102 0214 	add.w	r2, r2, #20
 80003fa:	bfd8      	it	le
 80003fc:	f1c2 0c20 	rsble	ip, r2, #32
 8000400:	fa01 f102 	lsl.w	r1, r1, r2
 8000404:	fa20 fc0c 	lsr.w	ip, r0, ip
 8000408:	bfdc      	itt	le
 800040a:	ea41 010c 	orrle.w	r1, r1, ip
 800040e:	4090      	lslle	r0, r2
 8000410:	1ae4      	subs	r4, r4, r3
 8000412:	bfa2      	ittt	ge
 8000414:	eb01 5104 	addge.w	r1, r1, r4, lsl #20
 8000418:	4329      	orrge	r1, r5
 800041a:	bd30      	popge	{r4, r5, pc}
 800041c:	ea6f 0404 	mvn.w	r4, r4
 8000420:	3c1f      	subs	r4, #31
 8000422:	da1c      	bge.n	800045e <__adddf3+0x1d2>
 8000424:	340c      	adds	r4, #12
 8000426:	dc0e      	bgt.n	8000446 <__adddf3+0x1ba>
 8000428:	f104 0414 	add.w	r4, r4, #20
 800042c:	f1c4 0220 	rsb	r2, r4, #32
 8000430:	fa20 f004 	lsr.w	r0, r0, r4
 8000434:	fa01 f302 	lsl.w	r3, r1, r2
 8000438:	ea40 0003 	orr.w	r0, r0, r3
 800043c:	fa21 f304 	lsr.w	r3, r1, r4
 8000440:	ea45 0103 	orr.w	r1, r5, r3
 8000444:	bd30      	pop	{r4, r5, pc}
 8000446:	f1c4 040c 	rsb	r4, r4, #12
 800044a:	f1c4 0220 	rsb	r2, r4, #32
 800044e:	fa20 f002 	lsr.w	r0, r0, r2
 8000452:	fa01 f304 	lsl.w	r3, r1, r4
 8000456:	ea40 0003 	orr.w	r0, r0, r3
 800045a:	4629      	mov	r1, r5
 800045c:	bd30      	pop	{r4, r5, pc}
 800045e:	fa21 f004 	lsr.w	r0, r1, r4
 8000462:	4629      	mov	r1, r5
 8000464:	bd30      	pop	{r4, r5, pc}
 8000466:	f094 0f00 	teq	r4, #0
 800046a:	f483 1380 	eor.w	r3, r3, #1048576	@ 0x100000
 800046e:	bf06      	itte	eq
 8000470:	f481 1180 	eoreq.w	r1, r1, #1048576	@ 0x100000
 8000474:	3401      	addeq	r4, #1
 8000476:	3d01      	subne	r5, #1
 8000478:	e74e      	b.n	8000318 <__adddf3+0x8c>
 800047a:	ea7f 5c64 	mvns.w	ip, r4, asr #21
 800047e:	bf18      	it	ne
 8000480:	ea7f 5c65 	mvnsne.w	ip, r5, asr #21
 8000484:	d029      	beq.n	80004da <__adddf3+0x24e>
 8000486:	ea94 0f05 	teq	r4, r5
 800048a:	bf08      	it	eq
 800048c:	ea90 0f02 	teqeq	r0, r2
 8000490:	d005      	beq.n	800049e <__adddf3+0x212>
 8000492:	ea54 0c00 	orrs.w	ip, r4, r0
 8000496:	bf04      	itt	eq
 8000498:	4619      	moveq	r1, r3
 800049a:	4610      	moveq	r0, r2
 800049c:	bd30      	pop	{r4, r5, pc}
 800049e:	ea91 0f03 	teq	r1, r3
 80004a2:	bf1e      	ittt	ne
 80004a4:	2100      	movne	r1, #0
 80004a6:	2000      	movne	r0, #0
 80004a8:	bd30      	popne	{r4, r5, pc}
 80004aa:	ea5f 5c54 	movs.w	ip, r4, lsr #21
 80004ae:	d105      	bne.n	80004bc <__adddf3+0x230>
 80004b0:	0040      	lsls	r0, r0, #1
 80004b2:	4149      	adcs	r1, r1
 80004b4:	bf28      	it	cs
 80004b6:	f041 4100 	orrcs.w	r1, r1, #2147483648	@ 0x80000000
 80004ba:	bd30      	pop	{r4, r5, pc}
 80004bc:	f514 0480 	adds.w	r4, r4, #4194304	@ 0x400000
 80004c0:	bf3c      	itt	cc
 80004c2:	f501 1180 	addcc.w	r1, r1, #1048576	@ 0x100000
 80004c6:	bd30      	popcc	{r4, r5, pc}
 80004c8:	f001 4500 	and.w	r5, r1, #2147483648	@ 0x80000000
 80004cc:	f045 41fe 	orr.w	r1, r5, #2130706432	@ 0x7f000000
 80004d0:	f441 0170 	orr.w	r1, r1, #15728640	@ 0xf00000
 80004d4:	f04f 0000 	mov.w	r0, #0
 80004d8:	bd30      	pop	{r4, r5, pc}
 80004da:	ea7f 5c64 	mvns.w	ip, r4, asr #21
 80004de:	bf1a      	itte	ne
 80004e0:	4619      	movne	r1, r3
 80004e2:	4610      	movne	r0, r2
 80004e4:	ea7f 5c65 	mvnseq.w	ip, r5, asr #21
 80004e8:	bf1c      	itt	ne
 80004ea:	460b      	movne	r3, r1
 80004ec:	4602      	movne	r2, r0
 80004ee:	ea50 3401 	orrs.w	r4, r0, r1, lsl #12
 80004f2:	bf06      	itte	eq
 80004f4:	ea52 3503 	orrseq.w	r5, r2, r3, lsl #12
 80004f8:	ea91 0f03 	teqeq	r1, r3
 80004fc:	f441 2100 	orrne.w	r1, r1, #524288	@ 0x80000
 8000500:	bd30      	pop	{r4, r5, pc}
 8000502:	bf00      	nop

08000504 <__aeabi_ui2d>:
 8000504:	f090 0f00 	teq	r0, #0
 8000508:	bf04      	itt	eq
 800050a:	2100      	moveq	r1, #0
 800050c:	4770      	bxeq	lr
 800050e:	b530      	push	{r4, r5, lr}
 8000510:	f44f 6480 	mov.w	r4, #1024	@ 0x400
 8000514:	f104 0432 	add.w	r4, r4, #50	@ 0x32
 8000518:	f04f 0500 	mov.w	r5, #0
 800051c:	f04f 0100 	mov.w	r1, #0
 8000520:	e750      	b.n	80003c4 <__adddf3+0x138>
 8000522:	bf00      	nop

08000524 <__aeabi_i2d>:
 8000524:	f090 0f00 	teq	r0, #0
 8000528:	bf04      	itt	eq
 800052a:	2100      	moveq	r1, #0
 800052c:	4770      	bxeq	lr
 800052e:	b530      	push	{r4, r5, lr}
 8000530:	f44f 6480 	mov.w	r4, #1024	@ 0x400
 8000534:	f104 0432 	add.w	r4, r4, #50	@ 0x32
 8000538:	f010 4500 	ands.w	r5, r0, #2147483648	@ 0x80000000
 800053c:	bf48      	it	mi
 800053e:	4240      	negmi	r0, r0
 8000540:	f04f 0100 	mov.w	r1, #0
 8000544:	e73e      	b.n	80003c4 <__adddf3+0x138>
 8000546:	bf00      	nop

08000548 <__aeabi_f2d>:
 8000548:	0042      	lsls	r2, r0, #1
 800054a:	ea4f 01e2 	mov.w	r1, r2, asr #3
 800054e:	ea4f 0131 	mov.w	r1, r1, rrx
 8000552:	ea4f 7002 	mov.w	r0, r2, lsl #28
 8000556:	bf1f      	itttt	ne
 8000558:	f012 437f 	andsne.w	r3, r2, #4278190080	@ 0xff000000
 800055c:	f093 4f7f 	teqne	r3, #4278190080	@ 0xff000000
 8000560:	f081 5160 	eorne.w	r1, r1, #939524096	@ 0x38000000
 8000564:	4770      	bxne	lr
 8000566:	f032 427f 	bics.w	r2, r2, #4278190080	@ 0xff000000
 800056a:	bf08      	it	eq
 800056c:	4770      	bxeq	lr
 800056e:	f093 4f7f 	teq	r3, #4278190080	@ 0xff000000
 8000572:	bf04      	itt	eq
 8000574:	f441 2100 	orreq.w	r1, r1, #524288	@ 0x80000
 8000578:	4770      	bxeq	lr
 800057a:	b530      	push	{r4, r5, lr}
 800057c:	f44f 7460 	mov.w	r4, #896	@ 0x380
 8000580:	f001 4500 	and.w	r5, r1, #2147483648	@ 0x80000000
 8000584:	f021 4100 	bic.w	r1, r1, #2147483648	@ 0x80000000
 8000588:	e71c      	b.n	80003c4 <__adddf3+0x138>
 800058a:	bf00      	nop

0800058c <__aeabi_ul2d>:
 800058c:	ea50 0201 	orrs.w	r2, r0, r1
 8000590:	bf08      	it	eq
 8000592:	4770      	bxeq	lr
 8000594:	b530      	push	{r4, r5, lr}
 8000596:	f04f 0500 	mov.w	r5, #0
 800059a:	e00a      	b.n	80005b2 <__aeabi_l2d+0x16>

0800059c <__aeabi_l2d>:
 800059c:	ea50 0201 	orrs.w	r2, r0, r1
 80005a0:	bf08      	it	eq
 80005a2:	4770      	bxeq	lr
 80005a4:	b530      	push	{r4, r5, lr}
 80005a6:	f011 4500 	ands.w	r5, r1, #2147483648	@ 0x80000000
 80005aa:	d502      	bpl.n	80005b2 <__aeabi_l2d+0x16>
 80005ac:	4240      	negs	r0, r0
 80005ae:	eb61 0141 	sbc.w	r1, r1, r1, lsl #1
 80005b2:	f44f 6480 	mov.w	r4, #1024	@ 0x400
 80005b6:	f104 0432 	add.w	r4, r4, #50	@ 0x32
 80005ba:	ea5f 5c91 	movs.w	ip, r1, lsr #22
 80005be:	f43f aed8 	beq.w	8000372 <__adddf3+0xe6>
 80005c2:	f04f 0203 	mov.w	r2, #3
 80005c6:	ea5f 0cdc 	movs.w	ip, ip, lsr #3
 80005ca:	bf18      	it	ne
 80005cc:	3203      	addne	r2, #3
 80005ce:	ea5f 0cdc 	movs.w	ip, ip, lsr #3
 80005d2:	bf18      	it	ne
 80005d4:	3203      	addne	r2, #3
 80005d6:	eb02 02dc 	add.w	r2, r2, ip, lsr #3
 80005da:	f1c2 0320 	rsb	r3, r2, #32
 80005de:	fa00 fc03 	lsl.w	ip, r0, r3
 80005e2:	fa20 f002 	lsr.w	r0, r0, r2
 80005e6:	fa01 fe03 	lsl.w	lr, r1, r3
 80005ea:	ea40 000e 	orr.w	r0, r0, lr
 80005ee:	fa21 f102 	lsr.w	r1, r1, r2
 80005f2:	4414      	add	r4, r2
 80005f4:	e6bd      	b.n	8000372 <__adddf3+0xe6>
 80005f6:	bf00      	nop

080005f8 <__aeabi_dmul>:
 80005f8:	b570      	push	{r4, r5, r6, lr}
 80005fa:	f04f 0cff 	mov.w	ip, #255	@ 0xff
 80005fe:	f44c 6ce0 	orr.w	ip, ip, #1792	@ 0x700
 8000602:	ea1c 5411 	ands.w	r4, ip, r1, lsr #20
 8000606:	bf1d      	ittte	ne
 8000608:	ea1c 5513 	andsne.w	r5, ip, r3, lsr #20
 800060c:	ea94 0f0c 	teqne	r4, ip
 8000610:	ea95 0f0c 	teqne	r5, ip
 8000614:	f000 f8de 	bleq	80007d4 <__aeabi_dmul+0x1dc>
 8000618:	442c      	add	r4, r5
 800061a:	ea81 0603 	eor.w	r6, r1, r3
 800061e:	ea21 514c 	bic.w	r1, r1, ip, lsl #21
 8000622:	ea23 534c 	bic.w	r3, r3, ip, lsl #21
 8000626:	ea50 3501 	orrs.w	r5, r0, r1, lsl #12
 800062a:	bf18      	it	ne
 800062c:	ea52 3503 	orrsne.w	r5, r2, r3, lsl #12
 8000630:	f441 1180 	orr.w	r1, r1, #1048576	@ 0x100000
 8000634:	f443 1380 	orr.w	r3, r3, #1048576	@ 0x100000
 8000638:	d038      	beq.n	80006ac <__aeabi_dmul+0xb4>
 800063a:	fba0 ce02 	umull	ip, lr, r0, r2
 800063e:	f04f 0500 	mov.w	r5, #0
 8000642:	fbe1 e502 	umlal	lr, r5, r1, r2
 8000646:	f006 4200 	and.w	r2, r6, #2147483648	@ 0x80000000
 800064a:	fbe0 e503 	umlal	lr, r5, r0, r3
 800064e:	f04f 0600 	mov.w	r6, #0
 8000652:	fbe1 5603 	umlal	r5, r6, r1, r3
 8000656:	f09c 0f00 	teq	ip, #0
 800065a:	bf18      	it	ne
 800065c:	f04e 0e01 	orrne.w	lr, lr, #1
 8000660:	f1a4 04ff 	sub.w	r4, r4, #255	@ 0xff
 8000664:	f5b6 7f00 	cmp.w	r6, #512	@ 0x200
 8000668:	f564 7440 	sbc.w	r4, r4, #768	@ 0x300
 800066c:	d204      	bcs.n	8000678 <__aeabi_dmul+0x80>
 800066e:	ea5f 0e4e 	movs.w	lr, lr, lsl #1
 8000672:	416d      	adcs	r5, r5
 8000674:	eb46 0606 	adc.w	r6, r6, r6
 8000678:	ea42 21c6 	orr.w	r1, r2, r6, lsl #11
 800067c:	ea41 5155 	orr.w	r1, r1, r5, lsr #21
 8000680:	ea4f 20c5 	mov.w	r0, r5, lsl #11
 8000684:	ea40 505e 	orr.w	r0, r0, lr, lsr #21
 8000688:	ea4f 2ece 	mov.w	lr, lr, lsl #11
 800068c:	f1b4 0cfd 	subs.w	ip, r4, #253	@ 0xfd
 8000690:	bf88      	it	hi
 8000692:	f5bc 6fe0 	cmphi.w	ip, #1792	@ 0x700
 8000696:	d81e      	bhi.n	80006d6 <__aeabi_dmul+0xde>
 8000698:	f1be 4f00 	cmp.w	lr, #2147483648	@ 0x80000000
 800069c:	bf08      	it	eq
 800069e:	ea5f 0e50 	movseq.w	lr, r0, lsr #1
 80006a2:	f150 0000 	adcs.w	r0, r0, #0
 80006a6:	eb41 5104 	adc.w	r1, r1, r4, lsl #20
 80006aa:	bd70      	pop	{r4, r5, r6, pc}
 80006ac:	f006 4600 	and.w	r6, r6, #2147483648	@ 0x80000000
 80006b0:	ea46 0101 	orr.w	r1, r6, r1
 80006b4:	ea40 0002 	orr.w	r0, r0, r2
 80006b8:	ea81 0103 	eor.w	r1, r1, r3
 80006bc:	ebb4 045c 	subs.w	r4, r4, ip, lsr #1
 80006c0:	bfc2      	ittt	gt
 80006c2:	ebd4 050c 	rsbsgt	r5, r4, ip
 80006c6:	ea41 5104 	orrgt.w	r1, r1, r4, lsl #20
 80006ca:	bd70      	popgt	{r4, r5, r6, pc}
 80006cc:	f441 1180 	orr.w	r1, r1, #1048576	@ 0x100000
 80006d0:	f04f 0e00 	mov.w	lr, #0
 80006d4:	3c01      	subs	r4, #1
 80006d6:	f300 80ab 	bgt.w	8000830 <__aeabi_dmul+0x238>
 80006da:	f114 0f36 	cmn.w	r4, #54	@ 0x36
 80006de:	bfde      	ittt	le
 80006e0:	2000      	movle	r0, #0
 80006e2:	f001 4100 	andle.w	r1, r1, #2147483648	@ 0x80000000
 80006e6:	bd70      	pople	{r4, r5, r6, pc}
 80006e8:	f1c4 0400 	rsb	r4, r4, #0
 80006ec:	3c20      	subs	r4, #32
 80006ee:	da35      	bge.n	800075c <__aeabi_dmul+0x164>
 80006f0:	340c      	adds	r4, #12
 80006f2:	dc1b      	bgt.n	800072c <__aeabi_dmul+0x134>
 80006f4:	f104 0414 	add.w	r4, r4, #20
 80006f8:	f1c4 0520 	rsb	r5, r4, #32
 80006fc:	fa00 f305 	lsl.w	r3, r0, r5
 8000700:	fa20 f004 	lsr.w	r0, r0, r4
 8000704:	fa01 f205 	lsl.w	r2, r1, r5
 8000708:	ea40 0002 	orr.w	r0, r0, r2
 800070c:	f001 4200 	and.w	r2, r1, #2147483648	@ 0x80000000
 8000710:	f021 4100 	bic.w	r1, r1, #2147483648	@ 0x80000000
 8000714:	eb10 70d3 	adds.w	r0, r0, r3, lsr #31
 8000718:	fa21 f604 	lsr.w	r6, r1, r4
 800071c:	eb42 0106 	adc.w	r1, r2, r6
 8000720:	ea5e 0e43 	orrs.w	lr, lr, r3, lsl #1
 8000724:	bf08      	it	eq
 8000726:	ea20 70d3 	biceq.w	r0, r0, r3, lsr #31
 800072a:	bd70      	pop	{r4, r5, r6, pc}
 800072c:	f1c4 040c 	rsb	r4, r4, #12
 8000730:	f1c4 0520 	rsb	r5, r4, #32
 8000734:	fa00 f304 	lsl.w	r3, r0, r4
 8000738:	fa20 f005 	lsr.w	r0, r0, r5
 800073c:	fa01 f204 	lsl.w	r2, r1, r4
 8000740:	ea40 0002 	orr.w	r0, r0, r2
 8000744:	f001 4100 	and.w	r1, r1, #2147483648	@ 0x80000000
 8000748:	eb10 70d3 	adds.w	r0, r0, r3, lsr #31
 800074c:	f141 0100 	adc.w	r1, r1, #0
 8000750:	ea5e 0e43 	orrs.w	lr, lr, r3, lsl #1
 8000754:	bf08      	it	eq
 8000756:	ea20 70d3 	biceq.w	r0, r0, r3, lsr #31
 800075a:	bd70      	pop	{r4, r5, r6, pc}
 800075c:	f1c4 0520 	rsb	r5, r4, #32
 8000760:	fa00 f205 	lsl.w	r2, r0, r5
 8000764:	ea4e 0e02 	orr.w	lr, lr, r2
 8000768:	fa20 f304 	lsr.w	r3, r0, r4
 800076c:	fa01 f205 	lsl.w	r2, r1, r5
 8000770:	ea43 0302 	orr.w	r3, r3, r2
 8000774:	fa21 f004 	lsr.w	r0, r1, r4
 8000778:	f001 4100 	and.w	r1, r1, #2147483648	@ 0x80000000
 800077c:	fa21 f204 	lsr.w	r2, r1, r4
 8000780:	ea20 0002 	bic.w	r0, r0, r2
 8000784:	eb00 70d3 	add.w	r0, r0, r3, lsr #31
 8000788:	ea5e 0e43 	orrs.w	lr, lr, r3, lsl #1
 800078c:	bf08      	it	eq
 800078e:	ea20 70d3 	biceq.w	r0, r0, r3, lsr #31
 8000792:	bd70      	pop	{r4, r5, r6, pc}
 8000794:	f094 0f00 	teq	r4, #0
 8000798:	d10f      	bne.n	80007ba <__aeabi_dmul+0x1c2>
 800079a:	f001 4600 	and.w	r6, r1, #2147483648	@ 0x80000000
 800079e:	0040      	lsls	r0, r0, #1
 80007a0:	eb41 0101 	adc.w	r1, r1, r1
 80007a4:	f411 1f80 	tst.w	r1, #1048576	@ 0x100000
 80007a8:	bf08      	it	eq
 80007aa:	3c01      	subeq	r4, #1
 80007ac:	d0f7      	beq.n	800079e <__aeabi_dmul+0x1a6>
 80007ae:	ea41 0106 	orr.w	r1, r1, r6
 80007b2:	f095 0f00 	teq	r5, #0
 80007b6:	bf18      	it	ne
 80007b8:	4770      	bxne	lr
 80007ba:	f003 4600 	and.w	r6, r3, #2147483648	@ 0x80000000
 80007be:	0052      	lsls	r2, r2, #1
 80007c0:	eb43 0303 	adc.w	r3, r3, r3
 80007c4:	f413 1f80 	tst.w	r3, #1048576	@ 0x100000
 80007c8:	bf08      	it	eq
 80007ca:	3d01      	subeq	r5, #1
 80007cc:	d0f7      	beq.n	80007be <__aeabi_dmul+0x1c6>
 80007ce:	ea43 0306 	orr.w	r3, r3, r6
 80007d2:	4770      	bx	lr
 80007d4:	ea94 0f0c 	teq	r4, ip
 80007d8:	ea0c 5513 	and.w	r5, ip, r3, lsr #20
 80007dc:	bf18      	it	ne
 80007de:	ea95 0f0c 	teqne	r5, ip
 80007e2:	d00c      	beq.n	80007fe <__aeabi_dmul+0x206>
 80007e4:	ea50 0641 	orrs.w	r6, r0, r1, lsl #1
 80007e8:	bf18      	it	ne
 80007ea:	ea52 0643 	orrsne.w	r6, r2, r3, lsl #1
 80007ee:	d1d1      	bne.n	8000794 <__aeabi_dmul+0x19c>
 80007f0:	ea81 0103 	eor.w	r1, r1, r3
 80007f4:	f001 4100 	and.w	r1, r1, #2147483648	@ 0x80000000
 80007f8:	f04f 0000 	mov.w	r0, #0
 80007fc:	bd70      	pop	{r4, r5, r6, pc}
 80007fe:	ea50 0641 	orrs.w	r6, r0, r1, lsl #1
 8000802:	bf06      	itte	eq
 8000804:	4610      	moveq	r0, r2
 8000806:	4619      	moveq	r1, r3
 8000808:	ea52 0643 	orrsne.w	r6, r2, r3, lsl #1
 800080c:	d019      	beq.n	8000842 <__aeabi_dmul+0x24a>
 800080e:	ea94 0f0c 	teq	r4, ip
 8000812:	d102      	bne.n	800081a <__aeabi_dmul+0x222>
 8000814:	ea50 3601 	orrs.w	r6, r0, r1, lsl #12
 8000818:	d113      	bne.n	8000842 <__aeabi_dmul+0x24a>
 800081a:	ea95 0f0c 	teq	r5, ip
 800081e:	d105      	bne.n	800082c <__aeabi_dmul+0x234>
 8000820:	ea52 3603 	orrs.w	r6, r2, r3, lsl #12
 8000824:	bf1c      	itt	ne
 8000826:	4610      	movne	r0, r2
 8000828:	4619      	movne	r1, r3
 800082a:	d10a      	bne.n	8000842 <__aeabi_dmul+0x24a>
 800082c:	ea81 0103 	eor.w	r1, r1, r3
 8000830:	f001 4100 	and.w	r1, r1, #2147483648	@ 0x80000000
 8000834:	f041 41fe 	orr.w	r1, r1, #2130706432	@ 0x7f000000
 8000838:	f441 0170 	orr.w	r1, r1, #15728640	@ 0xf00000
 800083c:	f04f 0000 	mov.w	r0, #0
 8000840:	bd70      	pop	{r4, r5, r6, pc}
 8000842:	f041 41fe 	orr.w	r1, r1, #2130706432	@ 0x7f000000
 8000846:	f441 0178 	orr.w	r1, r1, #16252928	@ 0xf80000
 800084a:	bd70      	pop	{r4, r5, r6, pc}

0800084c <__aeabi_ddiv>:
 800084c:	b570      	push	{r4, r5, r6, lr}
 800084e:	f04f 0cff 	mov.w	ip, #255	@ 0xff
 8000852:	f44c 6ce0 	orr.w	ip, ip, #1792	@ 0x700
 8000856:	ea1c 5411 	ands.w	r4, ip, r1, lsr #20
 800085a:	bf1d      	ittte	ne
 800085c:	ea1c 5513 	andsne.w	r5, ip, r3, lsr #20
 8000860:	ea94 0f0c 	teqne	r4, ip
 8000864:	ea95 0f0c 	teqne	r5, ip
 8000868:	f000 f8a7 	bleq	80009ba <__aeabi_ddiv+0x16e>
 800086c:	eba4 0405 	sub.w	r4, r4, r5
 8000870:	ea81 0e03 	eor.w	lr, r1, r3
 8000874:	ea52 3503 	orrs.w	r5, r2, r3, lsl #12
 8000878:	ea4f 3101 	mov.w	r1, r1, lsl #12
 800087c:	f000 8088 	beq.w	8000990 <__aeabi_ddiv+0x144>
 8000880:	ea4f 3303 	mov.w	r3, r3, lsl #12
 8000884:	f04f 5580 	mov.w	r5, #268435456	@ 0x10000000
 8000888:	ea45 1313 	orr.w	r3, r5, r3, lsr #4
 800088c:	ea43 6312 	orr.w	r3, r3, r2, lsr #24
 8000890:	ea4f 2202 	mov.w	r2, r2, lsl #8
 8000894:	ea45 1511 	orr.w	r5, r5, r1, lsr #4
 8000898:	ea45 6510 	orr.w	r5, r5, r0, lsr #24
 800089c:	ea4f 2600 	mov.w	r6, r0, lsl #8
 80008a0:	f00e 4100 	and.w	r1, lr, #2147483648	@ 0x80000000
 80008a4:	429d      	cmp	r5, r3
 80008a6:	bf08      	it	eq
 80008a8:	4296      	cmpeq	r6, r2
 80008aa:	f144 04fd 	adc.w	r4, r4, #253	@ 0xfd
 80008ae:	f504 7440 	add.w	r4, r4, #768	@ 0x300
 80008b2:	d202      	bcs.n	80008ba <__aeabi_ddiv+0x6e>
 80008b4:	085b      	lsrs	r3, r3, #1
 80008b6:	ea4f 0232 	mov.w	r2, r2, rrx
 80008ba:	1ab6      	subs	r6, r6, r2
 80008bc:	eb65 0503 	sbc.w	r5, r5, r3
 80008c0:	085b      	lsrs	r3, r3, #1
 80008c2:	ea4f 0232 	mov.w	r2, r2, rrx
 80008c6:	f44f 1080 	mov.w	r0, #1048576	@ 0x100000
 80008ca:	f44f 2c00 	mov.w	ip, #524288	@ 0x80000
 80008ce:	ebb6 0e02 	subs.w	lr, r6, r2
 80008d2:	eb75 0e03 	sbcs.w	lr, r5, r3
 80008d6:	bf22      	ittt	cs
 80008d8:	1ab6      	subcs	r6, r6, r2
 80008da:	4675      	movcs	r5, lr
 80008dc:	ea40 000c 	orrcs.w	r0, r0, ip
 80008e0:	085b      	lsrs	r3, r3, #1
 80008e2:	ea4f 0232 	mov.w	r2, r2, rrx
 80008e6:	ebb6 0e02 	subs.w	lr, r6, r2
 80008ea:	eb75 0e03 	sbcs.w	lr, r5, r3
 80008ee:	bf22      	ittt	cs
 80008f0:	1ab6      	subcs	r6, r6, r2
 80008f2:	4675      	movcs	r5, lr
 80008f4:	ea40 005c 	orrcs.w	r0, r0, ip, lsr #1
 80008f8:	085b      	lsrs	r3, r3, #1
 80008fa:	ea4f 0232 	mov.w	r2, r2, rrx
 80008fe:	ebb6 0e02 	subs.w	lr, r6, r2
 8000902:	eb75 0e03 	sbcs.w	lr, r5, r3
 8000906:	bf22      	ittt	cs
 8000908:	1ab6      	subcs	r6, r6, r2
 800090a:	4675      	movcs	r5, lr
 800090c:	ea40 009c 	orrcs.w	r0, r0, ip, lsr #2
 8000910:	085b      	lsrs	r3, r3, #1
 8000912:	ea4f 0232 	mov.w	r2, r2, rrx
 8000916:	ebb6 0e02 	subs.w	lr, r6, r2
 800091a:	eb75 0e03 	sbcs.w	lr, r5, r3
 800091e:	bf22      	ittt	cs
 8000920:	1ab6      	subcs	r6, r6, r2
 8000922:	4675      	movcs	r5, lr
 8000924:	ea40 00dc 	orrcs.w	r0, r0, ip, lsr #3
 8000928:	ea55 0e06 	orrs.w	lr, r5, r6
 800092c:	d018      	beq.n	8000960 <__aeabi_ddiv+0x114>
 800092e:	ea4f 1505 	mov.w	r5, r5, lsl #4
 8000932:	ea45 7516 	orr.w	r5, r5, r6, lsr #28
 8000936:	ea4f 1606 	mov.w	r6, r6, lsl #4
 800093a:	ea4f 03c3 	mov.w	r3, r3, lsl #3
 800093e:	ea43 7352 	orr.w	r3, r3, r2, lsr #29
 8000942:	ea4f 02c2 	mov.w	r2, r2, lsl #3
 8000946:	ea5f 1c1c 	movs.w	ip, ip, lsr #4
 800094a:	d1c0      	bne.n	80008ce <__aeabi_ddiv+0x82>
 800094c:	f411 1f80 	tst.w	r1, #1048576	@ 0x100000
 8000950:	d10b      	bne.n	800096a <__aeabi_ddiv+0x11e>
 8000952:	ea41 0100 	orr.w	r1, r1, r0
 8000956:	f04f 0000 	mov.w	r0, #0
 800095a:	f04f 4c00 	mov.w	ip, #2147483648	@ 0x80000000
 800095e:	e7b6      	b.n	80008ce <__aeabi_ddiv+0x82>
 8000960:	f411 1f80 	tst.w	r1, #1048576	@ 0x100000
 8000964:	bf04      	itt	eq
 8000966:	4301      	orreq	r1, r0
 8000968:	2000      	moveq	r0, #0
 800096a:	f1b4 0cfd 	subs.w	ip, r4, #253	@ 0xfd
 800096e:	bf88      	it	hi
 8000970:	f5bc 6fe0 	cmphi.w	ip, #1792	@ 0x700
 8000974:	f63f aeaf 	bhi.w	80006d6 <__aeabi_dmul+0xde>
 8000978:	ebb5 0c03 	subs.w	ip, r5, r3
 800097c:	bf04      	itt	eq
 800097e:	ebb6 0c02 	subseq.w	ip, r6, r2
 8000982:	ea5f 0c50 	movseq.w	ip, r0, lsr #1
 8000986:	f150 0000 	adcs.w	r0, r0, #0
 800098a:	eb41 5104 	adc.w	r1, r1, r4, lsl #20
 800098e:	bd70      	pop	{r4, r5, r6, pc}
 8000990:	f00e 4e00 	and.w	lr, lr, #2147483648	@ 0x80000000
 8000994:	ea4e 3111 	orr.w	r1, lr, r1, lsr #12
 8000998:	eb14 045c 	adds.w	r4, r4, ip, lsr #1
 800099c:	bfc2      	ittt	gt
 800099e:	ebd4 050c 	rsbsgt	r5, r4, ip
 80009a2:	ea41 5104 	orrgt.w	r1, r1, r4, lsl #20
 80009a6:	bd70      	popgt	{r4, r5, r6, pc}
 80009a8:	f441 1180 	orr.w	r1, r1, #1048576	@ 0x100000
 80009ac:	f04f 0e00 	mov.w	lr, #0
 80009b0:	3c01      	subs	r4, #1
 80009b2:	e690      	b.n	80006d6 <__aeabi_dmul+0xde>
 80009b4:	ea45 0e06 	orr.w	lr, r5, r6
 80009b8:	e68d      	b.n	80006d6 <__aeabi_dmul+0xde>
 80009ba:	ea0c 5513 	and.w	r5, ip, r3, lsr #20
 80009be:	ea94 0f0c 	teq	r4, ip
 80009c2:	bf08      	it	eq
 80009c4:	ea95 0f0c 	teqeq	r5, ip
 80009c8:	f43f af3b 	beq.w	8000842 <__aeabi_dmul+0x24a>
 80009cc:	ea94 0f0c 	teq	r4, ip
 80009d0:	d10a      	bne.n	80009e8 <__aeabi_ddiv+0x19c>
 80009d2:	ea50 3401 	orrs.w	r4, r0, r1, lsl #12
 80009d6:	f47f af34 	bne.w	8000842 <__aeabi_dmul+0x24a>
 80009da:	ea95 0f0c 	teq	r5, ip
 80009de:	f47f af25 	bne.w	800082c <__aeabi_dmul+0x234>
 80009e2:	4610      	mov	r0, r2
 80009e4:	4619      	mov	r1, r3
 80009e6:	e72c      	b.n	8000842 <__aeabi_dmul+0x24a>
 80009e8:	ea95 0f0c 	teq	r5, ip
 80009ec:	d106      	bne.n	80009fc <__aeabi_ddiv+0x1b0>
 80009ee:	ea52 3503 	orrs.w	r5, r2, r3, lsl #12
 80009f2:	f43f aefd 	beq.w	80007f0 <__aeabi_dmul+0x1f8>
 80009f6:	4610      	mov	r0, r2
 80009f8:	4619      	mov	r1, r3
 80009fa:	e722      	b.n	8000842 <__aeabi_dmul+0x24a>
 80009fc:	ea50 0641 	orrs.w	r6, r0, r1, lsl #1
 8000a00:	bf18      	it	ne
 8000a02:	ea52 0643 	orrsne.w	r6, r2, r3, lsl #1
 8000a06:	f47f aec5 	bne.w	8000794 <__aeabi_dmul+0x19c>
 8000a0a:	ea50 0441 	orrs.w	r4, r0, r1, lsl #1
 8000a0e:	f47f af0d 	bne.w	800082c <__aeabi_dmul+0x234>
 8000a12:	ea52 0543 	orrs.w	r5, r2, r3, lsl #1
 8000a16:	f47f aeeb 	bne.w	80007f0 <__aeabi_dmul+0x1f8>
 8000a1a:	e712      	b.n	8000842 <__aeabi_dmul+0x24a>

08000a1c <__aeabi_d2iz>:
 8000a1c:	ea4f 0241 	mov.w	r2, r1, lsl #1
 8000a20:	f512 1200 	adds.w	r2, r2, #2097152	@ 0x200000
 8000a24:	d215      	bcs.n	8000a52 <__aeabi_d2iz+0x36>
 8000a26:	d511      	bpl.n	8000a4c <__aeabi_d2iz+0x30>
 8000a28:	f46f 7378 	mvn.w	r3, #992	@ 0x3e0
 8000a2c:	ebb3 5262 	subs.w	r2, r3, r2, asr #21
 8000a30:	d912      	bls.n	8000a58 <__aeabi_d2iz+0x3c>
 8000a32:	ea4f 23c1 	mov.w	r3, r1, lsl #11
 8000a36:	f043 4300 	orr.w	r3, r3, #2147483648	@ 0x80000000
 8000a3a:	ea43 5350 	orr.w	r3, r3, r0, lsr #21
 8000a3e:	f011 4f00 	tst.w	r1, #2147483648	@ 0x80000000
 8000a42:	fa23 f002 	lsr.w	r0, r3, r2
 8000a46:	bf18      	it	ne
 8000a48:	4240      	negne	r0, r0
 8000a4a:	4770      	bx	lr
 8000a4c:	f04f 0000 	mov.w	r0, #0
 8000a50:	4770      	bx	lr
 8000a52:	ea50 3001 	orrs.w	r0, r0, r1, lsl #12
 8000a56:	d105      	bne.n	8000a64 <__aeabi_d2iz+0x48>
 8000a58:	f011 4000 	ands.w	r0, r1, #2147483648	@ 0x80000000
 8000a5c:	bf08      	it	eq
 8000a5e:	f06f 4000 	mvneq.w	r0, #2147483648	@ 0x80000000
 8000a62:	4770      	bx	lr
 8000a64:	f04f 0000 	mov.w	r0, #0
 8000a68:	4770      	bx	lr
 8000a6a:	bf00      	nop

08000a6c <__aeabi_uldivmod>:
 8000a6c:	b953      	cbnz	r3, 8000a84 <__aeabi_uldivmod+0x18>
 8000a6e:	b94a      	cbnz	r2, 8000a84 <__aeabi_uldivmod+0x18>
 8000a70:	2900      	cmp	r1, #0
 8000a72:	bf08      	it	eq
 8000a74:	2800      	cmpeq	r0, #0
 8000a76:	bf1c      	itt	ne
 8000a78:	f04f 31ff 	movne.w	r1, #4294967295
 8000a7c:	f04f 30ff 	movne.w	r0, #4294967295
 8000a80:	f000 b96a 	b.w	8000d58 <__aeabi_idiv0>
 8000a84:	f1ad 0c08 	sub.w	ip, sp, #8
 8000a88:	e96d ce04 	strd	ip, lr, [sp, #-16]!
 8000a8c:	f000 f806 	bl	8000a9c <__udivmoddi4>
 8000a90:	f8dd e004 	ldr.w	lr, [sp, #4]
 8000a94:	e9dd 2302 	ldrd	r2, r3, [sp, #8]
 8000a98:	b004      	add	sp, #16
 8000a9a:	4770      	bx	lr

08000a9c <__udivmoddi4>:
 8000a9c:	e92d 47f0 	stmdb	sp!, {r4, r5, r6, r7, r8, r9, sl, lr}
 8000aa0:	9d08      	ldr	r5, [sp, #32]
 8000aa2:	460c      	mov	r4, r1
 8000aa4:	2b00      	cmp	r3, #0
 8000aa6:	d14e      	bne.n	8000b46 <__udivmoddi4+0xaa>
 8000aa8:	4694      	mov	ip, r2
 8000aaa:	458c      	cmp	ip, r1
 8000aac:	4686      	mov	lr, r0
 8000aae:	fab2 f282 	clz	r2, r2
 8000ab2:	d962      	bls.n	8000b7a <__udivmoddi4+0xde>
 8000ab4:	b14a      	cbz	r2, 8000aca <__udivmoddi4+0x2e>
 8000ab6:	f1c2 0320 	rsb	r3, r2, #32
 8000aba:	4091      	lsls	r1, r2
 8000abc:	fa20 f303 	lsr.w	r3, r0, r3
 8000ac0:	fa0c fc02 	lsl.w	ip, ip, r2
 8000ac4:	4319      	orrs	r1, r3
 8000ac6:	fa00 fe02 	lsl.w	lr, r0, r2
 8000aca:	ea4f 471c 	mov.w	r7, ip, lsr #16
 8000ace:	fa1f f68c 	uxth.w	r6, ip
 8000ad2:	fbb1 f4f7 	udiv	r4, r1, r7
 8000ad6:	ea4f 431e 	mov.w	r3, lr, lsr #16
 8000ada:	fb07 1114 	mls	r1, r7, r4, r1
 8000ade:	ea43 4301 	orr.w	r3, r3, r1, lsl #16
 8000ae2:	fb04 f106 	mul.w	r1, r4, r6
 8000ae6:	4299      	cmp	r1, r3
 8000ae8:	d90a      	bls.n	8000b00 <__udivmoddi4+0x64>
 8000aea:	eb1c 0303 	adds.w	r3, ip, r3
 8000aee:	f104 30ff 	add.w	r0, r4, #4294967295
 8000af2:	f080 8112 	bcs.w	8000d1a <__udivmoddi4+0x27e>
 8000af6:	4299      	cmp	r1, r3
 8000af8:	f240 810f 	bls.w	8000d1a <__udivmoddi4+0x27e>
 8000afc:	3c02      	subs	r4, #2
 8000afe:	4463      	add	r3, ip
 8000b00:	1a59      	subs	r1, r3, r1
 8000b02:	fa1f f38e 	uxth.w	r3, lr
 8000b06:	fbb1 f0f7 	udiv	r0, r1, r7
 8000b0a:	fb07 1110 	mls	r1, r7, r0, r1
 8000b0e:	ea43 4301 	orr.w	r3, r3, r1, lsl #16
 8000b12:	fb00 f606 	mul.w	r6, r0, r6
 8000b16:	429e      	cmp	r6, r3
 8000b18:	d90a      	bls.n	8000b30 <__udivmoddi4+0x94>
 8000b1a:	eb1c 0303 	adds.w	r3, ip, r3
 8000b1e:	f100 31ff 	add.w	r1, r0, #4294967295
 8000b22:	f080 80fc 	bcs.w	8000d1e <__udivmoddi4+0x282>
 8000b26:	429e      	cmp	r6, r3
 8000b28:	f240 80f9 	bls.w	8000d1e <__udivmoddi4+0x282>
 8000b2c:	4463      	add	r3, ip
 8000b2e:	3802      	subs	r0, #2
 8000b30:	1b9b      	subs	r3, r3, r6
 8000b32:	ea40 4004 	orr.w	r0, r0, r4, lsl #16
 8000b36:	2100      	movs	r1, #0
 8000b38:	b11d      	cbz	r5, 8000b42 <__udivmoddi4+0xa6>
 8000b3a:	40d3      	lsrs	r3, r2
 8000b3c:	2200      	movs	r2, #0
 8000b3e:	e9c5 3200 	strd	r3, r2, [r5]
 8000b42:	e8bd 87f0 	ldmia.w	sp!, {r4, r5, r6, r7, r8, r9, sl, pc}
 8000b46:	428b      	cmp	r3, r1
 8000b48:	d905      	bls.n	8000b56 <__udivmoddi4+0xba>
 8000b4a:	b10d      	cbz	r5, 8000b50 <__udivmoddi4+0xb4>
 8000b4c:	e9c5 0100 	strd	r0, r1, [r5]
 8000b50:	2100      	movs	r1, #0
 8000b52:	4608      	mov	r0, r1
 8000b54:	e7f5      	b.n	8000b42 <__udivmoddi4+0xa6>
 8000b56:	fab3 f183 	clz	r1, r3
 8000b5a:	2900      	cmp	r1, #0
 8000b5c:	d146      	bne.n	8000bec <__udivmoddi4+0x150>
 8000b5e:	42a3      	cmp	r3, r4
 8000b60:	d302      	bcc.n	8000b68 <__udivmoddi4+0xcc>
 8000b62:	4290      	cmp	r0, r2
 8000b64:	f0c0 80f0 	bcc.w	8000d48 <__udivmoddi4+0x2ac>
 8000b68:	1a86      	subs	r6, r0, r2
 8000b6a:	eb64 0303 	sbc.w	r3, r4, r3
 8000b6e:	2001      	movs	r0, #1
 8000b70:	2d00      	cmp	r5, #0
 8000b72:	d0e6      	beq.n	8000b42 <__udivmoddi4+0xa6>
 8000b74:	e9c5 6300 	strd	r6, r3, [r5]
 8000b78:	e7e3      	b.n	8000b42 <__udivmoddi4+0xa6>
 8000b7a:	2a00      	cmp	r2, #0
 8000b7c:	f040 8090 	bne.w	8000ca0 <__udivmoddi4+0x204>
 8000b80:	eba1 040c 	sub.w	r4, r1, ip
 8000b84:	ea4f 481c 	mov.w	r8, ip, lsr #16
 8000b88:	fa1f f78c 	uxth.w	r7, ip
 8000b8c:	2101      	movs	r1, #1
 8000b8e:	fbb4 f6f8 	udiv	r6, r4, r8
 8000b92:	ea4f 431e 	mov.w	r3, lr, lsr #16
 8000b96:	fb08 4416 	mls	r4, r8, r6, r4
 8000b9a:	ea43 4304 	orr.w	r3, r3, r4, lsl #16
 8000b9e:	fb07 f006 	mul.w	r0, r7, r6
 8000ba2:	4298      	cmp	r0, r3
 8000ba4:	d908      	bls.n	8000bb8 <__udivmoddi4+0x11c>
 8000ba6:	eb1c 0303 	adds.w	r3, ip, r3
 8000baa:	f106 34ff 	add.w	r4, r6, #4294967295
 8000bae:	d202      	bcs.n	8000bb6 <__udivmoddi4+0x11a>
 8000bb0:	4298      	cmp	r0, r3
 8000bb2:	f200 80cd 	bhi.w	8000d50 <__udivmoddi4+0x2b4>
 8000bb6:	4626      	mov	r6, r4
 8000bb8:	1a1c      	subs	r4, r3, r0
 8000bba:	fa1f f38e 	uxth.w	r3, lr
 8000bbe:	fbb4 f0f8 	udiv	r0, r4, r8
 8000bc2:	fb08 4410 	mls	r4, r8, r0, r4
 8000bc6:	ea43 4304 	orr.w	r3, r3, r4, lsl #16
 8000bca:	fb00 f707 	mul.w	r7, r0, r7
 8000bce:	429f      	cmp	r7, r3
 8000bd0:	d908      	bls.n	8000be4 <__udivmoddi4+0x148>
 8000bd2:	eb1c 0303 	adds.w	r3, ip, r3
 8000bd6:	f100 34ff 	add.w	r4, r0, #4294967295
 8000bda:	d202      	bcs.n	8000be2 <__udivmoddi4+0x146>
 8000bdc:	429f      	cmp	r7, r3
 8000bde:	f200 80b0 	bhi.w	8000d42 <__udivmoddi4+0x2a6>
 8000be2:	4620      	mov	r0, r4
 8000be4:	1bdb      	subs	r3, r3, r7
 8000be6:	ea40 4006 	orr.w	r0, r0, r6, lsl #16
 8000bea:	e7a5      	b.n	8000b38 <__udivmoddi4+0x9c>
 8000bec:	f1c1 0620 	rsb	r6, r1, #32
 8000bf0:	408b      	lsls	r3, r1
 8000bf2:	fa22 f706 	lsr.w	r7, r2, r6
 8000bf6:	431f      	orrs	r7, r3
 8000bf8:	fa20 fc06 	lsr.w	ip, r0, r6
 8000bfc:	fa04 f301 	lsl.w	r3, r4, r1
 8000c00:	ea43 030c 	orr.w	r3, r3, ip
 8000c04:	40f4      	lsrs	r4, r6
 8000c06:	fa00 f801 	lsl.w	r8, r0, r1
 8000c0a:	0c38      	lsrs	r0, r7, #16
 8000c0c:	ea4f 4913 	mov.w	r9, r3, lsr #16
 8000c10:	fbb4 fef0 	udiv	lr, r4, r0
 8000c14:	fa1f fc87 	uxth.w	ip, r7
 8000c18:	fb00 441e 	mls	r4, r0, lr, r4
 8000c1c:	ea49 4404 	orr.w	r4, r9, r4, lsl #16
 8000c20:	fb0e f90c 	mul.w	r9, lr, ip
 8000c24:	45a1      	cmp	r9, r4
 8000c26:	fa02 f201 	lsl.w	r2, r2, r1
 8000c2a:	d90a      	bls.n	8000c42 <__udivmoddi4+0x1a6>
 8000c2c:	193c      	adds	r4, r7, r4
 8000c2e:	f10e 3aff 	add.w	sl, lr, #4294967295
 8000c32:	f080 8084 	bcs.w	8000d3e <__udivmoddi4+0x2a2>
 8000c36:	45a1      	cmp	r9, r4
 8000c38:	f240 8081 	bls.w	8000d3e <__udivmoddi4+0x2a2>
 8000c3c:	f1ae 0e02 	sub.w	lr, lr, #2
 8000c40:	443c      	add	r4, r7
 8000c42:	eba4 0409 	sub.w	r4, r4, r9
 8000c46:	fa1f f983 	uxth.w	r9, r3
 8000c4a:	fbb4 f3f0 	udiv	r3, r4, r0
 8000c4e:	fb00 4413 	mls	r4, r0, r3, r4
 8000c52:	ea49 4404 	orr.w	r4, r9, r4, lsl #16
 8000c56:	fb03 fc0c 	mul.w	ip, r3, ip
 8000c5a:	45a4      	cmp	ip, r4
 8000c5c:	d907      	bls.n	8000c6e <__udivmoddi4+0x1d2>
 8000c5e:	193c      	adds	r4, r7, r4
 8000c60:	f103 30ff 	add.w	r0, r3, #4294967295
 8000c64:	d267      	bcs.n	8000d36 <__udivmoddi4+0x29a>
 8000c66:	45a4      	cmp	ip, r4
 8000c68:	d965      	bls.n	8000d36 <__udivmoddi4+0x29a>
 8000c6a:	3b02      	subs	r3, #2
 8000c6c:	443c      	add	r4, r7
 8000c6e:	ea43 400e 	orr.w	r0, r3, lr, lsl #16
 8000c72:	fba0 9302 	umull	r9, r3, r0, r2
 8000c76:	eba4 040c 	sub.w	r4, r4, ip
 8000c7a:	429c      	cmp	r4, r3
 8000c7c:	46ce      	mov	lr, r9
 8000c7e:	469c      	mov	ip, r3
 8000c80:	d351      	bcc.n	8000d26 <__udivmoddi4+0x28a>
 8000c82:	d04e      	beq.n	8000d22 <__udivmoddi4+0x286>
 8000c84:	b155      	cbz	r5, 8000c9c <__udivmoddi4+0x200>
 8000c86:	ebb8 030e 	subs.w	r3, r8, lr
 8000c8a:	eb64 040c 	sbc.w	r4, r4, ip
 8000c8e:	fa04 f606 	lsl.w	r6, r4, r6
 8000c92:	40cb      	lsrs	r3, r1
 8000c94:	431e      	orrs	r6, r3
 8000c96:	40cc      	lsrs	r4, r1
 8000c98:	e9c5 6400 	strd	r6, r4, [r5]
 8000c9c:	2100      	movs	r1, #0
 8000c9e:	e750      	b.n	8000b42 <__udivmoddi4+0xa6>
 8000ca0:	f1c2 0320 	rsb	r3, r2, #32
 8000ca4:	fa20 f103 	lsr.w	r1, r0, r3
 8000ca8:	fa0c fc02 	lsl.w	ip, ip, r2
 8000cac:	fa24 f303 	lsr.w	r3, r4, r3
 8000cb0:	4094      	lsls	r4, r2
 8000cb2:	430c      	orrs	r4, r1
 8000cb4:	ea4f 481c 	mov.w	r8, ip, lsr #16
 8000cb8:	fa00 fe02 	lsl.w	lr, r0, r2
 8000cbc:	fa1f f78c 	uxth.w	r7, ip
 8000cc0:	fbb3 f0f8 	udiv	r0, r3, r8
 8000cc4:	fb08 3110 	mls	r1, r8, r0, r3
 8000cc8:	0c23      	lsrs	r3, r4, #16
 8000cca:	ea43 4301 	orr.w	r3, r3, r1, lsl #16
 8000cce:	fb00 f107 	mul.w	r1, r0, r7
 8000cd2:	4299      	cmp	r1, r3
 8000cd4:	d908      	bls.n	8000ce8 <__udivmoddi4+0x24c>
 8000cd6:	eb1c 0303 	adds.w	r3, ip, r3
 8000cda:	f100 36ff 	add.w	r6, r0, #4294967295
 8000cde:	d22c      	bcs.n	8000d3a <__udivmoddi4+0x29e>
 8000ce0:	4299      	cmp	r1, r3
 8000ce2:	d92a      	bls.n	8000d3a <__udivmoddi4+0x29e>
 8000ce4:	3802      	subs	r0, #2
 8000ce6:	4463      	add	r3, ip
 8000ce8:	1a5b      	subs	r3, r3, r1
 8000cea:	b2a4      	uxth	r4, r4
 8000cec:	fbb3 f1f8 	udiv	r1, r3, r8
 8000cf0:	fb08 3311 	mls	r3, r8, r1, r3
 8000cf4:	ea44 4403 	orr.w	r4, r4, r3, lsl #16
 8000cf8:	fb01 f307 	mul.w	r3, r1, r7
 8000cfc:	42a3      	cmp	r3, r4
 8000cfe:	d908      	bls.n	8000d12 <__udivmoddi4+0x276>
 8000d00:	eb1c 0404 	adds.w	r4, ip, r4
 8000d04:	f101 36ff 	add.w	r6, r1, #4294967295
 8000d08:	d213      	bcs.n	8000d32 <__udivmoddi4+0x296>
 8000d0a:	42a3      	cmp	r3, r4
 8000d0c:	d911      	bls.n	8000d32 <__udivmoddi4+0x296>
 8000d0e:	3902      	subs	r1, #2
 8000d10:	4464      	add	r4, ip
 8000d12:	1ae4      	subs	r4, r4, r3
 8000d14:	ea41 4100 	orr.w	r1, r1, r0, lsl #16
 8000d18:	e739      	b.n	8000b8e <__udivmoddi4+0xf2>
 8000d1a:	4604      	mov	r4, r0
 8000d1c:	e6f0      	b.n	8000b00 <__udivmoddi4+0x64>
 8000d1e:	4608      	mov	r0, r1
 8000d20:	e706      	b.n	8000b30 <__udivmoddi4+0x94>
 8000d22:	45c8      	cmp	r8, r9
 8000d24:	d2ae      	bcs.n	8000c84 <__udivmoddi4+0x1e8>
 8000d26:	ebb9 0e02 	subs.w	lr, r9, r2
 8000d2a:	eb63 0c07 	sbc.w	ip, r3, r7
 8000d2e:	3801      	subs	r0, #1
 8000d30:	e7a8      	b.n	8000c84 <__udivmoddi4+0x1e8>
 8000d32:	4631      	mov	r1, r6
 8000d34:	e7ed      	b.n	8000d12 <__udivmoddi4+0x276>
 8000d36:	4603      	mov	r3, r0
 8000d38:	e799      	b.n	8000c6e <__udivmoddi4+0x1d2>
 8000d3a:	4630      	mov	r0, r6
 8000d3c:	e7d4      	b.n	8000ce8 <__udivmoddi4+0x24c>
 8000d3e:	46d6      	mov	lr, sl
 8000d40:	e77f      	b.n	8000c42 <__udivmoddi4+0x1a6>
 8000d42:	4463      	add	r3, ip
 8000d44:	3802      	subs	r0, #2
 8000d46:	e74d      	b.n	8000be4 <__udivmoddi4+0x148>
 8000d48:	4606      	mov	r6, r0
 8000d4a:	4623      	mov	r3, r4
 8000d4c:	4608      	mov	r0, r1
 8000d4e:	e70f      	b.n	8000b70 <__udivmoddi4+0xd4>
 8000d50:	3e02      	subs	r6, #2
 8000d52:	4463      	add	r3, ip
 8000d54:	e730      	b.n	8000bb8 <__udivmoddi4+0x11c>
 8000d56:	bf00      	nop

08000d58 <__aeabi_idiv0>:
 8000d58:	4770      	bx	lr
 8000d5a:	bf00      	nop

08000d5c <main>:
/**
  * @brief  The application entry point.
  * @retval int
  */
int main(void)
{
 8000d5c:	b580      	push	{r7, lr}
 8000d5e:	b094      	sub	sp, #80	@ 0x50
 8000d60:	af00      	add	r7, sp, #0
  /* USER CODE END 1 */

  /* MCU Configuration--------------------------------------------------------*/

  /* Reset of all peripherals, Initializes the Flash interface and the Systick. */
  HAL_Init();
 8000d62:	f001 f9a3 	bl	80020ac <HAL_Init>
  /* USER CODE BEGIN Init */

  /* USER CODE END Init */

  /* Configure the system clock */
  SystemClock_Config();
 8000d66:	f000 f8fb 	bl	8000f60 <SystemClock_Config>
  /* USER CODE BEGIN SysInit */

  /* USER CODE END SysInit */

  /* Initialize all configured peripherals */
  MX_GPIO_Init();
 8000d6a:	f000 fa85 	bl	8001278 <MX_GPIO_Init>
  MX_ADC1_Init();
 8000d6e:	f000 f955 	bl	800101c <MX_ADC1_Init>
  MX_I2C3_Init();
 8000d72:	f000 f9b3 	bl	80010dc <MX_I2C3_Init>
  MX_TIM4_Init();
 8000d76:	f000 f9df 	bl	8001138 <MX_TIM4_Init>
  MX_USART2_UART_Init();
 8000d7a:	f000 fa53 	bl	8001224 <MX_USART2_UART_Init>
  /* USER CODE BEGIN 2 */

  IMU_initialize(115200);
 8000d7e:	f44f 30e1 	mov.w	r0, #115200	@ 0x1c200
 8000d82:	f000 fd8f 	bl	80018a4 <IMU_initialize>
  Lcd_PinType pins[] = {FA_Data4_Pin, FA_Data5_Pin, FA_Data6_Pin, FA_Data7_Pin};
  Lcd_HandleTypeDef lcd = Lcd_create(ports, pins, FA_RS_GPIO_Port, FA_RS_Pin, FA_EN_GPIO_Port, FA_EN_Pin, LCD_4_BIT_MODE);*/

  Lcd_HandleTypeDef lcd;

  Lcd_init(&lcd);
 8000d86:	f107 032c 	add.w	r3, r7, #44	@ 0x2c
 8000d8a:	4618      	mov	r0, r3
 8000d8c:	f001 f84c 	bl	8001e28 <Lcd_init>

  Lcd_clear(&lcd);
 8000d90:	f107 032c 	add.w	r3, r7, #44	@ 0x2c
 8000d94:	4618      	mov	r0, r3
 8000d96:	f001 f8e1 	bl	8001f5c <Lcd_clear>
  Lcd_cursor(&lcd,0,0);
 8000d9a:	f107 032c 	add.w	r3, r7, #44	@ 0x2c
 8000d9e:	2200      	movs	r2, #0
 8000da0:	2100      	movs	r1, #0
 8000da2:	4618      	mov	r0, r3
 8000da4:	f001 f8c0 	bl	8001f28 <Lcd_cursor>
  Lcd_string(&lcd, "Starting...");
 8000da8:	f107 032c 	add.w	r3, r7, #44	@ 0x2c
 8000dac:	4966      	ldr	r1, [pc, #408]	@ (8000f48 <main+0x1ec>)
 8000dae:	4618      	mov	r0, r3
 8000db0:	f001 f89a 	bl	8001ee8 <Lcd_string>

  HAL_Delay(2000);
 8000db4:	f44f 60fa 	mov.w	r0, #2000	@ 0x7d0
 8000db8:	f001 f9ea 	bl	8002190 <HAL_Delay>

  Lcd_clear(&lcd);
 8000dbc:	f107 032c 	add.w	r3, r7, #44	@ 0x2c
 8000dc0:	4618      	mov	r0, r3
 8000dc2:	f001 f8cb 	bl	8001f5c <Lcd_clear>

  //float adc_value[2];


  uint8_t tram_value[11] = {0};
 8000dc6:	2300      	movs	r3, #0
 8000dc8:	623b      	str	r3, [r7, #32]
 8000dca:	f107 0324 	add.w	r3, r7, #36	@ 0x24
 8000dce:	2200      	movs	r2, #0
 8000dd0:	601a      	str	r2, [r3, #0]
 8000dd2:	f8c3 2003 	str.w	r2, [r3, #3]
  uint8_t raw_data[30] = {0};
 8000dd6:	2300      	movs	r3, #0
 8000dd8:	603b      	str	r3, [r7, #0]
 8000dda:	1d3b      	adds	r3, r7, #4
 8000ddc:	2200      	movs	r2, #0
 8000dde:	601a      	str	r2, [r3, #0]
 8000de0:	605a      	str	r2, [r3, #4]
 8000de2:	609a      	str	r2, [r3, #8]
 8000de4:	60da      	str	r2, [r3, #12]
 8000de6:	611a      	str	r2, [r3, #16]
 8000de8:	615a      	str	r2, [r3, #20]
 8000dea:	831a      	strh	r2, [r3, #24]
		  Lcd_int(&lcd, gyro[2]);

		  _GyroValueUpdated = 0;
	  }*/

	  uint8_t state = 0;
 8000dec:	2300      	movs	r3, #0
 8000dee:	f887 304f 	strb.w	r3, [r7, #79]	@ 0x4f

	  HAL_UART_Receive(&huart2, raw_data, 30, HAL_MAX_DELAY);
 8000df2:	4639      	mov	r1, r7
 8000df4:	f04f 33ff 	mov.w	r3, #4294967295
 8000df8:	221e      	movs	r2, #30
 8000dfa:	4854      	ldr	r0, [pc, #336]	@ (8000f4c <main+0x1f0>)
 8000dfc:	f003 fbe7 	bl	80045ce <HAL_UART_Receive>

	  for(int i = 0 ; i < 30 ; i++){
 8000e00:	2300      	movs	r3, #0
 8000e02:	64bb      	str	r3, [r7, #72]	@ 0x48
 8000e04:	e029      	b.n	8000e5a <main+0xfe>

		  if(raw_data[i] == 0x55 && raw_data[i+1] == 0x52){
 8000e06:	463a      	mov	r2, r7
 8000e08:	6cbb      	ldr	r3, [r7, #72]	@ 0x48
 8000e0a:	4413      	add	r3, r2
 8000e0c:	781b      	ldrb	r3, [r3, #0]
 8000e0e:	2b55      	cmp	r3, #85	@ 0x55
 8000e10:	d10a      	bne.n	8000e28 <main+0xcc>
 8000e12:	6cbb      	ldr	r3, [r7, #72]	@ 0x48
 8000e14:	3301      	adds	r3, #1
 8000e16:	3350      	adds	r3, #80	@ 0x50
 8000e18:	443b      	add	r3, r7
 8000e1a:	f813 3c50 	ldrb.w	r3, [r3, #-80]
 8000e1e:	2b52      	cmp	r3, #82	@ 0x52
 8000e20:	d102      	bne.n	8000e28 <main+0xcc>
			  state = i;
 8000e22:	6cbb      	ldr	r3, [r7, #72]	@ 0x48
 8000e24:	f887 304f 	strb.w	r3, [r7, #79]	@ 0x4f
		  }

		  if(state > 0 && i <= state + 11){
 8000e28:	f897 304f 	ldrb.w	r3, [r7, #79]	@ 0x4f
 8000e2c:	2b00      	cmp	r3, #0
 8000e2e:	d011      	beq.n	8000e54 <main+0xf8>
 8000e30:	f897 304f 	ldrb.w	r3, [r7, #79]	@ 0x4f
 8000e34:	330b      	adds	r3, #11
 8000e36:	6cba      	ldr	r2, [r7, #72]	@ 0x48
 8000e38:	429a      	cmp	r2, r3
 8000e3a:	dc0b      	bgt.n	8000e54 <main+0xf8>

			  tram_value[i - state] = raw_data[i];
 8000e3c:	f897 304f 	ldrb.w	r3, [r7, #79]	@ 0x4f
 8000e40:	6cba      	ldr	r2, [r7, #72]	@ 0x48
 8000e42:	1ad3      	subs	r3, r2, r3
 8000e44:	4639      	mov	r1, r7
 8000e46:	6cba      	ldr	r2, [r7, #72]	@ 0x48
 8000e48:	440a      	add	r2, r1
 8000e4a:	7812      	ldrb	r2, [r2, #0]
 8000e4c:	3350      	adds	r3, #80	@ 0x50
 8000e4e:	443b      	add	r3, r7
 8000e50:	f803 2c30 	strb.w	r2, [r3, #-48]
	  for(int i = 0 ; i < 30 ; i++){
 8000e54:	6cbb      	ldr	r3, [r7, #72]	@ 0x48
 8000e56:	3301      	adds	r3, #1
 8000e58:	64bb      	str	r3, [r7, #72]	@ 0x48
 8000e5a:	6cbb      	ldr	r3, [r7, #72]	@ 0x48
 8000e5c:	2b1d      	cmp	r3, #29
 8000e5e:	ddd2      	ble.n	8000e06 <main+0xaa>
		  }

	  }


	  if(tram_value[0] == 0x55){
 8000e60:	f897 3020 	ldrb.w	r3, [r7, #32]
 8000e64:	2b55      	cmp	r3, #85	@ 0x55
 8000e66:	d1c1      	bne.n	8000dec <main+0x90>

			  tram_value[i+1] = IMU_Raw_Data_Buffer[i];

		  }*/

		  Decode_IMU_Data(tram_value);
 8000e68:	f107 0320 	add.w	r3, r7, #32
 8000e6c:	4618      	mov	r0, r3
 8000e6e:	f000 fde9 	bl	8001a44 <Decode_IMU_Data>

		  Lcd_clear(&lcd);
 8000e72:	f107 032c 	add.w	r3, r7, #44	@ 0x2c
 8000e76:	4618      	mov	r0, r3
 8000e78:	f001 f870 	bl	8001f5c <Lcd_clear>

		  Lcd_cursor(&lcd,1,0);
 8000e7c:	f107 032c 	add.w	r3, r7, #44	@ 0x2c
 8000e80:	2200      	movs	r2, #0
 8000e82:	2101      	movs	r1, #1
 8000e84:	4618      	mov	r0, r3
 8000e86:	f001 f84f 	bl	8001f28 <Lcd_cursor>
		  Lcd_string(&lcd, "X: ");
 8000e8a:	f107 032c 	add.w	r3, r7, #44	@ 0x2c
 8000e8e:	4930      	ldr	r1, [pc, #192]	@ (8000f50 <main+0x1f4>)
 8000e90:	4618      	mov	r0, r3
 8000e92:	f001 f829 	bl	8001ee8 <Lcd_string>
		  Lcd_int(&lcd, gyro[0]);
 8000e96:	4b2f      	ldr	r3, [pc, #188]	@ (8000f54 <main+0x1f8>)
 8000e98:	e9d3 2300 	ldrd	r2, r3, [r3]
 8000e9c:	4610      	mov	r0, r2
 8000e9e:	4619      	mov	r1, r3
 8000ea0:	f7ff fdbc 	bl	8000a1c <__aeabi_d2iz>
 8000ea4:	4602      	mov	r2, r0
 8000ea6:	f107 032c 	add.w	r3, r7, #44	@ 0x2c
 8000eaa:	4611      	mov	r1, r2
 8000eac:	4618      	mov	r0, r3
 8000eae:	f001 f803 	bl	8001eb8 <Lcd_int>
		  Lcd_string(&lcd, " Y: ");
 8000eb2:	f107 032c 	add.w	r3, r7, #44	@ 0x2c
 8000eb6:	4928      	ldr	r1, [pc, #160]	@ (8000f58 <main+0x1fc>)
 8000eb8:	4618      	mov	r0, r3
 8000eba:	f001 f815 	bl	8001ee8 <Lcd_string>
		  Lcd_int(&lcd, gyro[1]);
 8000ebe:	4b25      	ldr	r3, [pc, #148]	@ (8000f54 <main+0x1f8>)
 8000ec0:	e9d3 2302 	ldrd	r2, r3, [r3, #8]
 8000ec4:	4610      	mov	r0, r2
 8000ec6:	4619      	mov	r1, r3
 8000ec8:	f7ff fda8 	bl	8000a1c <__aeabi_d2iz>
 8000ecc:	4602      	mov	r2, r0
 8000ece:	f107 032c 	add.w	r3, r7, #44	@ 0x2c
 8000ed2:	4611      	mov	r1, r2
 8000ed4:	4618      	mov	r0, r3
 8000ed6:	f000 ffef 	bl	8001eb8 <Lcd_int>
		  Lcd_string(&lcd, " Z: ");
 8000eda:	f107 032c 	add.w	r3, r7, #44	@ 0x2c
 8000ede:	491f      	ldr	r1, [pc, #124]	@ (8000f5c <main+0x200>)
 8000ee0:	4618      	mov	r0, r3
 8000ee2:	f001 f801 	bl	8001ee8 <Lcd_string>
		  Lcd_int(&lcd, gyro[2]);
 8000ee6:	4b1b      	ldr	r3, [pc, #108]	@ (8000f54 <main+0x1f8>)
 8000ee8:	e9d3 2304 	ldrd	r2, r3, [r3, #16]
 8000eec:	4610      	mov	r0, r2
 8000eee:	4619      	mov	r1, r3
 8000ef0:	f7ff fd94 	bl	8000a1c <__aeabi_d2iz>
 8000ef4:	4602      	mov	r2, r0
 8000ef6:	f107 032c 	add.w	r3, r7, #44	@ 0x2c
 8000efa:	4611      	mov	r1, r2
 8000efc:	4618      	mov	r0, r3
 8000efe:	f000 ffdb 	bl	8001eb8 <Lcd_int>

		  Lcd_cursor(&lcd,0,0);
 8000f02:	f107 032c 	add.w	r3, r7, #44	@ 0x2c
 8000f06:	2200      	movs	r2, #0
 8000f08:	2100      	movs	r1, #0
 8000f0a:	4618      	mov	r0, r3
 8000f0c:	f001 f80c 	bl	8001f28 <Lcd_cursor>
		  for(int i = 0 ; i < 11 ; i++){
 8000f10:	2300      	movs	r3, #0
 8000f12:	647b      	str	r3, [r7, #68]	@ 0x44
 8000f14:	e014      	b.n	8000f40 <main+0x1e4>

			  Lcd_int(&lcd, tram_value[i]);
 8000f16:	f107 0220 	add.w	r2, r7, #32
 8000f1a:	6c7b      	ldr	r3, [r7, #68]	@ 0x44
 8000f1c:	4413      	add	r3, r2
 8000f1e:	781b      	ldrb	r3, [r3, #0]
 8000f20:	461a      	mov	r2, r3
 8000f22:	f107 032c 	add.w	r3, r7, #44	@ 0x2c
 8000f26:	4611      	mov	r1, r2
 8000f28:	4618      	mov	r0, r3
 8000f2a:	f000 ffc5 	bl	8001eb8 <Lcd_int>
			  tram_value[i] = 0;
 8000f2e:	f107 0220 	add.w	r2, r7, #32
 8000f32:	6c7b      	ldr	r3, [r7, #68]	@ 0x44
 8000f34:	4413      	add	r3, r2
 8000f36:	2200      	movs	r2, #0
 8000f38:	701a      	strb	r2, [r3, #0]
		  for(int i = 0 ; i < 11 ; i++){
 8000f3a:	6c7b      	ldr	r3, [r7, #68]	@ 0x44
 8000f3c:	3301      	adds	r3, #1
 8000f3e:	647b      	str	r3, [r7, #68]	@ 0x44
 8000f40:	6c7b      	ldr	r3, [r7, #68]	@ 0x44
 8000f42:	2b0a      	cmp	r3, #10
 8000f44:	dde7      	ble.n	8000f16 <main+0x1ba>
  {
 8000f46:	e751      	b.n	8000dec <main+0x90>
 8000f48:	08005f4c 	.word	0x08005f4c
 8000f4c:	20000178 	.word	0x20000178
 8000f50:	08005f58 	.word	0x08005f58
 8000f54:	200001e8 	.word	0x200001e8
 8000f58:	08005f5c 	.word	0x08005f5c
 8000f5c:	08005f64 	.word	0x08005f64

08000f60 <SystemClock_Config>:
/**
  * @brief System Clock Configuration
  * @retval None
  */
void SystemClock_Config(void)
{
 8000f60:	b580      	push	{r7, lr}
 8000f62:	b094      	sub	sp, #80	@ 0x50
 8000f64:	af00      	add	r7, sp, #0
  RCC_OscInitTypeDef RCC_OscInitStruct = {0};
 8000f66:	f107 0320 	add.w	r3, r7, #32
 8000f6a:	2230      	movs	r2, #48	@ 0x30
 8000f6c:	2100      	movs	r1, #0
 8000f6e:	4618      	mov	r0, r3
 8000f70:	f004 fb60 	bl	8005634 <memset>
  RCC_ClkInitTypeDef RCC_ClkInitStruct = {0};
 8000f74:	f107 030c 	add.w	r3, r7, #12
 8000f78:	2200      	movs	r2, #0
 8000f7a:	601a      	str	r2, [r3, #0]
 8000f7c:	605a      	str	r2, [r3, #4]
 8000f7e:	609a      	str	r2, [r3, #8]
 8000f80:	60da      	str	r2, [r3, #12]
 8000f82:	611a      	str	r2, [r3, #16]

  /** Configure the main internal regulator output voltage
  */
  __HAL_RCC_PWR_CLK_ENABLE();
 8000f84:	2300      	movs	r3, #0
 8000f86:	60bb      	str	r3, [r7, #8]
 8000f88:	4b22      	ldr	r3, [pc, #136]	@ (8001014 <SystemClock_Config+0xb4>)
 8000f8a:	6c1b      	ldr	r3, [r3, #64]	@ 0x40
 8000f8c:	4a21      	ldr	r2, [pc, #132]	@ (8001014 <SystemClock_Config+0xb4>)
 8000f8e:	f043 5380 	orr.w	r3, r3, #268435456	@ 0x10000000
 8000f92:	6413      	str	r3, [r2, #64]	@ 0x40
 8000f94:	4b1f      	ldr	r3, [pc, #124]	@ (8001014 <SystemClock_Config+0xb4>)
 8000f96:	6c1b      	ldr	r3, [r3, #64]	@ 0x40
 8000f98:	f003 5380 	and.w	r3, r3, #268435456	@ 0x10000000
 8000f9c:	60bb      	str	r3, [r7, #8]
 8000f9e:	68bb      	ldr	r3, [r7, #8]
  __HAL_PWR_VOLTAGESCALING_CONFIG(PWR_REGULATOR_VOLTAGE_SCALE1);
 8000fa0:	2300      	movs	r3, #0
 8000fa2:	607b      	str	r3, [r7, #4]
 8000fa4:	4b1c      	ldr	r3, [pc, #112]	@ (8001018 <SystemClock_Config+0xb8>)
 8000fa6:	681b      	ldr	r3, [r3, #0]
 8000fa8:	4a1b      	ldr	r2, [pc, #108]	@ (8001018 <SystemClock_Config+0xb8>)
 8000faa:	f443 4380 	orr.w	r3, r3, #16384	@ 0x4000
 8000fae:	6013      	str	r3, [r2, #0]
 8000fb0:	4b19      	ldr	r3, [pc, #100]	@ (8001018 <SystemClock_Config+0xb8>)
 8000fb2:	681b      	ldr	r3, [r3, #0]
 8000fb4:	f403 4380 	and.w	r3, r3, #16384	@ 0x4000
 8000fb8:	607b      	str	r3, [r7, #4]
 8000fba:	687b      	ldr	r3, [r7, #4]

  /** Initializes the RCC Oscillators according to the specified parameters
  * in the RCC_OscInitTypeDef structure.
  */
  RCC_OscInitStruct.OscillatorType = RCC_OSCILLATORTYPE_HSI;
 8000fbc:	2302      	movs	r3, #2
 8000fbe:	623b      	str	r3, [r7, #32]
  RCC_OscInitStruct.HSIState = RCC_HSI_ON;
 8000fc0:	2301      	movs	r3, #1
 8000fc2:	62fb      	str	r3, [r7, #44]	@ 0x2c
  RCC_OscInitStruct.HSICalibrationValue = RCC_HSICALIBRATION_DEFAULT;
 8000fc4:	2310      	movs	r3, #16
 8000fc6:	633b      	str	r3, [r7, #48]	@ 0x30
  RCC_OscInitStruct.PLL.PLLState = RCC_PLL_NONE;
 8000fc8:	2300      	movs	r3, #0
 8000fca:	63bb      	str	r3, [r7, #56]	@ 0x38
  if (HAL_RCC_OscConfig(&RCC_OscInitStruct) != HAL_OK)
 8000fcc:	f107 0320 	add.w	r3, r7, #32
 8000fd0:	4618      	mov	r0, r3
 8000fd2:	f002 f825 	bl	8003020 <HAL_RCC_OscConfig>
 8000fd6:	4603      	mov	r3, r0
 8000fd8:	2b00      	cmp	r3, #0
 8000fda:	d001      	beq.n	8000fe0 <SystemClock_Config+0x80>
  {
    Error_Handler();
 8000fdc:	f000 fa28 	bl	8001430 <Error_Handler>
  }

  /** Initializes the CPU, AHB and APB buses clocks
  */
  RCC_ClkInitStruct.ClockType = RCC_CLOCKTYPE_HCLK|RCC_CLOCKTYPE_SYSCLK
 8000fe0:	230f      	movs	r3, #15
 8000fe2:	60fb      	str	r3, [r7, #12]
                              |RCC_CLOCKTYPE_PCLK1|RCC_CLOCKTYPE_PCLK2;
  RCC_ClkInitStruct.SYSCLKSource = RCC_SYSCLKSOURCE_HSI;
 8000fe4:	2300      	movs	r3, #0
 8000fe6:	613b      	str	r3, [r7, #16]
  RCC_ClkInitStruct.AHBCLKDivider = RCC_SYSCLK_DIV1;
 8000fe8:	2300      	movs	r3, #0
 8000fea:	617b      	str	r3, [r7, #20]
  RCC_ClkInitStruct.APB1CLKDivider = RCC_HCLK_DIV1;
 8000fec:	2300      	movs	r3, #0
 8000fee:	61bb      	str	r3, [r7, #24]
  RCC_ClkInitStruct.APB2CLKDivider = RCC_HCLK_DIV1;
 8000ff0:	2300      	movs	r3, #0
 8000ff2:	61fb      	str	r3, [r7, #28]

  if (HAL_RCC_ClockConfig(&RCC_ClkInitStruct, FLASH_LATENCY_0) != HAL_OK)
 8000ff4:	f107 030c 	add.w	r3, r7, #12
 8000ff8:	2100      	movs	r1, #0
 8000ffa:	4618      	mov	r0, r3
 8000ffc:	f002 fa88 	bl	8003510 <HAL_RCC_ClockConfig>
 8001000:	4603      	mov	r3, r0
 8001002:	2b00      	cmp	r3, #0
 8001004:	d001      	beq.n	800100a <SystemClock_Config+0xaa>
  {
    Error_Handler();
 8001006:	f000 fa13 	bl	8001430 <Error_Handler>
  }
}
 800100a:	bf00      	nop
 800100c:	3750      	adds	r7, #80	@ 0x50
 800100e:	46bd      	mov	sp, r7
 8001010:	bd80      	pop	{r7, pc}
 8001012:	bf00      	nop
 8001014:	40023800 	.word	0x40023800
 8001018:	40007000 	.word	0x40007000

0800101c <MX_ADC1_Init>:
  * @brief ADC1 Initialization Function
  * @param None
  * @retval None
  */
static void MX_ADC1_Init(void)
{
 800101c:	b580      	push	{r7, lr}
 800101e:	b084      	sub	sp, #16
 8001020:	af00      	add	r7, sp, #0

  /* USER CODE BEGIN ADC1_Init 0 */

  /* USER CODE END ADC1_Init 0 */

  ADC_ChannelConfTypeDef sConfig = {0};
 8001022:	463b      	mov	r3, r7
 8001024:	2200      	movs	r2, #0
 8001026:	601a      	str	r2, [r3, #0]
 8001028:	605a      	str	r2, [r3, #4]
 800102a:	609a      	str	r2, [r3, #8]
 800102c:	60da      	str	r2, [r3, #12]

  /* USER CODE END ADC1_Init 1 */

  /** Configure the global features of the ADC (Clock, Resolution, Data Alignment and number of conversion)
  */
  hadc1.Instance = ADC1;
 800102e:	4b28      	ldr	r3, [pc, #160]	@ (80010d0 <MX_ADC1_Init+0xb4>)
 8001030:	4a28      	ldr	r2, [pc, #160]	@ (80010d4 <MX_ADC1_Init+0xb8>)
 8001032:	601a      	str	r2, [r3, #0]
  hadc1.Init.ClockPrescaler = ADC_CLOCK_SYNC_PCLK_DIV2;
 8001034:	4b26      	ldr	r3, [pc, #152]	@ (80010d0 <MX_ADC1_Init+0xb4>)
 8001036:	2200      	movs	r2, #0
 8001038:	605a      	str	r2, [r3, #4]
  hadc1.Init.Resolution = ADC_RESOLUTION_12B;
 800103a:	4b25      	ldr	r3, [pc, #148]	@ (80010d0 <MX_ADC1_Init+0xb4>)
 800103c:	2200      	movs	r2, #0
 800103e:	609a      	str	r2, [r3, #8]
  hadc1.Init.ScanConvMode = ENABLE;
 8001040:	4b23      	ldr	r3, [pc, #140]	@ (80010d0 <MX_ADC1_Init+0xb4>)
 8001042:	2201      	movs	r2, #1
 8001044:	611a      	str	r2, [r3, #16]
  hadc1.Init.ContinuousConvMode = ENABLE;
 8001046:	4b22      	ldr	r3, [pc, #136]	@ (80010d0 <MX_ADC1_Init+0xb4>)
 8001048:	2201      	movs	r2, #1
 800104a:	761a      	strb	r2, [r3, #24]
  hadc1.Init.DiscontinuousConvMode = DISABLE;
 800104c:	4b20      	ldr	r3, [pc, #128]	@ (80010d0 <MX_ADC1_Init+0xb4>)
 800104e:	2200      	movs	r2, #0
 8001050:	f883 2020 	strb.w	r2, [r3, #32]
  hadc1.Init.ExternalTrigConvEdge = ADC_EXTERNALTRIGCONVEDGE_NONE;
 8001054:	4b1e      	ldr	r3, [pc, #120]	@ (80010d0 <MX_ADC1_Init+0xb4>)
 8001056:	2200      	movs	r2, #0
 8001058:	62da      	str	r2, [r3, #44]	@ 0x2c
  hadc1.Init.ExternalTrigConv = ADC_SOFTWARE_START;
 800105a:	4b1d      	ldr	r3, [pc, #116]	@ (80010d0 <MX_ADC1_Init+0xb4>)
 800105c:	4a1e      	ldr	r2, [pc, #120]	@ (80010d8 <MX_ADC1_Init+0xbc>)
 800105e:	629a      	str	r2, [r3, #40]	@ 0x28
  hadc1.Init.DataAlign = ADC_DATAALIGN_RIGHT;
 8001060:	4b1b      	ldr	r3, [pc, #108]	@ (80010d0 <MX_ADC1_Init+0xb4>)
 8001062:	2200      	movs	r2, #0
 8001064:	60da      	str	r2, [r3, #12]
  hadc1.Init.NbrOfConversion = 2;
 8001066:	4b1a      	ldr	r3, [pc, #104]	@ (80010d0 <MX_ADC1_Init+0xb4>)
 8001068:	2202      	movs	r2, #2
 800106a:	61da      	str	r2, [r3, #28]
  hadc1.Init.DMAContinuousRequests = DISABLE;
 800106c:	4b18      	ldr	r3, [pc, #96]	@ (80010d0 <MX_ADC1_Init+0xb4>)
 800106e:	2200      	movs	r2, #0
 8001070:	f883 2030 	strb.w	r2, [r3, #48]	@ 0x30
  hadc1.Init.EOCSelection = ADC_EOC_SINGLE_CONV;
 8001074:	4b16      	ldr	r3, [pc, #88]	@ (80010d0 <MX_ADC1_Init+0xb4>)
 8001076:	2201      	movs	r2, #1
 8001078:	615a      	str	r2, [r3, #20]
  if (HAL_ADC_Init(&hadc1) != HAL_OK)
 800107a:	4815      	ldr	r0, [pc, #84]	@ (80010d0 <MX_ADC1_Init+0xb4>)
 800107c:	f001 f8ac 	bl	80021d8 <HAL_ADC_Init>
 8001080:	4603      	mov	r3, r0
 8001082:	2b00      	cmp	r3, #0
 8001084:	d001      	beq.n	800108a <MX_ADC1_Init+0x6e>
  {
    Error_Handler();
 8001086:	f000 f9d3 	bl	8001430 <Error_Handler>
  }

  /** Configure for the selected ADC regular channel its corresponding rank in the sequencer and its sample time.
  */
  sConfig.Channel = ADC_CHANNEL_10;
 800108a:	230a      	movs	r3, #10
 800108c:	603b      	str	r3, [r7, #0]
  sConfig.Rank = 1;
 800108e:	2301      	movs	r3, #1
 8001090:	607b      	str	r3, [r7, #4]
  sConfig.SamplingTime = ADC_SAMPLETIME_28CYCLES;
 8001092:	2302      	movs	r3, #2
 8001094:	60bb      	str	r3, [r7, #8]
  if (HAL_ADC_ConfigChannel(&hadc1, &sConfig) != HAL_OK)
 8001096:	463b      	mov	r3, r7
 8001098:	4619      	mov	r1, r3
 800109a:	480d      	ldr	r0, [pc, #52]	@ (80010d0 <MX_ADC1_Init+0xb4>)
 800109c:	f001 f8e0 	bl	8002260 <HAL_ADC_ConfigChannel>
 80010a0:	4603      	mov	r3, r0
 80010a2:	2b00      	cmp	r3, #0
 80010a4:	d001      	beq.n	80010aa <MX_ADC1_Init+0x8e>
  {
    Error_Handler();
 80010a6:	f000 f9c3 	bl	8001430 <Error_Handler>
  }

  /** Configure for the selected ADC regular channel its corresponding rank in the sequencer and its sample time.
  */
  sConfig.Channel = ADC_CHANNEL_12;
 80010aa:	230c      	movs	r3, #12
 80010ac:	603b      	str	r3, [r7, #0]
  sConfig.Rank = 2;
 80010ae:	2302      	movs	r3, #2
 80010b0:	607b      	str	r3, [r7, #4]
  if (HAL_ADC_ConfigChannel(&hadc1, &sConfig) != HAL_OK)
 80010b2:	463b      	mov	r3, r7
 80010b4:	4619      	mov	r1, r3
 80010b6:	4806      	ldr	r0, [pc, #24]	@ (80010d0 <MX_ADC1_Init+0xb4>)
 80010b8:	f001 f8d2 	bl	8002260 <HAL_ADC_ConfigChannel>
 80010bc:	4603      	mov	r3, r0
 80010be:	2b00      	cmp	r3, #0
 80010c0:	d001      	beq.n	80010c6 <MX_ADC1_Init+0xaa>
  {
    Error_Handler();
 80010c2:	f000 f9b5 	bl	8001430 <Error_Handler>
  }
  /* USER CODE BEGIN ADC1_Init 2 */

  /* USER CODE END ADC1_Init 2 */

}
 80010c6:	bf00      	nop
 80010c8:	3710      	adds	r7, #16
 80010ca:	46bd      	mov	sp, r7
 80010cc:	bd80      	pop	{r7, pc}
 80010ce:	bf00      	nop
 80010d0:	20000094 	.word	0x20000094
 80010d4:	40012000 	.word	0x40012000
 80010d8:	0f000001 	.word	0x0f000001

080010dc <MX_I2C3_Init>:
  * @brief I2C3 Initialization Function
  * @param None
  * @retval None
  */
static void MX_I2C3_Init(void)
{
 80010dc:	b580      	push	{r7, lr}
 80010de:	af00      	add	r7, sp, #0
  /* USER CODE END I2C3_Init 0 */

  /* USER CODE BEGIN I2C3_Init 1 */

  /* USER CODE END I2C3_Init 1 */
  hi2c3.Instance = I2C3;
 80010e0:	4b12      	ldr	r3, [pc, #72]	@ (800112c <MX_I2C3_Init+0x50>)
 80010e2:	4a13      	ldr	r2, [pc, #76]	@ (8001130 <MX_I2C3_Init+0x54>)
 80010e4:	601a      	str	r2, [r3, #0]
  hi2c3.Init.ClockSpeed = 400000;
 80010e6:	4b11      	ldr	r3, [pc, #68]	@ (800112c <MX_I2C3_Init+0x50>)
 80010e8:	4a12      	ldr	r2, [pc, #72]	@ (8001134 <MX_I2C3_Init+0x58>)
 80010ea:	605a      	str	r2, [r3, #4]
  hi2c3.Init.DutyCycle = I2C_DUTYCYCLE_2;
 80010ec:	4b0f      	ldr	r3, [pc, #60]	@ (800112c <MX_I2C3_Init+0x50>)
 80010ee:	2200      	movs	r2, #0
 80010f0:	609a      	str	r2, [r3, #8]
  hi2c3.Init.OwnAddress1 = 0;
 80010f2:	4b0e      	ldr	r3, [pc, #56]	@ (800112c <MX_I2C3_Init+0x50>)
 80010f4:	2200      	movs	r2, #0
 80010f6:	60da      	str	r2, [r3, #12]
  hi2c3.Init.AddressingMode = I2C_ADDRESSINGMODE_7BIT;
 80010f8:	4b0c      	ldr	r3, [pc, #48]	@ (800112c <MX_I2C3_Init+0x50>)
 80010fa:	f44f 4280 	mov.w	r2, #16384	@ 0x4000
 80010fe:	611a      	str	r2, [r3, #16]
  hi2c3.Init.DualAddressMode = I2C_DUALADDRESS_DISABLE;
 8001100:	4b0a      	ldr	r3, [pc, #40]	@ (800112c <MX_I2C3_Init+0x50>)
 8001102:	2200      	movs	r2, #0
 8001104:	615a      	str	r2, [r3, #20]
  hi2c3.Init.OwnAddress2 = 0;
 8001106:	4b09      	ldr	r3, [pc, #36]	@ (800112c <MX_I2C3_Init+0x50>)
 8001108:	2200      	movs	r2, #0
 800110a:	619a      	str	r2, [r3, #24]
  hi2c3.Init.GeneralCallMode = I2C_GENERALCALL_DISABLE;
 800110c:	4b07      	ldr	r3, [pc, #28]	@ (800112c <MX_I2C3_Init+0x50>)
 800110e:	2200      	movs	r2, #0
 8001110:	61da      	str	r2, [r3, #28]
  hi2c3.Init.NoStretchMode = I2C_NOSTRETCH_DISABLE;
 8001112:	4b06      	ldr	r3, [pc, #24]	@ (800112c <MX_I2C3_Init+0x50>)
 8001114:	2200      	movs	r2, #0
 8001116:	621a      	str	r2, [r3, #32]
  if (HAL_I2C_Init(&hi2c3) != HAL_OK)
 8001118:	4804      	ldr	r0, [pc, #16]	@ (800112c <MX_I2C3_Init+0x50>)
 800111a:	f001 fe3d 	bl	8002d98 <HAL_I2C_Init>
 800111e:	4603      	mov	r3, r0
 8001120:	2b00      	cmp	r3, #0
 8001122:	d001      	beq.n	8001128 <MX_I2C3_Init+0x4c>
  {
    Error_Handler();
 8001124:	f000 f984 	bl	8001430 <Error_Handler>
  }
  /* USER CODE BEGIN I2C3_Init 2 */

  /* USER CODE END I2C3_Init 2 */

}
 8001128:	bf00      	nop
 800112a:	bd80      	pop	{r7, pc}
 800112c:	200000dc 	.word	0x200000dc
 8001130:	40005c00 	.word	0x40005c00
 8001134:	00061a80 	.word	0x00061a80

08001138 <MX_TIM4_Init>:
  * @brief TIM4 Initialization Function
  * @param None
  * @retval None
  */
static void MX_TIM4_Init(void)
{
 8001138:	b580      	push	{r7, lr}
 800113a:	b08e      	sub	sp, #56	@ 0x38
 800113c:	af00      	add	r7, sp, #0

  /* USER CODE BEGIN TIM4_Init 0 */

  /* USER CODE END TIM4_Init 0 */

  TIM_ClockConfigTypeDef sClockSourceConfig = {0};
 800113e:	f107 0328 	add.w	r3, r7, #40	@ 0x28
 8001142:	2200      	movs	r2, #0
 8001144:	601a      	str	r2, [r3, #0]
 8001146:	605a      	str	r2, [r3, #4]
 8001148:	609a      	str	r2, [r3, #8]
 800114a:	60da      	str	r2, [r3, #12]
  TIM_MasterConfigTypeDef sMasterConfig = {0};
 800114c:	f107 0320 	add.w	r3, r7, #32
 8001150:	2200      	movs	r2, #0
 8001152:	601a      	str	r2, [r3, #0]
 8001154:	605a      	str	r2, [r3, #4]
  TIM_OC_InitTypeDef sConfigOC = {0};
 8001156:	1d3b      	adds	r3, r7, #4
 8001158:	2200      	movs	r2, #0
 800115a:	601a      	str	r2, [r3, #0]
 800115c:	605a      	str	r2, [r3, #4]
 800115e:	609a      	str	r2, [r3, #8]
 8001160:	60da      	str	r2, [r3, #12]
 8001162:	611a      	str	r2, [r3, #16]
 8001164:	615a      	str	r2, [r3, #20]
 8001166:	619a      	str	r2, [r3, #24]

  /* USER CODE BEGIN TIM4_Init 1 */

  /* USER CODE END TIM4_Init 1 */
  htim4.Instance = TIM4;
 8001168:	4b2c      	ldr	r3, [pc, #176]	@ (800121c <MX_TIM4_Init+0xe4>)
 800116a:	4a2d      	ldr	r2, [pc, #180]	@ (8001220 <MX_TIM4_Init+0xe8>)
 800116c:	601a      	str	r2, [r3, #0]
  htim4.Init.Prescaler = 204;
 800116e:	4b2b      	ldr	r3, [pc, #172]	@ (800121c <MX_TIM4_Init+0xe4>)
 8001170:	22cc      	movs	r2, #204	@ 0xcc
 8001172:	605a      	str	r2, [r3, #4]
  htim4.Init.CounterMode = TIM_COUNTERMODE_UP;
 8001174:	4b29      	ldr	r3, [pc, #164]	@ (800121c <MX_TIM4_Init+0xe4>)
 8001176:	2200      	movs	r2, #0
 8001178:	609a      	str	r2, [r3, #8]
  htim4.Init.Period = 4095;
 800117a:	4b28      	ldr	r3, [pc, #160]	@ (800121c <MX_TIM4_Init+0xe4>)
 800117c:	f640 72ff 	movw	r2, #4095	@ 0xfff
 8001180:	60da      	str	r2, [r3, #12]
  htim4.Init.ClockDivision = TIM_CLOCKDIVISION_DIV1;
 8001182:	4b26      	ldr	r3, [pc, #152]	@ (800121c <MX_TIM4_Init+0xe4>)
 8001184:	2200      	movs	r2, #0
 8001186:	611a      	str	r2, [r3, #16]
  htim4.Init.AutoReloadPreload = TIM_AUTORELOAD_PRELOAD_DISABLE;
 8001188:	4b24      	ldr	r3, [pc, #144]	@ (800121c <MX_TIM4_Init+0xe4>)
 800118a:	2200      	movs	r2, #0
 800118c:	619a      	str	r2, [r3, #24]
  if (HAL_TIM_Base_Init(&htim4) != HAL_OK)
 800118e:	4823      	ldr	r0, [pc, #140]	@ (800121c <MX_TIM4_Init+0xe4>)
 8001190:	f002 fb9e 	bl	80038d0 <HAL_TIM_Base_Init>
 8001194:	4603      	mov	r3, r0
 8001196:	2b00      	cmp	r3, #0
 8001198:	d001      	beq.n	800119e <MX_TIM4_Init+0x66>
  {
    Error_Handler();
 800119a:	f000 f949 	bl	8001430 <Error_Handler>
  }
  sClockSourceConfig.ClockSource = TIM_CLOCKSOURCE_INTERNAL;
 800119e:	f44f 5380 	mov.w	r3, #4096	@ 0x1000
 80011a2:	62bb      	str	r3, [r7, #40]	@ 0x28
  if (HAL_TIM_ConfigClockSource(&htim4, &sClockSourceConfig) != HAL_OK)
 80011a4:	f107 0328 	add.w	r3, r7, #40	@ 0x28
 80011a8:	4619      	mov	r1, r3
 80011aa:	481c      	ldr	r0, [pc, #112]	@ (800121c <MX_TIM4_Init+0xe4>)
 80011ac:	f002 fcfa 	bl	8003ba4 <HAL_TIM_ConfigClockSource>
 80011b0:	4603      	mov	r3, r0
 80011b2:	2b00      	cmp	r3, #0
 80011b4:	d001      	beq.n	80011ba <MX_TIM4_Init+0x82>
  {
    Error_Handler();
 80011b6:	f000 f93b 	bl	8001430 <Error_Handler>
  }
  if (HAL_TIM_PWM_Init(&htim4) != HAL_OK)
 80011ba:	4818      	ldr	r0, [pc, #96]	@ (800121c <MX_TIM4_Init+0xe4>)
 80011bc:	f002 fbd7 	bl	800396e <HAL_TIM_PWM_Init>
 80011c0:	4603      	mov	r3, r0
 80011c2:	2b00      	cmp	r3, #0
 80011c4:	d001      	beq.n	80011ca <MX_TIM4_Init+0x92>
  {
    Error_Handler();
 80011c6:	f000 f933 	bl	8001430 <Error_Handler>
  }
  sMasterConfig.MasterOutputTrigger = TIM_TRGO_RESET;
 80011ca:	2300      	movs	r3, #0
 80011cc:	623b      	str	r3, [r7, #32]
  sMasterConfig.MasterSlaveMode = TIM_MASTERSLAVEMODE_DISABLE;
 80011ce:	2300      	movs	r3, #0
 80011d0:	627b      	str	r3, [r7, #36]	@ 0x24
  if (HAL_TIMEx_MasterConfigSynchronization(&htim4, &sMasterConfig) != HAL_OK)
 80011d2:	f107 0320 	add.w	r3, r7, #32
 80011d6:	4619      	mov	r1, r3
 80011d8:	4810      	ldr	r0, [pc, #64]	@ (800121c <MX_TIM4_Init+0xe4>)
 80011da:	f003 f8a1 	bl	8004320 <HAL_TIMEx_MasterConfigSynchronization>
 80011de:	4603      	mov	r3, r0
 80011e0:	2b00      	cmp	r3, #0
 80011e2:	d001      	beq.n	80011e8 <MX_TIM4_Init+0xb0>
  {
    Error_Handler();
 80011e4:	f000 f924 	bl	8001430 <Error_Handler>
  }
  sConfigOC.OCMode = TIM_OCMODE_PWM1;
 80011e8:	2360      	movs	r3, #96	@ 0x60
 80011ea:	607b      	str	r3, [r7, #4]
  sConfigOC.Pulse = 0;
 80011ec:	2300      	movs	r3, #0
 80011ee:	60bb      	str	r3, [r7, #8]
  sConfigOC.OCPolarity = TIM_OCPOLARITY_HIGH;
 80011f0:	2300      	movs	r3, #0
 80011f2:	60fb      	str	r3, [r7, #12]
  sConfigOC.OCFastMode = TIM_OCFAST_DISABLE;
 80011f4:	2300      	movs	r3, #0
 80011f6:	617b      	str	r3, [r7, #20]
  if (HAL_TIM_PWM_ConfigChannel(&htim4, &sConfigOC, TIM_CHANNEL_1) != HAL_OK)
 80011f8:	1d3b      	adds	r3, r7, #4
 80011fa:	2200      	movs	r2, #0
 80011fc:	4619      	mov	r1, r3
 80011fe:	4807      	ldr	r0, [pc, #28]	@ (800121c <MX_TIM4_Init+0xe4>)
 8001200:	f002 fc0e 	bl	8003a20 <HAL_TIM_PWM_ConfigChannel>
 8001204:	4603      	mov	r3, r0
 8001206:	2b00      	cmp	r3, #0
 8001208:	d001      	beq.n	800120e <MX_TIM4_Init+0xd6>
  {
    Error_Handler();
 800120a:	f000 f911 	bl	8001430 <Error_Handler>
  }
  /* USER CODE BEGIN TIM4_Init 2 */

  /* USER CODE END TIM4_Init 2 */
  HAL_TIM_MspPostInit(&htim4);
 800120e:	4803      	ldr	r0, [pc, #12]	@ (800121c <MX_TIM4_Init+0xe4>)
 8001210:	f000 fa0c 	bl	800162c <HAL_TIM_MspPostInit>

}
 8001214:	bf00      	nop
 8001216:	3738      	adds	r7, #56	@ 0x38
 8001218:	46bd      	mov	sp, r7
 800121a:	bd80      	pop	{r7, pc}
 800121c:	20000130 	.word	0x20000130
 8001220:	40000800 	.word	0x40000800

08001224 <MX_USART2_UART_Init>:
  * @brief USART2 Initialization Function
  * @param None
  * @retval None
  */
static void MX_USART2_UART_Init(void)
{
 8001224:	b580      	push	{r7, lr}
 8001226:	af00      	add	r7, sp, #0
  /* USER CODE END USART2_Init 0 */

  /* USER CODE BEGIN USART2_Init 1 */

  /* USER CODE END USART2_Init 1 */
  huart2.Instance = USART2;
 8001228:	4b11      	ldr	r3, [pc, #68]	@ (8001270 <MX_USART2_UART_Init+0x4c>)
 800122a:	4a12      	ldr	r2, [pc, #72]	@ (8001274 <MX_USART2_UART_Init+0x50>)
 800122c:	601a      	str	r2, [r3, #0]
  huart2.Init.BaudRate = 115200;
 800122e:	4b10      	ldr	r3, [pc, #64]	@ (8001270 <MX_USART2_UART_Init+0x4c>)
 8001230:	f44f 32e1 	mov.w	r2, #115200	@ 0x1c200
 8001234:	605a      	str	r2, [r3, #4]
  huart2.Init.WordLength = UART_WORDLENGTH_8B;
 8001236:	4b0e      	ldr	r3, [pc, #56]	@ (8001270 <MX_USART2_UART_Init+0x4c>)
 8001238:	2200      	movs	r2, #0
 800123a:	609a      	str	r2, [r3, #8]
  huart2.Init.StopBits = UART_STOPBITS_1;
 800123c:	4b0c      	ldr	r3, [pc, #48]	@ (8001270 <MX_USART2_UART_Init+0x4c>)
 800123e:	2200      	movs	r2, #0
 8001240:	60da      	str	r2, [r3, #12]
  huart2.Init.Parity = UART_PARITY_NONE;
 8001242:	4b0b      	ldr	r3, [pc, #44]	@ (8001270 <MX_USART2_UART_Init+0x4c>)
 8001244:	2200      	movs	r2, #0
 8001246:	611a      	str	r2, [r3, #16]
  huart2.Init.Mode = UART_MODE_TX_RX;
 8001248:	4b09      	ldr	r3, [pc, #36]	@ (8001270 <MX_USART2_UART_Init+0x4c>)
 800124a:	220c      	movs	r2, #12
 800124c:	615a      	str	r2, [r3, #20]
  huart2.Init.HwFlowCtl = UART_HWCONTROL_NONE;
 800124e:	4b08      	ldr	r3, [pc, #32]	@ (8001270 <MX_USART2_UART_Init+0x4c>)
 8001250:	2200      	movs	r2, #0
 8001252:	619a      	str	r2, [r3, #24]
  huart2.Init.OverSampling = UART_OVERSAMPLING_16;
 8001254:	4b06      	ldr	r3, [pc, #24]	@ (8001270 <MX_USART2_UART_Init+0x4c>)
 8001256:	2200      	movs	r2, #0
 8001258:	61da      	str	r2, [r3, #28]
  if (HAL_UART_Init(&huart2) != HAL_OK)
 800125a:	4805      	ldr	r0, [pc, #20]	@ (8001270 <MX_USART2_UART_Init+0x4c>)
 800125c:	f003 f8dc 	bl	8004418 <HAL_UART_Init>
 8001260:	4603      	mov	r3, r0
 8001262:	2b00      	cmp	r3, #0
 8001264:	d001      	beq.n	800126a <MX_USART2_UART_Init+0x46>
  {
    Error_Handler();
 8001266:	f000 f8e3 	bl	8001430 <Error_Handler>
  }
  /* USER CODE BEGIN USART2_Init 2 */

  /* USER CODE END USART2_Init 2 */

}
 800126a:	bf00      	nop
 800126c:	bd80      	pop	{r7, pc}
 800126e:	bf00      	nop
 8001270:	20000178 	.word	0x20000178
 8001274:	40004400 	.word	0x40004400

08001278 <MX_GPIO_Init>:
  * @brief GPIO Initialization Function
  * @param None
  * @retval None
  */
static void MX_GPIO_Init(void)
{
 8001278:	b580      	push	{r7, lr}
 800127a:	b08a      	sub	sp, #40	@ 0x28
 800127c:	af00      	add	r7, sp, #0
  GPIO_InitTypeDef GPIO_InitStruct = {0};
 800127e:	f107 0314 	add.w	r3, r7, #20
 8001282:	2200      	movs	r2, #0
 8001284:	601a      	str	r2, [r3, #0]
 8001286:	605a      	str	r2, [r3, #4]
 8001288:	609a      	str	r2, [r3, #8]
 800128a:	60da      	str	r2, [r3, #12]
 800128c:	611a      	str	r2, [r3, #16]
/* USER CODE BEGIN MX_GPIO_Init_1 */
/* USER CODE END MX_GPIO_Init_1 */

  /* GPIO Ports Clock Enable */
  __HAL_RCC_GPIOC_CLK_ENABLE();
 800128e:	2300      	movs	r3, #0
 8001290:	613b      	str	r3, [r7, #16]
 8001292:	4b62      	ldr	r3, [pc, #392]	@ (800141c <MX_GPIO_Init+0x1a4>)
 8001294:	6b1b      	ldr	r3, [r3, #48]	@ 0x30
 8001296:	4a61      	ldr	r2, [pc, #388]	@ (800141c <MX_GPIO_Init+0x1a4>)
 8001298:	f043 0304 	orr.w	r3, r3, #4
 800129c:	6313      	str	r3, [r2, #48]	@ 0x30
 800129e:	4b5f      	ldr	r3, [pc, #380]	@ (800141c <MX_GPIO_Init+0x1a4>)
 80012a0:	6b1b      	ldr	r3, [r3, #48]	@ 0x30
 80012a2:	f003 0304 	and.w	r3, r3, #4
 80012a6:	613b      	str	r3, [r7, #16]
 80012a8:	693b      	ldr	r3, [r7, #16]
  __HAL_RCC_GPIOA_CLK_ENABLE();
 80012aa:	2300      	movs	r3, #0
 80012ac:	60fb      	str	r3, [r7, #12]
 80012ae:	4b5b      	ldr	r3, [pc, #364]	@ (800141c <MX_GPIO_Init+0x1a4>)
 80012b0:	6b1b      	ldr	r3, [r3, #48]	@ 0x30
 80012b2:	4a5a      	ldr	r2, [pc, #360]	@ (800141c <MX_GPIO_Init+0x1a4>)
 80012b4:	f043 0301 	orr.w	r3, r3, #1
 80012b8:	6313      	str	r3, [r2, #48]	@ 0x30
 80012ba:	4b58      	ldr	r3, [pc, #352]	@ (800141c <MX_GPIO_Init+0x1a4>)
 80012bc:	6b1b      	ldr	r3, [r3, #48]	@ 0x30
 80012be:	f003 0301 	and.w	r3, r3, #1
 80012c2:	60fb      	str	r3, [r7, #12]
 80012c4:	68fb      	ldr	r3, [r7, #12]
  __HAL_RCC_GPIOE_CLK_ENABLE();
 80012c6:	2300      	movs	r3, #0
 80012c8:	60bb      	str	r3, [r7, #8]
 80012ca:	4b54      	ldr	r3, [pc, #336]	@ (800141c <MX_GPIO_Init+0x1a4>)
 80012cc:	6b1b      	ldr	r3, [r3, #48]	@ 0x30
 80012ce:	4a53      	ldr	r2, [pc, #332]	@ (800141c <MX_GPIO_Init+0x1a4>)
 80012d0:	f043 0310 	orr.w	r3, r3, #16
 80012d4:	6313      	str	r3, [r2, #48]	@ 0x30
 80012d6:	4b51      	ldr	r3, [pc, #324]	@ (800141c <MX_GPIO_Init+0x1a4>)
 80012d8:	6b1b      	ldr	r3, [r3, #48]	@ 0x30
 80012da:	f003 0310 	and.w	r3, r3, #16
 80012de:	60bb      	str	r3, [r7, #8]
 80012e0:	68bb      	ldr	r3, [r7, #8]
  __HAL_RCC_GPIOB_CLK_ENABLE();
 80012e2:	2300      	movs	r3, #0
 80012e4:	607b      	str	r3, [r7, #4]
 80012e6:	4b4d      	ldr	r3, [pc, #308]	@ (800141c <MX_GPIO_Init+0x1a4>)
 80012e8:	6b1b      	ldr	r3, [r3, #48]	@ 0x30
 80012ea:	4a4c      	ldr	r2, [pc, #304]	@ (800141c <MX_GPIO_Init+0x1a4>)
 80012ec:	f043 0302 	orr.w	r3, r3, #2
 80012f0:	6313      	str	r3, [r2, #48]	@ 0x30
 80012f2:	4b4a      	ldr	r3, [pc, #296]	@ (800141c <MX_GPIO_Init+0x1a4>)
 80012f4:	6b1b      	ldr	r3, [r3, #48]	@ 0x30
 80012f6:	f003 0302 	and.w	r3, r3, #2
 80012fa:	607b      	str	r3, [r7, #4]
 80012fc:	687b      	ldr	r3, [r7, #4]
  __HAL_RCC_GPIOD_CLK_ENABLE();
 80012fe:	2300      	movs	r3, #0
 8001300:	603b      	str	r3, [r7, #0]
 8001302:	4b46      	ldr	r3, [pc, #280]	@ (800141c <MX_GPIO_Init+0x1a4>)
 8001304:	6b1b      	ldr	r3, [r3, #48]	@ 0x30
 8001306:	4a45      	ldr	r2, [pc, #276]	@ (800141c <MX_GPIO_Init+0x1a4>)
 8001308:	f043 0308 	orr.w	r3, r3, #8
 800130c:	6313      	str	r3, [r2, #48]	@ 0x30
 800130e:	4b43      	ldr	r3, [pc, #268]	@ (800141c <MX_GPIO_Init+0x1a4>)
 8001310:	6b1b      	ldr	r3, [r3, #48]	@ 0x30
 8001312:	f003 0308 	and.w	r3, r3, #8
 8001316:	603b      	str	r3, [r7, #0]
 8001318:	683b      	ldr	r3, [r7, #0]

  /*Configure GPIO pin Output Level */
  HAL_GPIO_WritePin(FA_LED0_GPIO_Port, FA_LED0_Pin, GPIO_PIN_RESET);
 800131a:	2200      	movs	r2, #0
 800131c:	2102      	movs	r1, #2
 800131e:	4840      	ldr	r0, [pc, #256]	@ (8001420 <MX_GPIO_Init+0x1a8>)
 8001320:	f001 fcfc 	bl	8002d1c <HAL_GPIO_WritePin>

  /*Configure GPIO pin Output Level */
  HAL_GPIO_WritePin(GPIOA, FA_LED1_Pin|FA_LED2_Pin, GPIO_PIN_RESET);
 8001324:	2200      	movs	r2, #0
 8001326:	2121      	movs	r1, #33	@ 0x21
 8001328:	483e      	ldr	r0, [pc, #248]	@ (8001424 <MX_GPIO_Init+0x1ac>)
 800132a:	f001 fcf7 	bl	8002d1c <HAL_GPIO_WritePin>

  /*Configure GPIO pin Output Level */
  HAL_GPIO_WritePin(GPIOE, FA_Data7_Pin|FA_Data6_Pin|FA_Data5_Pin|FA_EN_Pin
 800132e:	2200      	movs	r2, #0
 8001330:	f64a 3180 	movw	r1, #43904	@ 0xab80
 8001334:	483c      	ldr	r0, [pc, #240]	@ (8001428 <MX_GPIO_Init+0x1b0>)
 8001336:	f001 fcf1 	bl	8002d1c <HAL_GPIO_WritePin>
                          |FA_RS_Pin|FA_Data4_Pin, GPIO_PIN_RESET);

  /*Configure GPIO pin Output Level */
  HAL_GPIO_WritePin(FA_LED3_GPIO_Port, FA_LED3_Pin, GPIO_PIN_RESET);
 800133a:	2200      	movs	r2, #0
 800133c:	f44f 6100 	mov.w	r1, #2048	@ 0x800
 8001340:	483a      	ldr	r0, [pc, #232]	@ (800142c <MX_GPIO_Init+0x1b4>)
 8001342:	f001 fceb 	bl	8002d1c <HAL_GPIO_WritePin>

  /*Configure GPIO pin : FA_LED0_Pin */
  GPIO_InitStruct.Pin = FA_LED0_Pin;
 8001346:	2302      	movs	r3, #2
 8001348:	617b      	str	r3, [r7, #20]
  GPIO_InitStruct.Mode = GPIO_MODE_OUTPUT_PP;
 800134a:	2301      	movs	r3, #1
 800134c:	61bb      	str	r3, [r7, #24]
  GPIO_InitStruct.Pull = GPIO_NOPULL;
 800134e:	2300      	movs	r3, #0
 8001350:	61fb      	str	r3, [r7, #28]
  GPIO_InitStruct.Speed = GPIO_SPEED_FREQ_LOW;
 8001352:	2300      	movs	r3, #0
 8001354:	623b      	str	r3, [r7, #32]
  HAL_GPIO_Init(FA_LED0_GPIO_Port, &GPIO_InitStruct);
 8001356:	f107 0314 	add.w	r3, r7, #20
 800135a:	4619      	mov	r1, r3
 800135c:	4830      	ldr	r0, [pc, #192]	@ (8001420 <MX_GPIO_Init+0x1a8>)
 800135e:	f001 fb41 	bl	80029e4 <HAL_GPIO_Init>

  /*Configure GPIO pin : FA_BP_Pin */
  GPIO_InitStruct.Pin = FA_BP_Pin;
 8001362:	2308      	movs	r3, #8
 8001364:	617b      	str	r3, [r7, #20]
  GPIO_InitStruct.Mode = GPIO_MODE_INPUT;
 8001366:	2300      	movs	r3, #0
 8001368:	61bb      	str	r3, [r7, #24]
  GPIO_InitStruct.Pull = GPIO_NOPULL;
 800136a:	2300      	movs	r3, #0
 800136c:	61fb      	str	r3, [r7, #28]
  HAL_GPIO_Init(FA_BP_GPIO_Port, &GPIO_InitStruct);
 800136e:	f107 0314 	add.w	r3, r7, #20
 8001372:	4619      	mov	r1, r3
 8001374:	482a      	ldr	r0, [pc, #168]	@ (8001420 <MX_GPIO_Init+0x1a8>)
 8001376:	f001 fb35 	bl	80029e4 <HAL_GPIO_Init>

  /*Configure GPIO pins : FA_LED1_Pin FA_LED2_Pin */
  GPIO_InitStruct.Pin = FA_LED1_Pin|FA_LED2_Pin;
 800137a:	2321      	movs	r3, #33	@ 0x21
 800137c:	617b      	str	r3, [r7, #20]
  GPIO_InitStruct.Mode = GPIO_MODE_OUTPUT_PP;
 800137e:	2301      	movs	r3, #1
 8001380:	61bb      	str	r3, [r7, #24]
  GPIO_InitStruct.Pull = GPIO_NOPULL;
 8001382:	2300      	movs	r3, #0
 8001384:	61fb      	str	r3, [r7, #28]
  GPIO_InitStruct.Speed = GPIO_SPEED_FREQ_LOW;
 8001386:	2300      	movs	r3, #0
 8001388:	623b      	str	r3, [r7, #32]
  HAL_GPIO_Init(GPIOA, &GPIO_InitStruct);
 800138a:	f107 0314 	add.w	r3, r7, #20
 800138e:	4619      	mov	r1, r3
 8001390:	4824      	ldr	r0, [pc, #144]	@ (8001424 <MX_GPIO_Init+0x1ac>)
 8001392:	f001 fb27 	bl	80029e4 <HAL_GPIO_Init>

  /*Configure GPIO pins : FA_Cbit3_Pin FA_Cbit1_Pin FA_Cbit0_Pin FA_Cbit2_Pin */
  GPIO_InitStruct.Pin = FA_Cbit3_Pin|FA_Cbit1_Pin|FA_Cbit0_Pin|FA_Cbit2_Pin;
 8001396:	235a      	movs	r3, #90	@ 0x5a
 8001398:	617b      	str	r3, [r7, #20]
  GPIO_InitStruct.Mode = GPIO_MODE_INPUT;
 800139a:	2300      	movs	r3, #0
 800139c:	61bb      	str	r3, [r7, #24]
  GPIO_InitStruct.Pull = GPIO_NOPULL;
 800139e:	2300      	movs	r3, #0
 80013a0:	61fb      	str	r3, [r7, #28]
  HAL_GPIO_Init(GPIOA, &GPIO_InitStruct);
 80013a2:	f107 0314 	add.w	r3, r7, #20
 80013a6:	4619      	mov	r1, r3
 80013a8:	481e      	ldr	r0, [pc, #120]	@ (8001424 <MX_GPIO_Init+0x1ac>)
 80013aa:	f001 fb1b 	bl	80029e4 <HAL_GPIO_Init>

  /*Configure GPIO pin : FA_CbitInterrupt_Pin */
  GPIO_InitStruct.Pin = FA_CbitInterrupt_Pin;
 80013ae:	2304      	movs	r3, #4
 80013b0:	617b      	str	r3, [r7, #20]
  GPIO_InitStruct.Mode = GPIO_MODE_IT_RISING;
 80013b2:	f44f 1388 	mov.w	r3, #1114112	@ 0x110000
 80013b6:	61bb      	str	r3, [r7, #24]
  GPIO_InitStruct.Pull = GPIO_NOPULL;
 80013b8:	2300      	movs	r3, #0
 80013ba:	61fb      	str	r3, [r7, #28]
  HAL_GPIO_Init(FA_CbitInterrupt_GPIO_Port, &GPIO_InitStruct);
 80013bc:	f107 0314 	add.w	r3, r7, #20
 80013c0:	4619      	mov	r1, r3
 80013c2:	4818      	ldr	r0, [pc, #96]	@ (8001424 <MX_GPIO_Init+0x1ac>)
 80013c4:	f001 fb0e 	bl	80029e4 <HAL_GPIO_Init>

  /*Configure GPIO pins : FA_Data7_Pin FA_Data6_Pin FA_Data5_Pin FA_EN_Pin
                           FA_RS_Pin FA_Data4_Pin */
  GPIO_InitStruct.Pin = FA_Data7_Pin|FA_Data6_Pin|FA_Data5_Pin|FA_EN_Pin
 80013c8:	f64a 3380 	movw	r3, #43904	@ 0xab80
 80013cc:	617b      	str	r3, [r7, #20]
                          |FA_RS_Pin|FA_Data4_Pin;
  GPIO_InitStruct.Mode = GPIO_MODE_OUTPUT_PP;
 80013ce:	2301      	movs	r3, #1
 80013d0:	61bb      	str	r3, [r7, #24]
  GPIO_InitStruct.Pull = GPIO_NOPULL;
 80013d2:	2300      	movs	r3, #0
 80013d4:	61fb      	str	r3, [r7, #28]
  GPIO_InitStruct.Speed = GPIO_SPEED_FREQ_LOW;
 80013d6:	2300      	movs	r3, #0
 80013d8:	623b      	str	r3, [r7, #32]
  HAL_GPIO_Init(GPIOE, &GPIO_InitStruct);
 80013da:	f107 0314 	add.w	r3, r7, #20
 80013de:	4619      	mov	r1, r3
 80013e0:	4811      	ldr	r0, [pc, #68]	@ (8001428 <MX_GPIO_Init+0x1b0>)
 80013e2:	f001 faff 	bl	80029e4 <HAL_GPIO_Init>

  /*Configure GPIO pin : FA_LED3_Pin */
  GPIO_InitStruct.Pin = FA_LED3_Pin;
 80013e6:	f44f 6300 	mov.w	r3, #2048	@ 0x800
 80013ea:	617b      	str	r3, [r7, #20]
  GPIO_InitStruct.Mode = GPIO_MODE_OUTPUT_PP;
 80013ec:	2301      	movs	r3, #1
 80013ee:	61bb      	str	r3, [r7, #24]
  GPIO_InitStruct.Pull = GPIO_NOPULL;
 80013f0:	2300      	movs	r3, #0
 80013f2:	61fb      	str	r3, [r7, #28]
  GPIO_InitStruct.Speed = GPIO_SPEED_FREQ_LOW;
 80013f4:	2300      	movs	r3, #0
 80013f6:	623b      	str	r3, [r7, #32]
  HAL_GPIO_Init(FA_LED3_GPIO_Port, &GPIO_InitStruct);
 80013f8:	f107 0314 	add.w	r3, r7, #20
 80013fc:	4619      	mov	r1, r3
 80013fe:	480b      	ldr	r0, [pc, #44]	@ (800142c <MX_GPIO_Init+0x1b4>)
 8001400:	f001 faf0 	bl	80029e4 <HAL_GPIO_Init>

  /* EXTI interrupt init*/
  HAL_NVIC_SetPriority(EXTI2_IRQn, 0, 0);
 8001404:	2200      	movs	r2, #0
 8001406:	2100      	movs	r1, #0
 8001408:	2008      	movs	r0, #8
 800140a:	f001 fa22 	bl	8002852 <HAL_NVIC_SetPriority>
  HAL_NVIC_EnableIRQ(EXTI2_IRQn);
 800140e:	2008      	movs	r0, #8
 8001410:	f001 fa3b 	bl	800288a <HAL_NVIC_EnableIRQ>

/* USER CODE BEGIN MX_GPIO_Init_2 */
/* USER CODE END MX_GPIO_Init_2 */
}
 8001414:	bf00      	nop
 8001416:	3728      	adds	r7, #40	@ 0x28
 8001418:	46bd      	mov	sp, r7
 800141a:	bd80      	pop	{r7, pc}
 800141c:	40023800 	.word	0x40023800
 8001420:	40020800 	.word	0x40020800
 8001424:	40020000 	.word	0x40020000
 8001428:	40021000 	.word	0x40021000
 800142c:	40020400 	.word	0x40020400

08001430 <Error_Handler>:
/**
  * @brief  This function is executed in case of error occurrence.
  * @retval None
  */
void Error_Handler(void)
{
 8001430:	b480      	push	{r7}
 8001432:	af00      	add	r7, sp, #0
  \details Disables IRQ interrupts by setting special-purpose register PRIMASK.
           Can only be executed in Privileged modes.
 */
__STATIC_FORCEINLINE void __disable_irq(void)
{
  __ASM volatile ("cpsid i" : : : "memory");
 8001434:	b672      	cpsid	i
}
 8001436:	bf00      	nop
  /* USER CODE BEGIN Error_Handler_Debug */
  /* User can add his own implementation to report the HAL error return state */
  __disable_irq();
  while (1)
 8001438:	bf00      	nop
 800143a:	e7fd      	b.n	8001438 <Error_Handler+0x8>

0800143c <HAL_MspInit>:
void HAL_TIM_MspPostInit(TIM_HandleTypeDef *htim);
                    /**
  * Initializes the Global MSP.
  */
void HAL_MspInit(void)
{
 800143c:	b480      	push	{r7}
 800143e:	b083      	sub	sp, #12
 8001440:	af00      	add	r7, sp, #0

  /* USER CODE BEGIN MspInit 0 */

  /* USER CODE END MspInit 0 */

  __HAL_RCC_SYSCFG_CLK_ENABLE();
 8001442:	2300      	movs	r3, #0
 8001444:	607b      	str	r3, [r7, #4]
 8001446:	4b10      	ldr	r3, [pc, #64]	@ (8001488 <HAL_MspInit+0x4c>)
 8001448:	6c5b      	ldr	r3, [r3, #68]	@ 0x44
 800144a:	4a0f      	ldr	r2, [pc, #60]	@ (8001488 <HAL_MspInit+0x4c>)
 800144c:	f443 4380 	orr.w	r3, r3, #16384	@ 0x4000
 8001450:	6453      	str	r3, [r2, #68]	@ 0x44
 8001452:	4b0d      	ldr	r3, [pc, #52]	@ (8001488 <HAL_MspInit+0x4c>)
 8001454:	6c5b      	ldr	r3, [r3, #68]	@ 0x44
 8001456:	f403 4380 	and.w	r3, r3, #16384	@ 0x4000
 800145a:	607b      	str	r3, [r7, #4]
 800145c:	687b      	ldr	r3, [r7, #4]
  __HAL_RCC_PWR_CLK_ENABLE();
 800145e:	2300      	movs	r3, #0
 8001460:	603b      	str	r3, [r7, #0]
 8001462:	4b09      	ldr	r3, [pc, #36]	@ (8001488 <HAL_MspInit+0x4c>)
 8001464:	6c1b      	ldr	r3, [r3, #64]	@ 0x40
 8001466:	4a08      	ldr	r2, [pc, #32]	@ (8001488 <HAL_MspInit+0x4c>)
 8001468:	f043 5380 	orr.w	r3, r3, #268435456	@ 0x10000000
 800146c:	6413      	str	r3, [r2, #64]	@ 0x40
 800146e:	4b06      	ldr	r3, [pc, #24]	@ (8001488 <HAL_MspInit+0x4c>)
 8001470:	6c1b      	ldr	r3, [r3, #64]	@ 0x40
 8001472:	f003 5380 	and.w	r3, r3, #268435456	@ 0x10000000
 8001476:	603b      	str	r3, [r7, #0]
 8001478:	683b      	ldr	r3, [r7, #0]
  /* System interrupt init*/

  /* USER CODE BEGIN MspInit 1 */

  /* USER CODE END MspInit 1 */
}
 800147a:	bf00      	nop
 800147c:	370c      	adds	r7, #12
 800147e:	46bd      	mov	sp, r7
 8001480:	f85d 7b04 	ldr.w	r7, [sp], #4
 8001484:	4770      	bx	lr
 8001486:	bf00      	nop
 8001488:	40023800 	.word	0x40023800

0800148c <HAL_ADC_MspInit>:
* This function configures the hardware resources used in this example
* @param hadc: ADC handle pointer
* @retval None
*/
void HAL_ADC_MspInit(ADC_HandleTypeDef* hadc)
{
 800148c:	b580      	push	{r7, lr}
 800148e:	b08a      	sub	sp, #40	@ 0x28
 8001490:	af00      	add	r7, sp, #0
 8001492:	6078      	str	r0, [r7, #4]
  GPIO_InitTypeDef GPIO_InitStruct = {0};
 8001494:	f107 0314 	add.w	r3, r7, #20
 8001498:	2200      	movs	r2, #0
 800149a:	601a      	str	r2, [r3, #0]
 800149c:	605a      	str	r2, [r3, #4]
 800149e:	609a      	str	r2, [r3, #8]
 80014a0:	60da      	str	r2, [r3, #12]
 80014a2:	611a      	str	r2, [r3, #16]
  if(hadc->Instance==ADC1)
 80014a4:	687b      	ldr	r3, [r7, #4]
 80014a6:	681b      	ldr	r3, [r3, #0]
 80014a8:	4a17      	ldr	r2, [pc, #92]	@ (8001508 <HAL_ADC_MspInit+0x7c>)
 80014aa:	4293      	cmp	r3, r2
 80014ac:	d127      	bne.n	80014fe <HAL_ADC_MspInit+0x72>
  {
  /* USER CODE BEGIN ADC1_MspInit 0 */

  /* USER CODE END ADC1_MspInit 0 */
    /* Peripheral clock enable */
    __HAL_RCC_ADC1_CLK_ENABLE();
 80014ae:	2300      	movs	r3, #0
 80014b0:	613b      	str	r3, [r7, #16]
 80014b2:	4b16      	ldr	r3, [pc, #88]	@ (800150c <HAL_ADC_MspInit+0x80>)
 80014b4:	6c5b      	ldr	r3, [r3, #68]	@ 0x44
 80014b6:	4a15      	ldr	r2, [pc, #84]	@ (800150c <HAL_ADC_MspInit+0x80>)
 80014b8:	f443 7380 	orr.w	r3, r3, #256	@ 0x100
 80014bc:	6453      	str	r3, [r2, #68]	@ 0x44
 80014be:	4b13      	ldr	r3, [pc, #76]	@ (800150c <HAL_ADC_MspInit+0x80>)
 80014c0:	6c5b      	ldr	r3, [r3, #68]	@ 0x44
 80014c2:	f403 7380 	and.w	r3, r3, #256	@ 0x100
 80014c6:	613b      	str	r3, [r7, #16]
 80014c8:	693b      	ldr	r3, [r7, #16]

    __HAL_RCC_GPIOC_CLK_ENABLE();
 80014ca:	2300      	movs	r3, #0
 80014cc:	60fb      	str	r3, [r7, #12]
 80014ce:	4b0f      	ldr	r3, [pc, #60]	@ (800150c <HAL_ADC_MspInit+0x80>)
 80014d0:	6b1b      	ldr	r3, [r3, #48]	@ 0x30
 80014d2:	4a0e      	ldr	r2, [pc, #56]	@ (800150c <HAL_ADC_MspInit+0x80>)
 80014d4:	f043 0304 	orr.w	r3, r3, #4
 80014d8:	6313      	str	r3, [r2, #48]	@ 0x30
 80014da:	4b0c      	ldr	r3, [pc, #48]	@ (800150c <HAL_ADC_MspInit+0x80>)
 80014dc:	6b1b      	ldr	r3, [r3, #48]	@ 0x30
 80014de:	f003 0304 	and.w	r3, r3, #4
 80014e2:	60fb      	str	r3, [r7, #12]
 80014e4:	68fb      	ldr	r3, [r7, #12]
    /**ADC1 GPIO Configuration
    PC0     ------> ADC1_IN10
    PC2     ------> ADC1_IN12
    */
    GPIO_InitStruct.Pin = FA_PotArm_Pin|FA_PotBox_Pin;
 80014e6:	2305      	movs	r3, #5
 80014e8:	617b      	str	r3, [r7, #20]
    GPIO_InitStruct.Mode = GPIO_MODE_ANALOG;
 80014ea:	2303      	movs	r3, #3
 80014ec:	61bb      	str	r3, [r7, #24]
    GPIO_InitStruct.Pull = GPIO_NOPULL;
 80014ee:	2300      	movs	r3, #0
 80014f0:	61fb      	str	r3, [r7, #28]
    HAL_GPIO_Init(GPIOC, &GPIO_InitStruct);
 80014f2:	f107 0314 	add.w	r3, r7, #20
 80014f6:	4619      	mov	r1, r3
 80014f8:	4805      	ldr	r0, [pc, #20]	@ (8001510 <HAL_ADC_MspInit+0x84>)
 80014fa:	f001 fa73 	bl	80029e4 <HAL_GPIO_Init>
  /* USER CODE BEGIN ADC1_MspInit 1 */

  /* USER CODE END ADC1_MspInit 1 */
  }

}
 80014fe:	bf00      	nop
 8001500:	3728      	adds	r7, #40	@ 0x28
 8001502:	46bd      	mov	sp, r7
 8001504:	bd80      	pop	{r7, pc}
 8001506:	bf00      	nop
 8001508:	40012000 	.word	0x40012000
 800150c:	40023800 	.word	0x40023800
 8001510:	40020800 	.word	0x40020800

08001514 <HAL_I2C_MspInit>:
* This function configures the hardware resources used in this example
* @param hi2c: I2C handle pointer
* @retval None
*/
void HAL_I2C_MspInit(I2C_HandleTypeDef* hi2c)
{
 8001514:	b580      	push	{r7, lr}
 8001516:	b08a      	sub	sp, #40	@ 0x28
 8001518:	af00      	add	r7, sp, #0
 800151a:	6078      	str	r0, [r7, #4]
  GPIO_InitTypeDef GPIO_InitStruct = {0};
 800151c:	f107 0314 	add.w	r3, r7, #20
 8001520:	2200      	movs	r2, #0
 8001522:	601a      	str	r2, [r3, #0]
 8001524:	605a      	str	r2, [r3, #4]
 8001526:	609a      	str	r2, [r3, #8]
 8001528:	60da      	str	r2, [r3, #12]
 800152a:	611a      	str	r2, [r3, #16]
  if(hi2c->Instance==I2C3)
 800152c:	687b      	ldr	r3, [r7, #4]
 800152e:	681b      	ldr	r3, [r3, #0]
 8001530:	4a29      	ldr	r2, [pc, #164]	@ (80015d8 <HAL_I2C_MspInit+0xc4>)
 8001532:	4293      	cmp	r3, r2
 8001534:	d14b      	bne.n	80015ce <HAL_I2C_MspInit+0xba>
  {
  /* USER CODE BEGIN I2C3_MspInit 0 */

  /* USER CODE END I2C3_MspInit 0 */

    __HAL_RCC_GPIOC_CLK_ENABLE();
 8001536:	2300      	movs	r3, #0
 8001538:	613b      	str	r3, [r7, #16]
 800153a:	4b28      	ldr	r3, [pc, #160]	@ (80015dc <HAL_I2C_MspInit+0xc8>)
 800153c:	6b1b      	ldr	r3, [r3, #48]	@ 0x30
 800153e:	4a27      	ldr	r2, [pc, #156]	@ (80015dc <HAL_I2C_MspInit+0xc8>)
 8001540:	f043 0304 	orr.w	r3, r3, #4
 8001544:	6313      	str	r3, [r2, #48]	@ 0x30
 8001546:	4b25      	ldr	r3, [pc, #148]	@ (80015dc <HAL_I2C_MspInit+0xc8>)
 8001548:	6b1b      	ldr	r3, [r3, #48]	@ 0x30
 800154a:	f003 0304 	and.w	r3, r3, #4
 800154e:	613b      	str	r3, [r7, #16]
 8001550:	693b      	ldr	r3, [r7, #16]
    __HAL_RCC_GPIOA_CLK_ENABLE();
 8001552:	2300      	movs	r3, #0
 8001554:	60fb      	str	r3, [r7, #12]
 8001556:	4b21      	ldr	r3, [pc, #132]	@ (80015dc <HAL_I2C_MspInit+0xc8>)
 8001558:	6b1b      	ldr	r3, [r3, #48]	@ 0x30
 800155a:	4a20      	ldr	r2, [pc, #128]	@ (80015dc <HAL_I2C_MspInit+0xc8>)
 800155c:	f043 0301 	orr.w	r3, r3, #1
 8001560:	6313      	str	r3, [r2, #48]	@ 0x30
 8001562:	4b1e      	ldr	r3, [pc, #120]	@ (80015dc <HAL_I2C_MspInit+0xc8>)
 8001564:	6b1b      	ldr	r3, [r3, #48]	@ 0x30
 8001566:	f003 0301 	and.w	r3, r3, #1
 800156a:	60fb      	str	r3, [r7, #12]
 800156c:	68fb      	ldr	r3, [r7, #12]
    /**I2C3 GPIO Configuration
    PC9     ------> I2C3_SDA
    PA8     ------> I2C3_SCL
    */
    GPIO_InitStruct.Pin = FA_SDA_IMU_Pin;
 800156e:	f44f 7300 	mov.w	r3, #512	@ 0x200
 8001572:	617b      	str	r3, [r7, #20]
    GPIO_InitStruct.Mode = GPIO_MODE_AF_OD;
 8001574:	2312      	movs	r3, #18
 8001576:	61bb      	str	r3, [r7, #24]
    GPIO_InitStruct.Pull = GPIO_NOPULL;
 8001578:	2300      	movs	r3, #0
 800157a:	61fb      	str	r3, [r7, #28]
    GPIO_InitStruct.Speed = GPIO_SPEED_FREQ_VERY_HIGH;
 800157c:	2303      	movs	r3, #3
 800157e:	623b      	str	r3, [r7, #32]
    GPIO_InitStruct.Alternate = GPIO_AF4_I2C3;
 8001580:	2304      	movs	r3, #4
 8001582:	627b      	str	r3, [r7, #36]	@ 0x24
    HAL_GPIO_Init(FA_SDA_IMU_GPIO_Port, &GPIO_InitStruct);
 8001584:	f107 0314 	add.w	r3, r7, #20
 8001588:	4619      	mov	r1, r3
 800158a:	4815      	ldr	r0, [pc, #84]	@ (80015e0 <HAL_I2C_MspInit+0xcc>)
 800158c:	f001 fa2a 	bl	80029e4 <HAL_GPIO_Init>

    GPIO_InitStruct.Pin = FA_SCL_IMU_Pin;
 8001590:	f44f 7380 	mov.w	r3, #256	@ 0x100
 8001594:	617b      	str	r3, [r7, #20]
    GPIO_InitStruct.Mode = GPIO_MODE_AF_OD;
 8001596:	2312      	movs	r3, #18
 8001598:	61bb      	str	r3, [r7, #24]
    GPIO_InitStruct.Pull = GPIO_NOPULL;
 800159a:	2300      	movs	r3, #0
 800159c:	61fb      	str	r3, [r7, #28]
    GPIO_InitStruct.Speed = GPIO_SPEED_FREQ_VERY_HIGH;
 800159e:	2303      	movs	r3, #3
 80015a0:	623b      	str	r3, [r7, #32]
    GPIO_InitStruct.Alternate = GPIO_AF4_I2C3;
 80015a2:	2304      	movs	r3, #4
 80015a4:	627b      	str	r3, [r7, #36]	@ 0x24
    HAL_GPIO_Init(FA_SCL_IMU_GPIO_Port, &GPIO_InitStruct);
 80015a6:	f107 0314 	add.w	r3, r7, #20
 80015aa:	4619      	mov	r1, r3
 80015ac:	480d      	ldr	r0, [pc, #52]	@ (80015e4 <HAL_I2C_MspInit+0xd0>)
 80015ae:	f001 fa19 	bl	80029e4 <HAL_GPIO_Init>

    /* Peripheral clock enable */
    __HAL_RCC_I2C3_CLK_ENABLE();
 80015b2:	2300      	movs	r3, #0
 80015b4:	60bb      	str	r3, [r7, #8]
 80015b6:	4b09      	ldr	r3, [pc, #36]	@ (80015dc <HAL_I2C_MspInit+0xc8>)
 80015b8:	6c1b      	ldr	r3, [r3, #64]	@ 0x40
 80015ba:	4a08      	ldr	r2, [pc, #32]	@ (80015dc <HAL_I2C_MspInit+0xc8>)
 80015bc:	f443 0300 	orr.w	r3, r3, #8388608	@ 0x800000
 80015c0:	6413      	str	r3, [r2, #64]	@ 0x40
 80015c2:	4b06      	ldr	r3, [pc, #24]	@ (80015dc <HAL_I2C_MspInit+0xc8>)
 80015c4:	6c1b      	ldr	r3, [r3, #64]	@ 0x40
 80015c6:	f403 0300 	and.w	r3, r3, #8388608	@ 0x800000
 80015ca:	60bb      	str	r3, [r7, #8]
 80015cc:	68bb      	ldr	r3, [r7, #8]
  /* USER CODE BEGIN I2C3_MspInit 1 */

  /* USER CODE END I2C3_MspInit 1 */
  }

}
 80015ce:	bf00      	nop
 80015d0:	3728      	adds	r7, #40	@ 0x28
 80015d2:	46bd      	mov	sp, r7
 80015d4:	bd80      	pop	{r7, pc}
 80015d6:	bf00      	nop
 80015d8:	40005c00 	.word	0x40005c00
 80015dc:	40023800 	.word	0x40023800
 80015e0:	40020800 	.word	0x40020800
 80015e4:	40020000 	.word	0x40020000

080015e8 <HAL_TIM_Base_MspInit>:
* This function configures the hardware resources used in this example
* @param htim_base: TIM_Base handle pointer
* @retval None
*/
void HAL_TIM_Base_MspInit(TIM_HandleTypeDef* htim_base)
{
 80015e8:	b480      	push	{r7}
 80015ea:	b085      	sub	sp, #20
 80015ec:	af00      	add	r7, sp, #0
 80015ee:	6078      	str	r0, [r7, #4]
  if(htim_base->Instance==TIM4)
 80015f0:	687b      	ldr	r3, [r7, #4]
 80015f2:	681b      	ldr	r3, [r3, #0]
 80015f4:	4a0b      	ldr	r2, [pc, #44]	@ (8001624 <HAL_TIM_Base_MspInit+0x3c>)
 80015f6:	4293      	cmp	r3, r2
 80015f8:	d10d      	bne.n	8001616 <HAL_TIM_Base_MspInit+0x2e>
  {
  /* USER CODE BEGIN TIM4_MspInit 0 */

  /* USER CODE END TIM4_MspInit 0 */
    /* Peripheral clock enable */
    __HAL_RCC_TIM4_CLK_ENABLE();
 80015fa:	2300      	movs	r3, #0
 80015fc:	60fb      	str	r3, [r7, #12]
 80015fe:	4b0a      	ldr	r3, [pc, #40]	@ (8001628 <HAL_TIM_Base_MspInit+0x40>)
 8001600:	6c1b      	ldr	r3, [r3, #64]	@ 0x40
 8001602:	4a09      	ldr	r2, [pc, #36]	@ (8001628 <HAL_TIM_Base_MspInit+0x40>)
 8001604:	f043 0304 	orr.w	r3, r3, #4
 8001608:	6413      	str	r3, [r2, #64]	@ 0x40
 800160a:	4b07      	ldr	r3, [pc, #28]	@ (8001628 <HAL_TIM_Base_MspInit+0x40>)
 800160c:	6c1b      	ldr	r3, [r3, #64]	@ 0x40
 800160e:	f003 0304 	and.w	r3, r3, #4
 8001612:	60fb      	str	r3, [r7, #12]
 8001614:	68fb      	ldr	r3, [r7, #12]
  /* USER CODE BEGIN TIM4_MspInit 1 */

  /* USER CODE END TIM4_MspInit 1 */
  }

}
 8001616:	bf00      	nop
 8001618:	3714      	adds	r7, #20
 800161a:	46bd      	mov	sp, r7
 800161c:	f85d 7b04 	ldr.w	r7, [sp], #4
 8001620:	4770      	bx	lr
 8001622:	bf00      	nop
 8001624:	40000800 	.word	0x40000800
 8001628:	40023800 	.word	0x40023800

0800162c <HAL_TIM_MspPostInit>:

void HAL_TIM_MspPostInit(TIM_HandleTypeDef* htim)
{
 800162c:	b580      	push	{r7, lr}
 800162e:	b088      	sub	sp, #32
 8001630:	af00      	add	r7, sp, #0
 8001632:	6078      	str	r0, [r7, #4]
  GPIO_InitTypeDef GPIO_InitStruct = {0};
 8001634:	f107 030c 	add.w	r3, r7, #12
 8001638:	2200      	movs	r2, #0
 800163a:	601a      	str	r2, [r3, #0]
 800163c:	605a      	str	r2, [r3, #4]
 800163e:	609a      	str	r2, [r3, #8]
 8001640:	60da      	str	r2, [r3, #12]
 8001642:	611a      	str	r2, [r3, #16]
  if(htim->Instance==TIM4)
 8001644:	687b      	ldr	r3, [r7, #4]
 8001646:	681b      	ldr	r3, [r3, #0]
 8001648:	4a12      	ldr	r2, [pc, #72]	@ (8001694 <HAL_TIM_MspPostInit+0x68>)
 800164a:	4293      	cmp	r3, r2
 800164c:	d11e      	bne.n	800168c <HAL_TIM_MspPostInit+0x60>
  {
  /* USER CODE BEGIN TIM4_MspPostInit 0 */

  /* USER CODE END TIM4_MspPostInit 0 */

    __HAL_RCC_GPIOD_CLK_ENABLE();
 800164e:	2300      	movs	r3, #0
 8001650:	60bb      	str	r3, [r7, #8]
 8001652:	4b11      	ldr	r3, [pc, #68]	@ (8001698 <HAL_TIM_MspPostInit+0x6c>)
 8001654:	6b1b      	ldr	r3, [r3, #48]	@ 0x30
 8001656:	4a10      	ldr	r2, [pc, #64]	@ (8001698 <HAL_TIM_MspPostInit+0x6c>)
 8001658:	f043 0308 	orr.w	r3, r3, #8
 800165c:	6313      	str	r3, [r2, #48]	@ 0x30
 800165e:	4b0e      	ldr	r3, [pc, #56]	@ (8001698 <HAL_TIM_MspPostInit+0x6c>)
 8001660:	6b1b      	ldr	r3, [r3, #48]	@ 0x30
 8001662:	f003 0308 	and.w	r3, r3, #8
 8001666:	60bb      	str	r3, [r7, #8]
 8001668:	68bb      	ldr	r3, [r7, #8]
    /**TIM4 GPIO Configuration
    PD12     ------> TIM4_CH1
    */
    GPIO_InitStruct.Pin = FA_ESC_PWM_Pin;
 800166a:	f44f 5380 	mov.w	r3, #4096	@ 0x1000
 800166e:	60fb      	str	r3, [r7, #12]
    GPIO_InitStruct.Mode = GPIO_MODE_AF_PP;
 8001670:	2302      	movs	r3, #2
 8001672:	613b      	str	r3, [r7, #16]
    GPIO_InitStruct.Pull = GPIO_NOPULL;
 8001674:	2300      	movs	r3, #0
 8001676:	617b      	str	r3, [r7, #20]
    GPIO_InitStruct.Speed = GPIO_SPEED_FREQ_LOW;
 8001678:	2300      	movs	r3, #0
 800167a:	61bb      	str	r3, [r7, #24]
    GPIO_InitStruct.Alternate = GPIO_AF2_TIM4;
 800167c:	2302      	movs	r3, #2
 800167e:	61fb      	str	r3, [r7, #28]
    HAL_GPIO_Init(FA_ESC_PWM_GPIO_Port, &GPIO_InitStruct);
 8001680:	f107 030c 	add.w	r3, r7, #12
 8001684:	4619      	mov	r1, r3
 8001686:	4805      	ldr	r0, [pc, #20]	@ (800169c <HAL_TIM_MspPostInit+0x70>)
 8001688:	f001 f9ac 	bl	80029e4 <HAL_GPIO_Init>
  /* USER CODE BEGIN TIM4_MspPostInit 1 */

  /* USER CODE END TIM4_MspPostInit 1 */
  }

}
 800168c:	bf00      	nop
 800168e:	3720      	adds	r7, #32
 8001690:	46bd      	mov	sp, r7
 8001692:	bd80      	pop	{r7, pc}
 8001694:	40000800 	.word	0x40000800
 8001698:	40023800 	.word	0x40023800
 800169c:	40020c00 	.word	0x40020c00

080016a0 <HAL_UART_MspInit>:
* This function configures the hardware resources used in this example
* @param huart: UART handle pointer
* @retval None
*/
void HAL_UART_MspInit(UART_HandleTypeDef* huart)
{
 80016a0:	b580      	push	{r7, lr}
 80016a2:	b08a      	sub	sp, #40	@ 0x28
 80016a4:	af00      	add	r7, sp, #0
 80016a6:	6078      	str	r0, [r7, #4]
  GPIO_InitTypeDef GPIO_InitStruct = {0};
 80016a8:	f107 0314 	add.w	r3, r7, #20
 80016ac:	2200      	movs	r2, #0
 80016ae:	601a      	str	r2, [r3, #0]
 80016b0:	605a      	str	r2, [r3, #4]
 80016b2:	609a      	str	r2, [r3, #8]
 80016b4:	60da      	str	r2, [r3, #12]
 80016b6:	611a      	str	r2, [r3, #16]
  if(huart->Instance==USART2)
 80016b8:	687b      	ldr	r3, [r7, #4]
 80016ba:	681b      	ldr	r3, [r3, #0]
 80016bc:	4a1d      	ldr	r2, [pc, #116]	@ (8001734 <HAL_UART_MspInit+0x94>)
 80016be:	4293      	cmp	r3, r2
 80016c0:	d133      	bne.n	800172a <HAL_UART_MspInit+0x8a>
  {
  /* USER CODE BEGIN USART2_MspInit 0 */

  /* USER CODE END USART2_MspInit 0 */
    /* Peripheral clock enable */
    __HAL_RCC_USART2_CLK_ENABLE();
 80016c2:	2300      	movs	r3, #0
 80016c4:	613b      	str	r3, [r7, #16]
 80016c6:	4b1c      	ldr	r3, [pc, #112]	@ (8001738 <HAL_UART_MspInit+0x98>)
 80016c8:	6c1b      	ldr	r3, [r3, #64]	@ 0x40
 80016ca:	4a1b      	ldr	r2, [pc, #108]	@ (8001738 <HAL_UART_MspInit+0x98>)
 80016cc:	f443 3300 	orr.w	r3, r3, #131072	@ 0x20000
 80016d0:	6413      	str	r3, [r2, #64]	@ 0x40
 80016d2:	4b19      	ldr	r3, [pc, #100]	@ (8001738 <HAL_UART_MspInit+0x98>)
 80016d4:	6c1b      	ldr	r3, [r3, #64]	@ 0x40
 80016d6:	f403 3300 	and.w	r3, r3, #131072	@ 0x20000
 80016da:	613b      	str	r3, [r7, #16]
 80016dc:	693b      	ldr	r3, [r7, #16]

    __HAL_RCC_GPIOD_CLK_ENABLE();
 80016de:	2300      	movs	r3, #0
 80016e0:	60fb      	str	r3, [r7, #12]
 80016e2:	4b15      	ldr	r3, [pc, #84]	@ (8001738 <HAL_UART_MspInit+0x98>)
 80016e4:	6b1b      	ldr	r3, [r3, #48]	@ 0x30
 80016e6:	4a14      	ldr	r2, [pc, #80]	@ (8001738 <HAL_UART_MspInit+0x98>)
 80016e8:	f043 0308 	orr.w	r3, r3, #8
 80016ec:	6313      	str	r3, [r2, #48]	@ 0x30
 80016ee:	4b12      	ldr	r3, [pc, #72]	@ (8001738 <HAL_UART_MspInit+0x98>)
 80016f0:	6b1b      	ldr	r3, [r3, #48]	@ 0x30
 80016f2:	f003 0308 	and.w	r3, r3, #8
 80016f6:	60fb      	str	r3, [r7, #12]
 80016f8:	68fb      	ldr	r3, [r7, #12]
    /**USART2 GPIO Configuration
    PD5     ------> USART2_TX
    PD6     ------> USART2_RX
    */
    GPIO_InitStruct.Pin = GPIO_PIN_5|GPIO_PIN_6;
 80016fa:	2360      	movs	r3, #96	@ 0x60
 80016fc:	617b      	str	r3, [r7, #20]
    GPIO_InitStruct.Mode = GPIO_MODE_AF_PP;
 80016fe:	2302      	movs	r3, #2
 8001700:	61bb      	str	r3, [r7, #24]
    GPIO_InitStruct.Pull = GPIO_NOPULL;
 8001702:	2300      	movs	r3, #0
 8001704:	61fb      	str	r3, [r7, #28]
    GPIO_InitStruct.Speed = GPIO_SPEED_FREQ_VERY_HIGH;
 8001706:	2303      	movs	r3, #3
 8001708:	623b      	str	r3, [r7, #32]
    GPIO_InitStruct.Alternate = GPIO_AF7_USART2;
 800170a:	2307      	movs	r3, #7
 800170c:	627b      	str	r3, [r7, #36]	@ 0x24
    HAL_GPIO_Init(GPIOD, &GPIO_InitStruct);
 800170e:	f107 0314 	add.w	r3, r7, #20
 8001712:	4619      	mov	r1, r3
 8001714:	4809      	ldr	r0, [pc, #36]	@ (800173c <HAL_UART_MspInit+0x9c>)
 8001716:	f001 f965 	bl	80029e4 <HAL_GPIO_Init>

    /* USART2 interrupt Init */
    HAL_NVIC_SetPriority(USART2_IRQn, 0, 0);
 800171a:	2200      	movs	r2, #0
 800171c:	2100      	movs	r1, #0
 800171e:	2026      	movs	r0, #38	@ 0x26
 8001720:	f001 f897 	bl	8002852 <HAL_NVIC_SetPriority>
    HAL_NVIC_EnableIRQ(USART2_IRQn);
 8001724:	2026      	movs	r0, #38	@ 0x26
 8001726:	f001 f8b0 	bl	800288a <HAL_NVIC_EnableIRQ>
  /* USER CODE BEGIN USART2_MspInit 1 */

  /* USER CODE END USART2_MspInit 1 */
  }

}
 800172a:	bf00      	nop
 800172c:	3728      	adds	r7, #40	@ 0x28
 800172e:	46bd      	mov	sp, r7
 8001730:	bd80      	pop	{r7, pc}
 8001732:	bf00      	nop
 8001734:	40004400 	.word	0x40004400
 8001738:	40023800 	.word	0x40023800
 800173c:	40020c00 	.word	0x40020c00

08001740 <NMI_Handler>:
/******************************************************************************/
/**
  * @brief This function handles Non maskable interrupt.
  */
void NMI_Handler(void)
{
 8001740:	b480      	push	{r7}
 8001742:	af00      	add	r7, sp, #0
  /* USER CODE BEGIN NonMaskableInt_IRQn 0 */

  /* USER CODE END NonMaskableInt_IRQn 0 */
  /* USER CODE BEGIN NonMaskableInt_IRQn 1 */
   while (1)
 8001744:	bf00      	nop
 8001746:	e7fd      	b.n	8001744 <NMI_Handler+0x4>

08001748 <HardFault_Handler>:

/**
  * @brief This function handles Hard fault interrupt.
  */
void HardFault_Handler(void)
{
 8001748:	b480      	push	{r7}
 800174a:	af00      	add	r7, sp, #0
  /* USER CODE BEGIN HardFault_IRQn 0 */

  /* USER CODE END HardFault_IRQn 0 */
  while (1)
 800174c:	bf00      	nop
 800174e:	e7fd      	b.n	800174c <HardFault_Handler+0x4>

08001750 <MemManage_Handler>:

/**
  * @brief This function handles Memory management fault.
  */
void MemManage_Handler(void)
{
 8001750:	b480      	push	{r7}
 8001752:	af00      	add	r7, sp, #0
  /* USER CODE BEGIN MemoryManagement_IRQn 0 */

  /* USER CODE END MemoryManagement_IRQn 0 */
  while (1)
 8001754:	bf00      	nop
 8001756:	e7fd      	b.n	8001754 <MemManage_Handler+0x4>

08001758 <BusFault_Handler>:

/**
  * @brief This function handles Pre-fetch fault, memory access fault.
  */
void BusFault_Handler(void)
{
 8001758:	b480      	push	{r7}
 800175a:	af00      	add	r7, sp, #0
  /* USER CODE BEGIN BusFault_IRQn 0 */

  /* USER CODE END BusFault_IRQn 0 */
  while (1)
 800175c:	bf00      	nop
 800175e:	e7fd      	b.n	800175c <BusFault_Handler+0x4>

08001760 <UsageFault_Handler>:

/**
  * @brief This function handles Undefined instruction or illegal state.
  */
void UsageFault_Handler(void)
{
 8001760:	b480      	push	{r7}
 8001762:	af00      	add	r7, sp, #0
  /* USER CODE BEGIN UsageFault_IRQn 0 */

  /* USER CODE END UsageFault_IRQn 0 */
  while (1)
 8001764:	bf00      	nop
 8001766:	e7fd      	b.n	8001764 <UsageFault_Handler+0x4>

08001768 <SVC_Handler>:

/**
  * @brief This function handles System service call via SWI instruction.
  */
void SVC_Handler(void)
{
 8001768:	b480      	push	{r7}
 800176a:	af00      	add	r7, sp, #0

  /* USER CODE END SVCall_IRQn 0 */
  /* USER CODE BEGIN SVCall_IRQn 1 */

  /* USER CODE END SVCall_IRQn 1 */
}
 800176c:	bf00      	nop
 800176e:	46bd      	mov	sp, r7
 8001770:	f85d 7b04 	ldr.w	r7, [sp], #4
 8001774:	4770      	bx	lr

08001776 <DebugMon_Handler>:

/**
  * @brief This function handles Debug monitor.
  */
void DebugMon_Handler(void)
{
 8001776:	b480      	push	{r7}
 8001778:	af00      	add	r7, sp, #0

  /* USER CODE END DebugMonitor_IRQn 0 */
  /* USER CODE BEGIN DebugMonitor_IRQn 1 */

  /* USER CODE END DebugMonitor_IRQn 1 */
}
 800177a:	bf00      	nop
 800177c:	46bd      	mov	sp, r7
 800177e:	f85d 7b04 	ldr.w	r7, [sp], #4
 8001782:	4770      	bx	lr

08001784 <PendSV_Handler>:

/**
  * @brief This function handles Pendable request for system service.
  */
void PendSV_Handler(void)
{
 8001784:	b480      	push	{r7}
 8001786:	af00      	add	r7, sp, #0

  /* USER CODE END PendSV_IRQn 0 */
  /* USER CODE BEGIN PendSV_IRQn 1 */

  /* USER CODE END PendSV_IRQn 1 */
}
 8001788:	bf00      	nop
 800178a:	46bd      	mov	sp, r7
 800178c:	f85d 7b04 	ldr.w	r7, [sp], #4
 8001790:	4770      	bx	lr

08001792 <SysTick_Handler>:

/**
  * @brief This function handles System tick timer.
  */
void SysTick_Handler(void)
{
 8001792:	b580      	push	{r7, lr}
 8001794:	af00      	add	r7, sp, #0
  /* USER CODE BEGIN SysTick_IRQn 0 */

  /* USER CODE END SysTick_IRQn 0 */
  HAL_IncTick();
 8001796:	f000 fcdb 	bl	8002150 <HAL_IncTick>
  /* USER CODE BEGIN SysTick_IRQn 1 */

  /* USER CODE END SysTick_IRQn 1 */
}
 800179a:	bf00      	nop
 800179c:	bd80      	pop	{r7, pc}

0800179e <EXTI2_IRQHandler>:

/**
  * @brief This function handles EXTI line2 interrupt.
  */
void EXTI2_IRQHandler(void)
{
 800179e:	b580      	push	{r7, lr}
 80017a0:	af00      	add	r7, sp, #0
  /* USER CODE BEGIN EXTI2_IRQn 0 */

  /* USER CODE END EXTI2_IRQn 0 */
  HAL_GPIO_EXTI_IRQHandler(FA_CbitInterrupt_Pin);
 80017a2:	2004      	movs	r0, #4
 80017a4:	f001 fad4 	bl	8002d50 <HAL_GPIO_EXTI_IRQHandler>
  /* USER CODE BEGIN EXTI2_IRQn 1 */

  /* USER CODE END EXTI2_IRQn 1 */
}
 80017a8:	bf00      	nop
 80017aa:	bd80      	pop	{r7, pc}

080017ac <USART2_IRQHandler>:

/**
  * @brief This function handles USART2 global interrupt.
  */
void USART2_IRQHandler(void)
{
 80017ac:	b580      	push	{r7, lr}
 80017ae:	af00      	add	r7, sp, #0
  /* USER CODE BEGIN USART2_IRQn 0 */

  /* USER CODE END USART2_IRQn 0 */
  HAL_UART_IRQHandler(&huart2);
 80017b0:	4802      	ldr	r0, [pc, #8]	@ (80017bc <USART2_IRQHandler+0x10>)
 80017b2:	f002 ffc9 	bl	8004748 <HAL_UART_IRQHandler>
  /* USER CODE BEGIN USART2_IRQn 1 */

  /* USER CODE END USART2_IRQn 1 */
}
 80017b6:	bf00      	nop
 80017b8:	bd80      	pop	{r7, pc}
 80017ba:	bf00      	nop
 80017bc:	20000178 	.word	0x20000178

080017c0 <_sbrk>:
 *
 * @param incr Memory size
 * @return Pointer to allocated memory
 */
void *_sbrk(ptrdiff_t incr)
{
 80017c0:	b580      	push	{r7, lr}
 80017c2:	b086      	sub	sp, #24
 80017c4:	af00      	add	r7, sp, #0
 80017c6:	6078      	str	r0, [r7, #4]
  extern uint8_t _end; /* Symbol defined in the linker script */
  extern uint8_t _estack; /* Symbol defined in the linker script */
  extern uint32_t _Min_Stack_Size; /* Symbol defined in the linker script */
  const uint32_t stack_limit = (uint32_t)&_estack - (uint32_t)&_Min_Stack_Size;
 80017c8:	4a14      	ldr	r2, [pc, #80]	@ (800181c <_sbrk+0x5c>)
 80017ca:	4b15      	ldr	r3, [pc, #84]	@ (8001820 <_sbrk+0x60>)
 80017cc:	1ad3      	subs	r3, r2, r3
 80017ce:	617b      	str	r3, [r7, #20]
  const uint8_t *max_heap = (uint8_t *)stack_limit;
 80017d0:	697b      	ldr	r3, [r7, #20]
 80017d2:	613b      	str	r3, [r7, #16]
  uint8_t *prev_heap_end;

  /* Initialize heap end at first call */
  if (NULL == __sbrk_heap_end)
 80017d4:	4b13      	ldr	r3, [pc, #76]	@ (8001824 <_sbrk+0x64>)
 80017d6:	681b      	ldr	r3, [r3, #0]
 80017d8:	2b00      	cmp	r3, #0
 80017da:	d102      	bne.n	80017e2 <_sbrk+0x22>
  {
    __sbrk_heap_end = &_end;
 80017dc:	4b11      	ldr	r3, [pc, #68]	@ (8001824 <_sbrk+0x64>)
 80017de:	4a12      	ldr	r2, [pc, #72]	@ (8001828 <_sbrk+0x68>)
 80017e0:	601a      	str	r2, [r3, #0]
  }

  /* Protect heap from growing into the reserved MSP stack */
  if (__sbrk_heap_end + incr > max_heap)
 80017e2:	4b10      	ldr	r3, [pc, #64]	@ (8001824 <_sbrk+0x64>)
 80017e4:	681a      	ldr	r2, [r3, #0]
 80017e6:	687b      	ldr	r3, [r7, #4]
 80017e8:	4413      	add	r3, r2
 80017ea:	693a      	ldr	r2, [r7, #16]
 80017ec:	429a      	cmp	r2, r3
 80017ee:	d207      	bcs.n	8001800 <_sbrk+0x40>
  {
    errno = ENOMEM;
 80017f0:	f003 ff28 	bl	8005644 <__errno>
 80017f4:	4603      	mov	r3, r0
 80017f6:	220c      	movs	r2, #12
 80017f8:	601a      	str	r2, [r3, #0]
    return (void *)-1;
 80017fa:	f04f 33ff 	mov.w	r3, #4294967295
 80017fe:	e009      	b.n	8001814 <_sbrk+0x54>
  }

  prev_heap_end = __sbrk_heap_end;
 8001800:	4b08      	ldr	r3, [pc, #32]	@ (8001824 <_sbrk+0x64>)
 8001802:	681b      	ldr	r3, [r3, #0]
 8001804:	60fb      	str	r3, [r7, #12]
  __sbrk_heap_end += incr;
 8001806:	4b07      	ldr	r3, [pc, #28]	@ (8001824 <_sbrk+0x64>)
 8001808:	681a      	ldr	r2, [r3, #0]
 800180a:	687b      	ldr	r3, [r7, #4]
 800180c:	4413      	add	r3, r2
 800180e:	4a05      	ldr	r2, [pc, #20]	@ (8001824 <_sbrk+0x64>)
 8001810:	6013      	str	r3, [r2, #0]

  return (void *)prev_heap_end;
 8001812:	68fb      	ldr	r3, [r7, #12]
}
 8001814:	4618      	mov	r0, r3
 8001816:	3718      	adds	r7, #24
 8001818:	46bd      	mov	sp, r7
 800181a:	bd80      	pop	{r7, pc}
 800181c:	20020000 	.word	0x20020000
 8001820:	00000400 	.word	0x00000400
 8001824:	200001c0 	.word	0x200001c0
 8001828:	20000380 	.word	0x20000380

0800182c <SystemInit>:
  *         configuration.
  * @param  None
  * @retval None
  */
void SystemInit(void)
{
 800182c:	b480      	push	{r7}
 800182e:	af00      	add	r7, sp, #0
  /* FPU settings ------------------------------------------------------------*/
  #if (__FPU_PRESENT == 1) && (__FPU_USED == 1)
    SCB->CPACR |= ((3UL << 10*2)|(3UL << 11*2));  /* set CP10 and CP11 Full Access */
 8001830:	4b06      	ldr	r3, [pc, #24]	@ (800184c <SystemInit+0x20>)
 8001832:	f8d3 3088 	ldr.w	r3, [r3, #136]	@ 0x88
 8001836:	4a05      	ldr	r2, [pc, #20]	@ (800184c <SystemInit+0x20>)
 8001838:	f443 0370 	orr.w	r3, r3, #15728640	@ 0xf00000
 800183c:	f8c2 3088 	str.w	r3, [r2, #136]	@ 0x88

  /* Configure the Vector Table location -------------------------------------*/
#if defined(USER_VECT_TAB_ADDRESS)
  SCB->VTOR = VECT_TAB_BASE_ADDRESS | VECT_TAB_OFFSET; /* Vector Table Relocation in Internal SRAM */
#endif /* USER_VECT_TAB_ADDRESS */
}
 8001840:	bf00      	nop
 8001842:	46bd      	mov	sp, r7
 8001844:	f85d 7b04 	ldr.w	r7, [sp], #4
 8001848:	4770      	bx	lr
 800184a:	bf00      	nop
 800184c:	e000ed00 	.word	0xe000ed00

08001850 <Reset_Handler>:

    .section  .text.Reset_Handler
  .weak  Reset_Handler
  .type  Reset_Handler, %function
Reset_Handler:  
  ldr   sp, =_estack     /* set stack pointer */
 8001850:	f8df d034 	ldr.w	sp, [pc, #52]	@ 8001888 <LoopFillZerobss+0xe>
  
/* Call the clock system initialization function.*/
  bl  SystemInit  
 8001854:	f7ff ffea 	bl	800182c <SystemInit>

/* Copy the data segment initializers from flash to SRAM */  
  ldr r0, =_sdata
 8001858:	480c      	ldr	r0, [pc, #48]	@ (800188c <LoopFillZerobss+0x12>)
  ldr r1, =_edata
 800185a:	490d      	ldr	r1, [pc, #52]	@ (8001890 <LoopFillZerobss+0x16>)
  ldr r2, =_sidata
 800185c:	4a0d      	ldr	r2, [pc, #52]	@ (8001894 <LoopFillZerobss+0x1a>)
  movs r3, #0
 800185e:	2300      	movs	r3, #0
  b LoopCopyDataInit
 8001860:	e002      	b.n	8001868 <LoopCopyDataInit>

08001862 <CopyDataInit>:

CopyDataInit:
  ldr r4, [r2, r3]
 8001862:	58d4      	ldr	r4, [r2, r3]
  str r4, [r0, r3]
 8001864:	50c4      	str	r4, [r0, r3]
  adds r3, r3, #4
 8001866:	3304      	adds	r3, #4

08001868 <LoopCopyDataInit>:

LoopCopyDataInit:
  adds r4, r0, r3
 8001868:	18c4      	adds	r4, r0, r3
  cmp r4, r1
 800186a:	428c      	cmp	r4, r1
  bcc CopyDataInit
 800186c:	d3f9      	bcc.n	8001862 <CopyDataInit>
  
/* Zero fill the bss segment. */
  ldr r2, =_sbss
 800186e:	4a0a      	ldr	r2, [pc, #40]	@ (8001898 <LoopFillZerobss+0x1e>)
  ldr r4, =_ebss
 8001870:	4c0a      	ldr	r4, [pc, #40]	@ (800189c <LoopFillZerobss+0x22>)
  movs r3, #0
 8001872:	2300      	movs	r3, #0
  b LoopFillZerobss
 8001874:	e001      	b.n	800187a <LoopFillZerobss>

08001876 <FillZerobss>:

FillZerobss:
  str  r3, [r2]
 8001876:	6013      	str	r3, [r2, #0]
  adds r2, r2, #4
 8001878:	3204      	adds	r2, #4

0800187a <LoopFillZerobss>:

LoopFillZerobss:
  cmp r2, r4
 800187a:	42a2      	cmp	r2, r4
  bcc FillZerobss
 800187c:	d3fb      	bcc.n	8001876 <FillZerobss>

/* Call static constructors */
    bl __libc_init_array
 800187e:	f003 fee7 	bl	8005650 <__libc_init_array>
/* Call the application's entry point.*/
  bl  main
 8001882:	f7ff fa6b 	bl	8000d5c <main>
  bx  lr    
 8001886:	4770      	bx	lr
  ldr   sp, =_estack     /* set stack pointer */
 8001888:	20020000 	.word	0x20020000
  ldr r0, =_sdata
 800188c:	20000000 	.word	0x20000000
  ldr r1, =_edata
 8001890:	20000074 	.word	0x20000074
  ldr r2, =_sidata
 8001894:	08005fd4 	.word	0x08005fd4
  ldr r2, =_sbss
 8001898:	20000078 	.word	0x20000078
  ldr r4, =_ebss
 800189c:	20000380 	.word	0x20000380

080018a0 <ADC_IRQHandler>:
 * @retval None       
*/
    .section  .text.Default_Handler,"ax",%progbits
Default_Handler:
Infinite_Loop:
  b  Infinite_Loop
 80018a0:	e7fe      	b.n	80018a0 <ADC_IRQHandler>
	...

080018a4 <IMU_initialize>:
void Decode_IMU_Data(uint8_t IMU_Raw_Data_Buffer[11]);
void GyroOffset_Init(void);
void Imu_Error_Handler(void);

// Fonctions
void IMU_initialize(uint32_t Baudrate) {
 80018a4:	b580      	push	{r7, lr}
 80018a6:	b08a      	sub	sp, #40	@ 0x28
 80018a8:	af00      	add	r7, sp, #0
 80018aa:	6078      	str	r0, [r7, #4]

    GPIO_InitTypeDef GPIO_InitStruct = {0};
 80018ac:	f107 0314 	add.w	r3, r7, #20
 80018b0:	2200      	movs	r2, #0
 80018b2:	601a      	str	r2, [r3, #0]
 80018b4:	605a      	str	r2, [r3, #4]
 80018b6:	609a      	str	r2, [r3, #8]
 80018b8:	60da      	str	r2, [r3, #12]
 80018ba:	611a      	str	r2, [r3, #16]

    // Enable clocks
    __HAL_RCC_USART2_CLK_ENABLE();
 80018bc:	2300      	movs	r3, #0
 80018be:	60fb      	str	r3, [r7, #12]
 80018c0:	4b37      	ldr	r3, [pc, #220]	@ (80019a0 <IMU_initialize+0xfc>)
 80018c2:	6c1b      	ldr	r3, [r3, #64]	@ 0x40
 80018c4:	4a36      	ldr	r2, [pc, #216]	@ (80019a0 <IMU_initialize+0xfc>)
 80018c6:	f443 3300 	orr.w	r3, r3, #131072	@ 0x20000
 80018ca:	6413      	str	r3, [r2, #64]	@ 0x40
 80018cc:	4b34      	ldr	r3, [pc, #208]	@ (80019a0 <IMU_initialize+0xfc>)
 80018ce:	6c1b      	ldr	r3, [r3, #64]	@ 0x40
 80018d0:	f403 3300 	and.w	r3, r3, #131072	@ 0x20000
 80018d4:	60fb      	str	r3, [r7, #12]
 80018d6:	68fb      	ldr	r3, [r7, #12]
    __HAL_RCC_GPIOD_CLK_ENABLE();
 80018d8:	2300      	movs	r3, #0
 80018da:	60bb      	str	r3, [r7, #8]
 80018dc:	4b30      	ldr	r3, [pc, #192]	@ (80019a0 <IMU_initialize+0xfc>)
 80018de:	6b1b      	ldr	r3, [r3, #48]	@ 0x30
 80018e0:	4a2f      	ldr	r2, [pc, #188]	@ (80019a0 <IMU_initialize+0xfc>)
 80018e2:	f043 0308 	orr.w	r3, r3, #8
 80018e6:	6313      	str	r3, [r2, #48]	@ 0x30
 80018e8:	4b2d      	ldr	r3, [pc, #180]	@ (80019a0 <IMU_initialize+0xfc>)
 80018ea:	6b1b      	ldr	r3, [r3, #48]	@ 0x30
 80018ec:	f003 0308 	and.w	r3, r3, #8
 80018f0:	60bb      	str	r3, [r7, #8]
 80018f2:	68bb      	ldr	r3, [r7, #8]

    // Configure GPIO for USART2
    GPIO_InitStruct.Pin = GPIO_PIN_5 | GPIO_PIN_6;
 80018f4:	2360      	movs	r3, #96	@ 0x60
 80018f6:	617b      	str	r3, [r7, #20]
    GPIO_InitStruct.Mode = GPIO_MODE_AF_PP;
 80018f8:	2302      	movs	r3, #2
 80018fa:	61bb      	str	r3, [r7, #24]
    GPIO_InitStruct.Pull = GPIO_PULLUP;
 80018fc:	2301      	movs	r3, #1
 80018fe:	61fb      	str	r3, [r7, #28]
    GPIO_InitStruct.Speed = GPIO_SPEED_FREQ_VERY_HIGH;
 8001900:	2303      	movs	r3, #3
 8001902:	623b      	str	r3, [r7, #32]
    GPIO_InitStruct.Alternate = GPIO_AF7_USART2;
 8001904:	2307      	movs	r3, #7
 8001906:	627b      	str	r3, [r7, #36]	@ 0x24
    HAL_GPIO_Init(GPIOD, &GPIO_InitStruct);
 8001908:	f107 0314 	add.w	r3, r7, #20
 800190c:	4619      	mov	r1, r3
 800190e:	4825      	ldr	r0, [pc, #148]	@ (80019a4 <IMU_initialize+0x100>)
 8001910:	f001 f868 	bl	80029e4 <HAL_GPIO_Init>

    // Configure USART2
    huart2.Instance = USART2;
 8001914:	4b24      	ldr	r3, [pc, #144]	@ (80019a8 <IMU_initialize+0x104>)
 8001916:	4a25      	ldr	r2, [pc, #148]	@ (80019ac <IMU_initialize+0x108>)
 8001918:	601a      	str	r2, [r3, #0]
    huart2.Init.BaudRate = Baudrate;
 800191a:	4a23      	ldr	r2, [pc, #140]	@ (80019a8 <IMU_initialize+0x104>)
 800191c:	687b      	ldr	r3, [r7, #4]
 800191e:	6053      	str	r3, [r2, #4]
    huart2.Init.WordLength = UART_WORDLENGTH_8B;
 8001920:	4b21      	ldr	r3, [pc, #132]	@ (80019a8 <IMU_initialize+0x104>)
 8001922:	2200      	movs	r2, #0
 8001924:	609a      	str	r2, [r3, #8]
    huart2.Init.StopBits = UART_STOPBITS_1;
 8001926:	4b20      	ldr	r3, [pc, #128]	@ (80019a8 <IMU_initialize+0x104>)
 8001928:	2200      	movs	r2, #0
 800192a:	60da      	str	r2, [r3, #12]
    huart2.Init.Parity = UART_PARITY_NONE;
 800192c:	4b1e      	ldr	r3, [pc, #120]	@ (80019a8 <IMU_initialize+0x104>)
 800192e:	2200      	movs	r2, #0
 8001930:	611a      	str	r2, [r3, #16]
    huart2.Init.Mode = UART_MODE_TX_RX;
 8001932:	4b1d      	ldr	r3, [pc, #116]	@ (80019a8 <IMU_initialize+0x104>)
 8001934:	220c      	movs	r2, #12
 8001936:	615a      	str	r2, [r3, #20]
    huart2.Init.HwFlowCtl = UART_HWCONTROL_NONE;
 8001938:	4b1b      	ldr	r3, [pc, #108]	@ (80019a8 <IMU_initialize+0x104>)
 800193a:	2200      	movs	r2, #0
 800193c:	619a      	str	r2, [r3, #24]
    huart2.Init.OverSampling = UART_OVERSAMPLING_16;
 800193e:	4b1a      	ldr	r3, [pc, #104]	@ (80019a8 <IMU_initialize+0x104>)
 8001940:	2200      	movs	r2, #0
 8001942:	61da      	str	r2, [r3, #28]

    if (HAL_UART_Init(&huart2) != HAL_OK) {
 8001944:	4818      	ldr	r0, [pc, #96]	@ (80019a8 <IMU_initialize+0x104>)
 8001946:	f002 fd67 	bl	8004418 <HAL_UART_Init>
 800194a:	4603      	mov	r3, r0
 800194c:	2b00      	cmp	r3, #0
 800194e:	d001      	beq.n	8001954 <IMU_initialize+0xb0>
        // Initialization Error
        Imu_Error_Handler();
 8001950:	f000 fa3e 	bl	8001dd0 <Imu_Error_Handler>
    }

    // Enable the UART Data Register not empty Interrupt
    __HAL_UART_ENABLE_IT(&huart2, UART_IT_RXNE);
 8001954:	4b14      	ldr	r3, [pc, #80]	@ (80019a8 <IMU_initialize+0x104>)
 8001956:	681b      	ldr	r3, [r3, #0]
 8001958:	68da      	ldr	r2, [r3, #12]
 800195a:	4b13      	ldr	r3, [pc, #76]	@ (80019a8 <IMU_initialize+0x104>)
 800195c:	681b      	ldr	r3, [r3, #0]
 800195e:	f042 0220 	orr.w	r2, r2, #32
 8001962:	60da      	str	r2, [r3, #12]

    // Configure NVIC for USART
    HAL_NVIC_SetPriority(USART2_IRQn, 0, 1);
 8001964:	2201      	movs	r2, #1
 8001966:	2100      	movs	r1, #0
 8001968:	2026      	movs	r0, #38	@ 0x26
 800196a:	f000 ff72 	bl	8002852 <HAL_NVIC_SetPriority>
    HAL_NVIC_EnableIRQ(USART2_IRQn);
 800196e:	2026      	movs	r0, #38	@ 0x26
 8001970:	f000 ff8b 	bl	800288a <HAL_NVIC_EnableIRQ>

    // Send initial commands to IMU
    char gyro_reset[3] = {0xFF, 0xAA, 0x52}; // Angle initialization Z-axis to zero
 8001974:	4a0e      	ldr	r2, [pc, #56]	@ (80019b0 <IMU_initialize+0x10c>)
 8001976:	f107 0310 	add.w	r3, r7, #16
 800197a:	6812      	ldr	r2, [r2, #0]
 800197c:	4611      	mov	r1, r2
 800197e:	8019      	strh	r1, [r3, #0]
 8001980:	3302      	adds	r3, #2
 8001982:	0c12      	lsrs	r2, r2, #16
 8001984:	701a      	strb	r2, [r3, #0]

    HAL_UART_Transmit(&huart2, (uint8_t *)gyro_reset, sizeof(gyro_reset), HAL_MAX_DELAY);
 8001986:	f107 0110 	add.w	r1, r7, #16
 800198a:	f04f 33ff 	mov.w	r3, #4294967295
 800198e:	2203      	movs	r2, #3
 8001990:	4805      	ldr	r0, [pc, #20]	@ (80019a8 <IMU_initialize+0x104>)
 8001992:	f002 fd91 	bl	80044b8 <HAL_UART_Transmit>

}
 8001996:	bf00      	nop
 8001998:	3728      	adds	r7, #40	@ 0x28
 800199a:	46bd      	mov	sp, r7
 800199c:	bd80      	pop	{r7, pc}
 800199e:	bf00      	nop
 80019a0:	40023800 	.word	0x40023800
 80019a4:	40020c00 	.word	0x40020c00
 80019a8:	20000178 	.word	0x20000178
 80019ac:	40004400 	.word	0x40004400
 80019b0:	08005f6c 	.word	0x08005f6c

080019b4 <HAL_UART_RxCpltCallback>:

void HAL_UART_RxCpltCallback(UART_HandleTypeDef *huart) {
 80019b4:	b580      	push	{r7, lr}
 80019b6:	b082      	sub	sp, #8
 80019b8:	af00      	add	r7, sp, #0
 80019ba:	6078      	str	r0, [r7, #4]
	HAL_GPIO_WritePin(GPIOA, GPIO_PIN_0, GPIO_PIN_SET);
 80019bc:	2201      	movs	r2, #1
 80019be:	2101      	movs	r1, #1
 80019c0:	481b      	ldr	r0, [pc, #108]	@ (8001a30 <HAL_UART_RxCpltCallback+0x7c>)
 80019c2:	f001 f9ab 	bl	8002d1c <HAL_GPIO_WritePin>

	if(huart->Instance == USART2) {
 80019c6:	687b      	ldr	r3, [r7, #4]
 80019c8:	681b      	ldr	r3, [r3, #0]
 80019ca:	4a1a      	ldr	r2, [pc, #104]	@ (8001a34 <HAL_UART_RxCpltCallback+0x80>)
 80019cc:	4293      	cmp	r3, r2
 80019ce:	d12c      	bne.n	8001a2a <HAL_UART_RxCpltCallback+0x76>
        IMU_Raw_Data_Buffer[IMU_Data_Buffer_counter] = (char)(huart->Instance->DR & (uint8_t)0x00FF);
 80019d0:	687b      	ldr	r3, [r7, #4]
 80019d2:	681b      	ldr	r3, [r3, #0]
 80019d4:	6859      	ldr	r1, [r3, #4]
 80019d6:	4b18      	ldr	r3, [pc, #96]	@ (8001a38 <HAL_UART_RxCpltCallback+0x84>)
 80019d8:	781b      	ldrb	r3, [r3, #0]
 80019da:	461a      	mov	r2, r3
 80019dc:	b2c9      	uxtb	r1, r1
 80019de:	4b17      	ldr	r3, [pc, #92]	@ (8001a3c <HAL_UART_RxCpltCallback+0x88>)
 80019e0:	5499      	strb	r1, [r3, r2]

        if(IMU_Data_Buffer_counter == 0 && IMU_Raw_Data_Buffer[0] != 0x55) return;
 80019e2:	4b15      	ldr	r3, [pc, #84]	@ (8001a38 <HAL_UART_RxCpltCallback+0x84>)
 80019e4:	781b      	ldrb	r3, [r3, #0]
 80019e6:	2b00      	cmp	r3, #0
 80019e8:	d103      	bne.n	80019f2 <HAL_UART_RxCpltCallback+0x3e>
 80019ea:	4b14      	ldr	r3, [pc, #80]	@ (8001a3c <HAL_UART_RxCpltCallback+0x88>)
 80019ec:	781b      	ldrb	r3, [r3, #0]
 80019ee:	2b55      	cmp	r3, #85	@ 0x55
 80019f0:	d11a      	bne.n	8001a28 <HAL_UART_RxCpltCallback+0x74>

        IMU_Data_Buffer_counter++;
 80019f2:	4b11      	ldr	r3, [pc, #68]	@ (8001a38 <HAL_UART_RxCpltCallback+0x84>)
 80019f4:	781b      	ldrb	r3, [r3, #0]
 80019f6:	3301      	adds	r3, #1
 80019f8:	b2da      	uxtb	r2, r3
 80019fa:	4b0f      	ldr	r3, [pc, #60]	@ (8001a38 <HAL_UART_RxCpltCallback+0x84>)
 80019fc:	701a      	strb	r2, [r3, #0]

        if(IMU_Data_Buffer_counter == 11) {
 80019fe:	4b0e      	ldr	r3, [pc, #56]	@ (8001a38 <HAL_UART_RxCpltCallback+0x84>)
 8001a00:	781b      	ldrb	r3, [r3, #0]
 8001a02:	2b0b      	cmp	r3, #11
 8001a04:	d105      	bne.n	8001a12 <HAL_UART_RxCpltCallback+0x5e>
            IMU_Data_Buffer_counter = 0;
 8001a06:	4b0c      	ldr	r3, [pc, #48]	@ (8001a38 <HAL_UART_RxCpltCallback+0x84>)
 8001a08:	2200      	movs	r2, #0
 8001a0a:	701a      	strb	r2, [r3, #0]
            Decode_IMU_Data(IMU_Raw_Data_Buffer);
 8001a0c:	480b      	ldr	r0, [pc, #44]	@ (8001a3c <HAL_UART_RxCpltCallback+0x88>)
 8001a0e:	f000 f819 	bl	8001a44 <Decode_IMU_Data>
        }

        // Enable reception again
        HAL_UART_Receive_IT(&huart2, (uint8_t*)&IMU_Raw_Data_Buffer[IMU_Data_Buffer_counter], 1);
 8001a12:	4b09      	ldr	r3, [pc, #36]	@ (8001a38 <HAL_UART_RxCpltCallback+0x84>)
 8001a14:	781b      	ldrb	r3, [r3, #0]
 8001a16:	461a      	mov	r2, r3
 8001a18:	4b08      	ldr	r3, [pc, #32]	@ (8001a3c <HAL_UART_RxCpltCallback+0x88>)
 8001a1a:	4413      	add	r3, r2
 8001a1c:	2201      	movs	r2, #1
 8001a1e:	4619      	mov	r1, r3
 8001a20:	4807      	ldr	r0, [pc, #28]	@ (8001a40 <HAL_UART_RxCpltCallback+0x8c>)
 8001a22:	f002 fe6b 	bl	80046fc <HAL_UART_Receive_IT>
 8001a26:	e000      	b.n	8001a2a <HAL_UART_RxCpltCallback+0x76>
        if(IMU_Data_Buffer_counter == 0 && IMU_Raw_Data_Buffer[0] != 0x55) return;
 8001a28:	bf00      	nop
    }
}
 8001a2a:	3708      	adds	r7, #8
 8001a2c:	46bd      	mov	sp, r7
 8001a2e:	bd80      	pop	{r7, pc}
 8001a30:	40020000 	.word	0x40020000
 8001a34:	40004400 	.word	0x40004400
 8001a38:	200001cf 	.word	0x200001cf
 8001a3c:	200001c4 	.word	0x200001c4
 8001a40:	20000178 	.word	0x20000178

08001a44 <Decode_IMU_Data>:

void Decode_IMU_Data(uint8_t IMU_Raw_Data_Buffer[11]) {
 8001a44:	e92d 4fb0 	stmdb	sp!, {r4, r5, r7, r8, r9, sl, fp, lr}
 8001a48:	b088      	sub	sp, #32
 8001a4a:	af00      	add	r7, sp, #0
 8001a4c:	6078      	str	r0, [r7, #4]
    if(IMU_Raw_Data_Buffer[0] == 0x55) {
 8001a4e:	687b      	ldr	r3, [r7, #4]
 8001a50:	781b      	ldrb	r3, [r3, #0]
 8001a52:	2b55      	cmp	r3, #85	@ 0x55
 8001a54:	f040 81a3 	bne.w	8001d9e <Decode_IMU_Data+0x35a>
        int16_t temp_a[3] = {0, 0, 0};
 8001a58:	2300      	movs	r3, #0
 8001a5a:	833b      	strh	r3, [r7, #24]
 8001a5c:	2300      	movs	r3, #0
 8001a5e:	837b      	strh	r3, [r7, #26]
 8001a60:	2300      	movs	r3, #0
 8001a62:	83bb      	strh	r3, [r7, #28]
        int16_t temp_w[3] = {0, 0, 0};
 8001a64:	2300      	movs	r3, #0
 8001a66:	823b      	strh	r3, [r7, #16]
 8001a68:	2300      	movs	r3, #0
 8001a6a:	827b      	strh	r3, [r7, #18]
 8001a6c:	2300      	movs	r3, #0
 8001a6e:	82bb      	strh	r3, [r7, #20]
        int16_t temp_angle[3] = {0, 0, 0};
 8001a70:	2300      	movs	r3, #0
 8001a72:	813b      	strh	r3, [r7, #8]
 8001a74:	2300      	movs	r3, #0
 8001a76:	817b      	strh	r3, [r7, #10]
 8001a78:	2300      	movs	r3, #0
 8001a7a:	81bb      	strh	r3, [r7, #12]

        switch(IMU_Raw_Data_Buffer[1]) {
 8001a7c:	687b      	ldr	r3, [r7, #4]
 8001a7e:	3301      	adds	r3, #1
 8001a80:	781b      	ldrb	r3, [r3, #0]
 8001a82:	2b53      	cmp	r3, #83	@ 0x53
 8001a84:	f000 8109 	beq.w	8001c9a <Decode_IMU_Data+0x256>
 8001a88:	2b53      	cmp	r3, #83	@ 0x53
 8001a8a:	f300 8188 	bgt.w	8001d9e <Decode_IMU_Data+0x35a>
 8001a8e:	2b51      	cmp	r3, #81	@ 0x51
 8001a90:	d002      	beq.n	8001a98 <Decode_IMU_Data+0x54>
 8001a92:	2b52      	cmp	r3, #82	@ 0x52
 8001a94:	d06d      	beq.n	8001b72 <Decode_IMU_Data+0x12e>
                angle[1] = -(((double)temp_angle[1]) * 180.0 / 32768.0) + 90.0;
                angle[2] = -(((double)temp_angle[2]) * 180.0 / 32768.0) + 90.0;
                break;
        }
    }
}
 8001a96:	e182      	b.n	8001d9e <Decode_IMU_Data+0x35a>
                temp_a[0] = ((int16_t)IMU_Raw_Data_Buffer[3] << 8) | (int16_t)IMU_Raw_Data_Buffer[2];
 8001a98:	687b      	ldr	r3, [r7, #4]
 8001a9a:	3303      	adds	r3, #3
 8001a9c:	781b      	ldrb	r3, [r3, #0]
 8001a9e:	021b      	lsls	r3, r3, #8
 8001aa0:	b21a      	sxth	r2, r3
 8001aa2:	687b      	ldr	r3, [r7, #4]
 8001aa4:	3302      	adds	r3, #2
 8001aa6:	781b      	ldrb	r3, [r3, #0]
 8001aa8:	b21b      	sxth	r3, r3
 8001aaa:	4313      	orrs	r3, r2
 8001aac:	b21b      	sxth	r3, r3
 8001aae:	833b      	strh	r3, [r7, #24]
                temp_a[1] = ((int16_t)IMU_Raw_Data_Buffer[5] << 8) | (int16_t)IMU_Raw_Data_Buffer[4];
 8001ab0:	687b      	ldr	r3, [r7, #4]
 8001ab2:	3305      	adds	r3, #5
 8001ab4:	781b      	ldrb	r3, [r3, #0]
 8001ab6:	021b      	lsls	r3, r3, #8
 8001ab8:	b21a      	sxth	r2, r3
 8001aba:	687b      	ldr	r3, [r7, #4]
 8001abc:	3304      	adds	r3, #4
 8001abe:	781b      	ldrb	r3, [r3, #0]
 8001ac0:	b21b      	sxth	r3, r3
 8001ac2:	4313      	orrs	r3, r2
 8001ac4:	b21b      	sxth	r3, r3
 8001ac6:	837b      	strh	r3, [r7, #26]
                temp_a[2] = ((int16_t)IMU_Raw_Data_Buffer[7] << 8) | (int16_t)IMU_Raw_Data_Buffer[6];
 8001ac8:	687b      	ldr	r3, [r7, #4]
 8001aca:	3307      	adds	r3, #7
 8001acc:	781b      	ldrb	r3, [r3, #0]
 8001ace:	021b      	lsls	r3, r3, #8
 8001ad0:	b21a      	sxth	r2, r3
 8001ad2:	687b      	ldr	r3, [r7, #4]
 8001ad4:	3306      	adds	r3, #6
 8001ad6:	781b      	ldrb	r3, [r3, #0]
 8001ad8:	b21b      	sxth	r3, r3
 8001ada:	4313      	orrs	r3, r2
 8001adc:	b21b      	sxth	r3, r3
 8001ade:	83bb      	strh	r3, [r7, #28]
                acc[0] = ((double)temp_a[0]) * 16 / 32768.0;
 8001ae0:	f9b7 3018 	ldrsh.w	r3, [r7, #24]
 8001ae4:	4618      	mov	r0, r3
 8001ae6:	f7fe fd1d 	bl	8000524 <__aeabi_i2d>
 8001aea:	f04f 0200 	mov.w	r2, #0
 8001aee:	4bae      	ldr	r3, [pc, #696]	@ (8001da8 <Decode_IMU_Data+0x364>)
 8001af0:	f7fe fd82 	bl	80005f8 <__aeabi_dmul>
 8001af4:	4602      	mov	r2, r0
 8001af6:	460b      	mov	r3, r1
 8001af8:	4610      	mov	r0, r2
 8001afa:	4619      	mov	r1, r3
 8001afc:	f04f 0200 	mov.w	r2, #0
 8001b00:	4baa      	ldr	r3, [pc, #680]	@ (8001dac <Decode_IMU_Data+0x368>)
 8001b02:	f7fe fea3 	bl	800084c <__aeabi_ddiv>
 8001b06:	4602      	mov	r2, r0
 8001b08:	460b      	mov	r3, r1
 8001b0a:	49a9      	ldr	r1, [pc, #676]	@ (8001db0 <Decode_IMU_Data+0x36c>)
 8001b0c:	e9c1 2300 	strd	r2, r3, [r1]
                acc[1] = ((double)temp_a[1]) * 16 / 32768.0;
 8001b10:	f9b7 301a 	ldrsh.w	r3, [r7, #26]
 8001b14:	4618      	mov	r0, r3
 8001b16:	f7fe fd05 	bl	8000524 <__aeabi_i2d>
 8001b1a:	f04f 0200 	mov.w	r2, #0
 8001b1e:	4ba2      	ldr	r3, [pc, #648]	@ (8001da8 <Decode_IMU_Data+0x364>)
 8001b20:	f7fe fd6a 	bl	80005f8 <__aeabi_dmul>
 8001b24:	4602      	mov	r2, r0
 8001b26:	460b      	mov	r3, r1
 8001b28:	4610      	mov	r0, r2
 8001b2a:	4619      	mov	r1, r3
 8001b2c:	f04f 0200 	mov.w	r2, #0
 8001b30:	4b9e      	ldr	r3, [pc, #632]	@ (8001dac <Decode_IMU_Data+0x368>)
 8001b32:	f7fe fe8b 	bl	800084c <__aeabi_ddiv>
 8001b36:	4602      	mov	r2, r0
 8001b38:	460b      	mov	r3, r1
 8001b3a:	499d      	ldr	r1, [pc, #628]	@ (8001db0 <Decode_IMU_Data+0x36c>)
 8001b3c:	e9c1 2302 	strd	r2, r3, [r1, #8]
                acc[2] = ((double)temp_a[2]) * 16 / 32768.0;
 8001b40:	f9b7 301c 	ldrsh.w	r3, [r7, #28]
 8001b44:	4618      	mov	r0, r3
 8001b46:	f7fe fced 	bl	8000524 <__aeabi_i2d>
 8001b4a:	f04f 0200 	mov.w	r2, #0
 8001b4e:	4b96      	ldr	r3, [pc, #600]	@ (8001da8 <Decode_IMU_Data+0x364>)
 8001b50:	f7fe fd52 	bl	80005f8 <__aeabi_dmul>
 8001b54:	4602      	mov	r2, r0
 8001b56:	460b      	mov	r3, r1
 8001b58:	4610      	mov	r0, r2
 8001b5a:	4619      	mov	r1, r3
 8001b5c:	f04f 0200 	mov.w	r2, #0
 8001b60:	4b92      	ldr	r3, [pc, #584]	@ (8001dac <Decode_IMU_Data+0x368>)
 8001b62:	f7fe fe73 	bl	800084c <__aeabi_ddiv>
 8001b66:	4602      	mov	r2, r0
 8001b68:	460b      	mov	r3, r1
 8001b6a:	4991      	ldr	r1, [pc, #580]	@ (8001db0 <Decode_IMU_Data+0x36c>)
 8001b6c:	e9c1 2304 	strd	r2, r3, [r1, #16]
                break;
 8001b70:	e115      	b.n	8001d9e <Decode_IMU_Data+0x35a>
                temp_w[0] = ((int16_t)IMU_Raw_Data_Buffer[3] << 8) | (int16_t)IMU_Raw_Data_Buffer[2];
 8001b72:	687b      	ldr	r3, [r7, #4]
 8001b74:	3303      	adds	r3, #3
 8001b76:	781b      	ldrb	r3, [r3, #0]
 8001b78:	021b      	lsls	r3, r3, #8
 8001b7a:	b21a      	sxth	r2, r3
 8001b7c:	687b      	ldr	r3, [r7, #4]
 8001b7e:	3302      	adds	r3, #2
 8001b80:	781b      	ldrb	r3, [r3, #0]
 8001b82:	b21b      	sxth	r3, r3
 8001b84:	4313      	orrs	r3, r2
 8001b86:	b21b      	sxth	r3, r3
 8001b88:	823b      	strh	r3, [r7, #16]
                temp_w[1] = ((int16_t)IMU_Raw_Data_Buffer[5] << 8) | (int16_t)IMU_Raw_Data_Buffer[4];
 8001b8a:	687b      	ldr	r3, [r7, #4]
 8001b8c:	3305      	adds	r3, #5
 8001b8e:	781b      	ldrb	r3, [r3, #0]
 8001b90:	021b      	lsls	r3, r3, #8
 8001b92:	b21a      	sxth	r2, r3
 8001b94:	687b      	ldr	r3, [r7, #4]
 8001b96:	3304      	adds	r3, #4
 8001b98:	781b      	ldrb	r3, [r3, #0]
 8001b9a:	b21b      	sxth	r3, r3
 8001b9c:	4313      	orrs	r3, r2
 8001b9e:	b21b      	sxth	r3, r3
 8001ba0:	827b      	strh	r3, [r7, #18]
                temp_w[2] = ((int16_t)IMU_Raw_Data_Buffer[7] << 8) | (int16_t)IMU_Raw_Data_Buffer[6];
 8001ba2:	687b      	ldr	r3, [r7, #4]
 8001ba4:	3307      	adds	r3, #7
 8001ba6:	781b      	ldrb	r3, [r3, #0]
 8001ba8:	021b      	lsls	r3, r3, #8
 8001baa:	b21a      	sxth	r2, r3
 8001bac:	687b      	ldr	r3, [r7, #4]
 8001bae:	3306      	adds	r3, #6
 8001bb0:	781b      	ldrb	r3, [r3, #0]
 8001bb2:	b21b      	sxth	r3, r3
 8001bb4:	4313      	orrs	r3, r2
 8001bb6:	b21b      	sxth	r3, r3
 8001bb8:	82bb      	strh	r3, [r7, #20]
                gyro[0] = -(((double)temp_w[0]) * 2000.0 / 32768.0) - gyro_offset[0];
 8001bba:	f9b7 3010 	ldrsh.w	r3, [r7, #16]
 8001bbe:	4618      	mov	r0, r3
 8001bc0:	f7fe fcb0 	bl	8000524 <__aeabi_i2d>
 8001bc4:	f04f 0200 	mov.w	r2, #0
 8001bc8:	4b7a      	ldr	r3, [pc, #488]	@ (8001db4 <Decode_IMU_Data+0x370>)
 8001bca:	f7fe fd15 	bl	80005f8 <__aeabi_dmul>
 8001bce:	4602      	mov	r2, r0
 8001bd0:	460b      	mov	r3, r1
 8001bd2:	4610      	mov	r0, r2
 8001bd4:	4619      	mov	r1, r3
 8001bd6:	f04f 0200 	mov.w	r2, #0
 8001bda:	4b74      	ldr	r3, [pc, #464]	@ (8001dac <Decode_IMU_Data+0x368>)
 8001bdc:	f7fe fe36 	bl	800084c <__aeabi_ddiv>
 8001be0:	4602      	mov	r2, r0
 8001be2:	460b      	mov	r3, r1
 8001be4:	4692      	mov	sl, r2
 8001be6:	f083 4b00 	eor.w	fp, r3, #2147483648	@ 0x80000000
 8001bea:	4b73      	ldr	r3, [pc, #460]	@ (8001db8 <Decode_IMU_Data+0x374>)
 8001bec:	e9d3 2300 	ldrd	r2, r3, [r3]
 8001bf0:	4650      	mov	r0, sl
 8001bf2:	4659      	mov	r1, fp
 8001bf4:	f7fe fb48 	bl	8000288 <__aeabi_dsub>
 8001bf8:	4602      	mov	r2, r0
 8001bfa:	460b      	mov	r3, r1
 8001bfc:	496f      	ldr	r1, [pc, #444]	@ (8001dbc <Decode_IMU_Data+0x378>)
 8001bfe:	e9c1 2300 	strd	r2, r3, [r1]
                gyro[1] = -(((double)temp_w[1]) * 2000.0 / 32768.0) - gyro_offset[1];
 8001c02:	f9b7 3012 	ldrsh.w	r3, [r7, #18]
 8001c06:	4618      	mov	r0, r3
 8001c08:	f7fe fc8c 	bl	8000524 <__aeabi_i2d>
 8001c0c:	f04f 0200 	mov.w	r2, #0
 8001c10:	4b68      	ldr	r3, [pc, #416]	@ (8001db4 <Decode_IMU_Data+0x370>)
 8001c12:	f7fe fcf1 	bl	80005f8 <__aeabi_dmul>
 8001c16:	4602      	mov	r2, r0
 8001c18:	460b      	mov	r3, r1
 8001c1a:	4610      	mov	r0, r2
 8001c1c:	4619      	mov	r1, r3
 8001c1e:	f04f 0200 	mov.w	r2, #0
 8001c22:	4b62      	ldr	r3, [pc, #392]	@ (8001dac <Decode_IMU_Data+0x368>)
 8001c24:	f7fe fe12 	bl	800084c <__aeabi_ddiv>
 8001c28:	4602      	mov	r2, r0
 8001c2a:	460b      	mov	r3, r1
 8001c2c:	4690      	mov	r8, r2
 8001c2e:	f083 4900 	eor.w	r9, r3, #2147483648	@ 0x80000000
 8001c32:	4b61      	ldr	r3, [pc, #388]	@ (8001db8 <Decode_IMU_Data+0x374>)
 8001c34:	e9d3 2302 	ldrd	r2, r3, [r3, #8]
 8001c38:	4640      	mov	r0, r8
 8001c3a:	4649      	mov	r1, r9
 8001c3c:	f7fe fb24 	bl	8000288 <__aeabi_dsub>
 8001c40:	4602      	mov	r2, r0
 8001c42:	460b      	mov	r3, r1
 8001c44:	495d      	ldr	r1, [pc, #372]	@ (8001dbc <Decode_IMU_Data+0x378>)
 8001c46:	e9c1 2302 	strd	r2, r3, [r1, #8]
                gyro[2] = -(((double)temp_w[2]) * 2000.0 / 32768.0) - gyro_offset[2];
 8001c4a:	f9b7 3014 	ldrsh.w	r3, [r7, #20]
 8001c4e:	4618      	mov	r0, r3
 8001c50:	f7fe fc68 	bl	8000524 <__aeabi_i2d>
 8001c54:	f04f 0200 	mov.w	r2, #0
 8001c58:	4b56      	ldr	r3, [pc, #344]	@ (8001db4 <Decode_IMU_Data+0x370>)
 8001c5a:	f7fe fccd 	bl	80005f8 <__aeabi_dmul>
 8001c5e:	4602      	mov	r2, r0
 8001c60:	460b      	mov	r3, r1
 8001c62:	4610      	mov	r0, r2
 8001c64:	4619      	mov	r1, r3
 8001c66:	f04f 0200 	mov.w	r2, #0
 8001c6a:	4b50      	ldr	r3, [pc, #320]	@ (8001dac <Decode_IMU_Data+0x368>)
 8001c6c:	f7fe fdee 	bl	800084c <__aeabi_ddiv>
 8001c70:	4602      	mov	r2, r0
 8001c72:	460b      	mov	r3, r1
 8001c74:	4614      	mov	r4, r2
 8001c76:	f083 4500 	eor.w	r5, r3, #2147483648	@ 0x80000000
 8001c7a:	4b4f      	ldr	r3, [pc, #316]	@ (8001db8 <Decode_IMU_Data+0x374>)
 8001c7c:	e9d3 2304 	ldrd	r2, r3, [r3, #16]
 8001c80:	4620      	mov	r0, r4
 8001c82:	4629      	mov	r1, r5
 8001c84:	f7fe fb00 	bl	8000288 <__aeabi_dsub>
 8001c88:	4602      	mov	r2, r0
 8001c8a:	460b      	mov	r3, r1
 8001c8c:	494b      	ldr	r1, [pc, #300]	@ (8001dbc <Decode_IMU_Data+0x378>)
 8001c8e:	e9c1 2304 	strd	r2, r3, [r1, #16]
                _GyroValueUpdated = 1;
 8001c92:	4b4b      	ldr	r3, [pc, #300]	@ (8001dc0 <Decode_IMU_Data+0x37c>)
 8001c94:	2201      	movs	r2, #1
 8001c96:	601a      	str	r2, [r3, #0]
                break;
 8001c98:	e081      	b.n	8001d9e <Decode_IMU_Data+0x35a>
                temp_angle[0] = ((int16_t)IMU_Raw_Data_Buffer[3] << 8) | (int16_t)IMU_Raw_Data_Buffer[2];
 8001c9a:	687b      	ldr	r3, [r7, #4]
 8001c9c:	3303      	adds	r3, #3
 8001c9e:	781b      	ldrb	r3, [r3, #0]
 8001ca0:	021b      	lsls	r3, r3, #8
 8001ca2:	b21a      	sxth	r2, r3
 8001ca4:	687b      	ldr	r3, [r7, #4]
 8001ca6:	3302      	adds	r3, #2
 8001ca8:	781b      	ldrb	r3, [r3, #0]
 8001caa:	b21b      	sxth	r3, r3
 8001cac:	4313      	orrs	r3, r2
 8001cae:	b21b      	sxth	r3, r3
 8001cb0:	813b      	strh	r3, [r7, #8]
                temp_angle[1] = ((int16_t)IMU_Raw_Data_Buffer[5] << 8) | (int16_t)IMU_Raw_Data_Buffer[4];
 8001cb2:	687b      	ldr	r3, [r7, #4]
 8001cb4:	3305      	adds	r3, #5
 8001cb6:	781b      	ldrb	r3, [r3, #0]
 8001cb8:	021b      	lsls	r3, r3, #8
 8001cba:	b21a      	sxth	r2, r3
 8001cbc:	687b      	ldr	r3, [r7, #4]
 8001cbe:	3304      	adds	r3, #4
 8001cc0:	781b      	ldrb	r3, [r3, #0]
 8001cc2:	b21b      	sxth	r3, r3
 8001cc4:	4313      	orrs	r3, r2
 8001cc6:	b21b      	sxth	r3, r3
 8001cc8:	817b      	strh	r3, [r7, #10]
                temp_angle[2] = ((int16_t)IMU_Raw_Data_Buffer[7] << 8) | (int16_t)IMU_Raw_Data_Buffer[6];
 8001cca:	687b      	ldr	r3, [r7, #4]
 8001ccc:	3307      	adds	r3, #7
 8001cce:	781b      	ldrb	r3, [r3, #0]
 8001cd0:	021b      	lsls	r3, r3, #8
 8001cd2:	b21a      	sxth	r2, r3
 8001cd4:	687b      	ldr	r3, [r7, #4]
 8001cd6:	3306      	adds	r3, #6
 8001cd8:	781b      	ldrb	r3, [r3, #0]
 8001cda:	b21b      	sxth	r3, r3
 8001cdc:	4313      	orrs	r3, r2
 8001cde:	b21b      	sxth	r3, r3
 8001ce0:	81bb      	strh	r3, [r7, #12]
                angle[0] = -(((double)temp_angle[0]) * 180.0 / 32768.0) + 90.0;
 8001ce2:	f9b7 3008 	ldrsh.w	r3, [r7, #8]
 8001ce6:	4618      	mov	r0, r3
 8001ce8:	f7fe fc1c 	bl	8000524 <__aeabi_i2d>
 8001cec:	f04f 0200 	mov.w	r2, #0
 8001cf0:	4b34      	ldr	r3, [pc, #208]	@ (8001dc4 <Decode_IMU_Data+0x380>)
 8001cf2:	f7fe fc81 	bl	80005f8 <__aeabi_dmul>
 8001cf6:	4602      	mov	r2, r0
 8001cf8:	460b      	mov	r3, r1
 8001cfa:	4610      	mov	r0, r2
 8001cfc:	4619      	mov	r1, r3
 8001cfe:	f04f 0200 	mov.w	r2, #0
 8001d02:	4b2a      	ldr	r3, [pc, #168]	@ (8001dac <Decode_IMU_Data+0x368>)
 8001d04:	f7fe fda2 	bl	800084c <__aeabi_ddiv>
 8001d08:	4602      	mov	r2, r0
 8001d0a:	460b      	mov	r3, r1
 8001d0c:	f04f 0000 	mov.w	r0, #0
 8001d10:	492d      	ldr	r1, [pc, #180]	@ (8001dc8 <Decode_IMU_Data+0x384>)
 8001d12:	f7fe fab9 	bl	8000288 <__aeabi_dsub>
 8001d16:	4602      	mov	r2, r0
 8001d18:	460b      	mov	r3, r1
 8001d1a:	492c      	ldr	r1, [pc, #176]	@ (8001dcc <Decode_IMU_Data+0x388>)
 8001d1c:	e9c1 2300 	strd	r2, r3, [r1]
                angle[1] = -(((double)temp_angle[1]) * 180.0 / 32768.0) + 90.0;
 8001d20:	f9b7 300a 	ldrsh.w	r3, [r7, #10]
 8001d24:	4618      	mov	r0, r3
 8001d26:	f7fe fbfd 	bl	8000524 <__aeabi_i2d>
 8001d2a:	f04f 0200 	mov.w	r2, #0
 8001d2e:	4b25      	ldr	r3, [pc, #148]	@ (8001dc4 <Decode_IMU_Data+0x380>)
 8001d30:	f7fe fc62 	bl	80005f8 <__aeabi_dmul>
 8001d34:	4602      	mov	r2, r0
 8001d36:	460b      	mov	r3, r1
 8001d38:	4610      	mov	r0, r2
 8001d3a:	4619      	mov	r1, r3
 8001d3c:	f04f 0200 	mov.w	r2, #0
 8001d40:	4b1a      	ldr	r3, [pc, #104]	@ (8001dac <Decode_IMU_Data+0x368>)
 8001d42:	f7fe fd83 	bl	800084c <__aeabi_ddiv>
 8001d46:	4602      	mov	r2, r0
 8001d48:	460b      	mov	r3, r1
 8001d4a:	f04f 0000 	mov.w	r0, #0
 8001d4e:	491e      	ldr	r1, [pc, #120]	@ (8001dc8 <Decode_IMU_Data+0x384>)
 8001d50:	f7fe fa9a 	bl	8000288 <__aeabi_dsub>
 8001d54:	4602      	mov	r2, r0
 8001d56:	460b      	mov	r3, r1
 8001d58:	491c      	ldr	r1, [pc, #112]	@ (8001dcc <Decode_IMU_Data+0x388>)
 8001d5a:	e9c1 2302 	strd	r2, r3, [r1, #8]
                angle[2] = -(((double)temp_angle[2]) * 180.0 / 32768.0) + 90.0;
 8001d5e:	f9b7 300c 	ldrsh.w	r3, [r7, #12]
 8001d62:	4618      	mov	r0, r3
 8001d64:	f7fe fbde 	bl	8000524 <__aeabi_i2d>
 8001d68:	f04f 0200 	mov.w	r2, #0
 8001d6c:	4b15      	ldr	r3, [pc, #84]	@ (8001dc4 <Decode_IMU_Data+0x380>)
 8001d6e:	f7fe fc43 	bl	80005f8 <__aeabi_dmul>
 8001d72:	4602      	mov	r2, r0
 8001d74:	460b      	mov	r3, r1
 8001d76:	4610      	mov	r0, r2
 8001d78:	4619      	mov	r1, r3
 8001d7a:	f04f 0200 	mov.w	r2, #0
 8001d7e:	4b0b      	ldr	r3, [pc, #44]	@ (8001dac <Decode_IMU_Data+0x368>)
 8001d80:	f7fe fd64 	bl	800084c <__aeabi_ddiv>
 8001d84:	4602      	mov	r2, r0
 8001d86:	460b      	mov	r3, r1
 8001d88:	f04f 0000 	mov.w	r0, #0
 8001d8c:	490e      	ldr	r1, [pc, #56]	@ (8001dc8 <Decode_IMU_Data+0x384>)
 8001d8e:	f7fe fa7b 	bl	8000288 <__aeabi_dsub>
 8001d92:	4602      	mov	r2, r0
 8001d94:	460b      	mov	r3, r1
 8001d96:	490d      	ldr	r1, [pc, #52]	@ (8001dcc <Decode_IMU_Data+0x388>)
 8001d98:	e9c1 2304 	strd	r2, r3, [r1, #16]
                break;
 8001d9c:	bf00      	nop
}
 8001d9e:	bf00      	nop
 8001da0:	3720      	adds	r7, #32
 8001da2:	46bd      	mov	sp, r7
 8001da4:	e8bd 8fb0 	ldmia.w	sp!, {r4, r5, r7, r8, r9, sl, fp, pc}
 8001da8:	40300000 	.word	0x40300000
 8001dac:	40e00000 	.word	0x40e00000
 8001db0:	200001d0 	.word	0x200001d0
 8001db4:	409f4000 	.word	0x409f4000
 8001db8:	20000218 	.word	0x20000218
 8001dbc:	200001e8 	.word	0x200001e8
 8001dc0:	20000230 	.word	0x20000230
 8001dc4:	40668000 	.word	0x40668000
 8001dc8:	40568000 	.word	0x40568000
 8001dcc:	20000200 	.word	0x20000200

08001dd0 <Imu_Error_Handler>:

        _IsGyroIntialized = 1;
    }
}

void Imu_Error_Handler(void) {
 8001dd0:	b480      	push	{r7}
 8001dd2:	af00      	add	r7, sp, #0

    while(1) {
 8001dd4:	bf00      	nop
 8001dd6:	e7fd      	b.n	8001dd4 <Imu_Error_Handler+0x4>

08001dd8 <Lcd_create>:
 */
Lcd_HandleTypeDef Lcd_create(
		Lcd_PortType port[], Lcd_PinType pin[],
		Lcd_PortType rs_port, Lcd_PinType rs_pin,
		Lcd_PortType en_port, Lcd_PinType en_pin, Lcd_ModeTypeDef mode)
{
 8001dd8:	b4b0      	push	{r4, r5, r7}
 8001dda:	b08b      	sub	sp, #44	@ 0x2c
 8001ddc:	af00      	add	r7, sp, #0
 8001dde:	60f8      	str	r0, [r7, #12]
 8001de0:	60b9      	str	r1, [r7, #8]
 8001de2:	607a      	str	r2, [r7, #4]
 8001de4:	603b      	str	r3, [r7, #0]
	Lcd_HandleTypeDef lcd;

	lcd.mode = mode;
 8001de6:	f897 3044 	ldrb.w	r3, [r7, #68]	@ 0x44
 8001dea:	f887 3026 	strb.w	r3, [r7, #38]	@ 0x26

	lcd.en_pin = en_pin;
 8001dee:	f8b7 3040 	ldrh.w	r3, [r7, #64]	@ 0x40
 8001df2:	84bb      	strh	r3, [r7, #36]	@ 0x24
	lcd.en_port = en_port;
 8001df4:	6bfb      	ldr	r3, [r7, #60]	@ 0x3c
 8001df6:	623b      	str	r3, [r7, #32]

	lcd.rs_pin = rs_pin;
 8001df8:	8f3b      	ldrh	r3, [r7, #56]	@ 0x38
 8001dfa:	83bb      	strh	r3, [r7, #28]
	lcd.rs_port = rs_port;
 8001dfc:	683b      	ldr	r3, [r7, #0]
 8001dfe:	61bb      	str	r3, [r7, #24]

	lcd.data_pin = pin;
 8001e00:	687b      	ldr	r3, [r7, #4]
 8001e02:	617b      	str	r3, [r7, #20]
	lcd.data_port = port;
 8001e04:	68bb      	ldr	r3, [r7, #8]
 8001e06:	613b      	str	r3, [r7, #16]

	return lcd;
 8001e08:	68fb      	ldr	r3, [r7, #12]
 8001e0a:	461d      	mov	r5, r3
 8001e0c:	f107 0410 	add.w	r4, r7, #16
 8001e10:	cc0f      	ldmia	r4!, {r0, r1, r2, r3}
 8001e12:	c50f      	stmia	r5!, {r0, r1, r2, r3}
 8001e14:	e894 0003 	ldmia.w	r4, {r0, r1}
 8001e18:	e885 0003 	stmia.w	r5, {r0, r1}
}
 8001e1c:	68f8      	ldr	r0, [r7, #12]
 8001e1e:	372c      	adds	r7, #44	@ 0x2c
 8001e20:	46bd      	mov	sp, r7
 8001e22:	bcb0      	pop	{r4, r5, r7}
 8001e24:	4770      	bx	lr
	...

08001e28 <Lcd_init>:

/**
 * Initialize 16x2-lcd without cursor
 */
void Lcd_init(Lcd_HandleTypeDef * lcd)
{
 8001e28:	b5b0      	push	{r4, r5, r7, lr}
 8001e2a:	b08c      	sub	sp, #48	@ 0x30
 8001e2c:	af04      	add	r7, sp, #16
 8001e2e:	61f8      	str	r0, [r7, #28]
	*lcd = Lcd_create(ports, pins, FA_RS_GPIO_Port, FA_RS_Pin, FA_EN_GPIO_Port, FA_EN_Pin, LCD_4_BIT_MODE);
 8001e30:	69fc      	ldr	r4, [r7, #28]
 8001e32:	4638      	mov	r0, r7
 8001e34:	2300      	movs	r3, #0
 8001e36:	9303      	str	r3, [sp, #12]
 8001e38:	f44f 6300 	mov.w	r3, #2048	@ 0x800
 8001e3c:	9302      	str	r3, [sp, #8]
 8001e3e:	4b1b      	ldr	r3, [pc, #108]	@ (8001eac <Lcd_init+0x84>)
 8001e40:	9301      	str	r3, [sp, #4]
 8001e42:	f44f 5300 	mov.w	r3, #8192	@ 0x2000
 8001e46:	9300      	str	r3, [sp, #0]
 8001e48:	4b18      	ldr	r3, [pc, #96]	@ (8001eac <Lcd_init+0x84>)
 8001e4a:	4a19      	ldr	r2, [pc, #100]	@ (8001eb0 <Lcd_init+0x88>)
 8001e4c:	4919      	ldr	r1, [pc, #100]	@ (8001eb4 <Lcd_init+0x8c>)
 8001e4e:	f7ff ffc3 	bl	8001dd8 <Lcd_create>
 8001e52:	4625      	mov	r5, r4
 8001e54:	463c      	mov	r4, r7
 8001e56:	cc0f      	ldmia	r4!, {r0, r1, r2, r3}
 8001e58:	c50f      	stmia	r5!, {r0, r1, r2, r3}
 8001e5a:	e894 0003 	ldmia.w	r4, {r0, r1}
 8001e5e:	e885 0003 	stmia.w	r5, {r0, r1}

	if(lcd->mode == LCD_4_BIT_MODE)
 8001e62:	69fb      	ldr	r3, [r7, #28]
 8001e64:	7d9b      	ldrb	r3, [r3, #22]
 8001e66:	2b00      	cmp	r3, #0
 8001e68:	d10c      	bne.n	8001e84 <Lcd_init+0x5c>
	{
			lcd_write_command(lcd, 0x33);
 8001e6a:	2133      	movs	r1, #51	@ 0x33
 8001e6c:	69f8      	ldr	r0, [r7, #28]
 8001e6e:	f000 f881 	bl	8001f74 <lcd_write_command>
			lcd_write_command(lcd, 0x32);
 8001e72:	2132      	movs	r1, #50	@ 0x32
 8001e74:	69f8      	ldr	r0, [r7, #28]
 8001e76:	f000 f87d 	bl	8001f74 <lcd_write_command>
			lcd_write_command(lcd, FUNCTION_SET | OPT_N);				// 4-bit mode
 8001e7a:	2128      	movs	r1, #40	@ 0x28
 8001e7c:	69f8      	ldr	r0, [r7, #28]
 8001e7e:	f000 f879 	bl	8001f74 <lcd_write_command>
 8001e82:	e003      	b.n	8001e8c <Lcd_init+0x64>
	}
	else
		lcd_write_command(lcd, FUNCTION_SET | OPT_DL | OPT_N);
 8001e84:	2138      	movs	r1, #56	@ 0x38
 8001e86:	69f8      	ldr	r0, [r7, #28]
 8001e88:	f000 f874 	bl	8001f74 <lcd_write_command>


	lcd_write_command(lcd, CLEAR_DISPLAY);						// Clear screen
 8001e8c:	2101      	movs	r1, #1
 8001e8e:	69f8      	ldr	r0, [r7, #28]
 8001e90:	f000 f870 	bl	8001f74 <lcd_write_command>
	lcd_write_command(lcd, DISPLAY_ON_OFF_CONTROL | OPT_D);		// Lcd-on, cursor-off, no-blink
 8001e94:	210c      	movs	r1, #12
 8001e96:	69f8      	ldr	r0, [r7, #28]
 8001e98:	f000 f86c 	bl	8001f74 <lcd_write_command>
	lcd_write_command(lcd, ENTRY_MODE_SET | OPT_INC);			// Increment cursor
 8001e9c:	2106      	movs	r1, #6
 8001e9e:	69f8      	ldr	r0, [r7, #28]
 8001ea0:	f000 f868 	bl	8001f74 <lcd_write_command>
}
 8001ea4:	bf00      	nop
 8001ea6:	3720      	adds	r7, #32
 8001ea8:	46bd      	mov	sp, r7
 8001eaa:	bdb0      	pop	{r4, r5, r7, pc}
 8001eac:	40021000 	.word	0x40021000
 8001eb0:	20000014 	.word	0x20000014
 8001eb4:	20000004 	.word	0x20000004

08001eb8 <Lcd_int>:

/**
 * Write a number on the current position
 */
void Lcd_int(Lcd_HandleTypeDef * lcd, int number)
{
 8001eb8:	b580      	push	{r7, lr}
 8001eba:	b086      	sub	sp, #24
 8001ebc:	af00      	add	r7, sp, #0
 8001ebe:	6078      	str	r0, [r7, #4]
 8001ec0:	6039      	str	r1, [r7, #0]
	char buffer[11];
	sprintf(buffer, "%d", number);
 8001ec2:	f107 030c 	add.w	r3, r7, #12
 8001ec6:	683a      	ldr	r2, [r7, #0]
 8001ec8:	4906      	ldr	r1, [pc, #24]	@ (8001ee4 <Lcd_int+0x2c>)
 8001eca:	4618      	mov	r0, r3
 8001ecc:	f003 fb92 	bl	80055f4 <siprintf>

	Lcd_string(lcd, buffer);
 8001ed0:	f107 030c 	add.w	r3, r7, #12
 8001ed4:	4619      	mov	r1, r3
 8001ed6:	6878      	ldr	r0, [r7, #4]
 8001ed8:	f000 f806 	bl	8001ee8 <Lcd_string>
}
 8001edc:	bf00      	nop
 8001ede:	3718      	adds	r7, #24
 8001ee0:	46bd      	mov	sp, r7
 8001ee2:	bd80      	pop	{r7, pc}
 8001ee4:	08005f70 	.word	0x08005f70

08001ee8 <Lcd_string>:

/**
 * Write a string on the current position
 */
void Lcd_string(Lcd_HandleTypeDef * lcd, char * string)
{
 8001ee8:	b590      	push	{r4, r7, lr}
 8001eea:	b085      	sub	sp, #20
 8001eec:	af00      	add	r7, sp, #0
 8001eee:	6078      	str	r0, [r7, #4]
 8001ef0:	6039      	str	r1, [r7, #0]
	for(uint8_t i = 0; i < strlen(string); i++)
 8001ef2:	2300      	movs	r3, #0
 8001ef4:	73fb      	strb	r3, [r7, #15]
 8001ef6:	e00a      	b.n	8001f0e <Lcd_string+0x26>
	{
		lcd_write_data(lcd, string[i]);
 8001ef8:	7bfb      	ldrb	r3, [r7, #15]
 8001efa:	683a      	ldr	r2, [r7, #0]
 8001efc:	4413      	add	r3, r2
 8001efe:	781b      	ldrb	r3, [r3, #0]
 8001f00:	4619      	mov	r1, r3
 8001f02:	6878      	ldr	r0, [r7, #4]
 8001f04:	f000 f864 	bl	8001fd0 <lcd_write_data>
	for(uint8_t i = 0; i < strlen(string); i++)
 8001f08:	7bfb      	ldrb	r3, [r7, #15]
 8001f0a:	3301      	adds	r3, #1
 8001f0c:	73fb      	strb	r3, [r7, #15]
 8001f0e:	7bfc      	ldrb	r4, [r7, #15]
 8001f10:	6838      	ldr	r0, [r7, #0]
 8001f12:	f7fe f95d 	bl	80001d0 <strlen>
 8001f16:	4603      	mov	r3, r0
 8001f18:	429c      	cmp	r4, r3
 8001f1a:	d3ed      	bcc.n	8001ef8 <Lcd_string+0x10>
	}
}
 8001f1c:	bf00      	nop
 8001f1e:	bf00      	nop
 8001f20:	3714      	adds	r7, #20
 8001f22:	46bd      	mov	sp, r7
 8001f24:	bd90      	pop	{r4, r7, pc}
	...

08001f28 <Lcd_cursor>:

/**
 * Set the cursor position
 */
void Lcd_cursor(Lcd_HandleTypeDef * lcd, uint8_t row, uint8_t col)
{
 8001f28:	b580      	push	{r7, lr}
 8001f2a:	b082      	sub	sp, #8
 8001f2c:	af00      	add	r7, sp, #0
 8001f2e:	6078      	str	r0, [r7, #4]
 8001f30:	460b      	mov	r3, r1
 8001f32:	70fb      	strb	r3, [r7, #3]
 8001f34:	4613      	mov	r3, r2
 8001f36:	70bb      	strb	r3, [r7, #2]
	#ifdef LCD20xN
	lcd_write_command(lcd, SET_DDRAM_ADDR + ROW_20[row] + col);
 8001f38:	78fb      	ldrb	r3, [r7, #3]
 8001f3a:	4a07      	ldr	r2, [pc, #28]	@ (8001f58 <Lcd_cursor+0x30>)
 8001f3c:	5cd2      	ldrb	r2, [r2, r3]
 8001f3e:	78bb      	ldrb	r3, [r7, #2]
 8001f40:	4413      	add	r3, r2
 8001f42:	b2db      	uxtb	r3, r3
 8001f44:	3b80      	subs	r3, #128	@ 0x80
 8001f46:	b2db      	uxtb	r3, r3
 8001f48:	4619      	mov	r1, r3
 8001f4a:	6878      	ldr	r0, [r7, #4]
 8001f4c:	f000 f812 	bl	8001f74 <lcd_write_command>
	#endif

	#ifdef LCD16xN
	lcd_write_command(lcd, SET_DDRAM_ADDR + ROW_16[row] + col);
	#endif
}
 8001f50:	bf00      	nop
 8001f52:	3708      	adds	r7, #8
 8001f54:	46bd      	mov	sp, r7
 8001f56:	bd80      	pop	{r7, pc}
 8001f58:	08005f8c 	.word	0x08005f8c

08001f5c <Lcd_clear>:

/**
 * Clear the screen
 */
void Lcd_clear(Lcd_HandleTypeDef * lcd) {
 8001f5c:	b580      	push	{r7, lr}
 8001f5e:	b082      	sub	sp, #8
 8001f60:	af00      	add	r7, sp, #0
 8001f62:	6078      	str	r0, [r7, #4]
	lcd_write_command(lcd, CLEAR_DISPLAY);
 8001f64:	2101      	movs	r1, #1
 8001f66:	6878      	ldr	r0, [r7, #4]
 8001f68:	f000 f804 	bl	8001f74 <lcd_write_command>
}
 8001f6c:	bf00      	nop
 8001f6e:	3708      	adds	r7, #8
 8001f70:	46bd      	mov	sp, r7
 8001f72:	bd80      	pop	{r7, pc}

08001f74 <lcd_write_command>:

/**
 * Write a byte to the command register
 */
void lcd_write_command(Lcd_HandleTypeDef * lcd, uint8_t command)
{
 8001f74:	b580      	push	{r7, lr}
 8001f76:	b082      	sub	sp, #8
 8001f78:	af00      	add	r7, sp, #0
 8001f7a:	6078      	str	r0, [r7, #4]
 8001f7c:	460b      	mov	r3, r1
 8001f7e:	70fb      	strb	r3, [r7, #3]
	HAL_GPIO_WritePin(lcd->rs_port, lcd->rs_pin, LCD_COMMAND_REG);		// Write to command register
 8001f80:	687b      	ldr	r3, [r7, #4]
 8001f82:	6898      	ldr	r0, [r3, #8]
 8001f84:	687b      	ldr	r3, [r7, #4]
 8001f86:	899b      	ldrh	r3, [r3, #12]
 8001f88:	2200      	movs	r2, #0
 8001f8a:	4619      	mov	r1, r3
 8001f8c:	f000 fec6 	bl	8002d1c <HAL_GPIO_WritePin>

	if(lcd->mode == LCD_4_BIT_MODE)
 8001f90:	687b      	ldr	r3, [r7, #4]
 8001f92:	7d9b      	ldrb	r3, [r3, #22]
 8001f94:	2b00      	cmp	r3, #0
 8001f96:	d111      	bne.n	8001fbc <lcd_write_command+0x48>
	{
		lcd_write(lcd, (command >> 4), LCD_NIB);
 8001f98:	78fb      	ldrb	r3, [r7, #3]
 8001f9a:	091b      	lsrs	r3, r3, #4
 8001f9c:	b2db      	uxtb	r3, r3
 8001f9e:	2204      	movs	r2, #4
 8001fa0:	4619      	mov	r1, r3
 8001fa2:	6878      	ldr	r0, [r7, #4]
 8001fa4:	f000 f842 	bl	800202c <lcd_write>
		lcd_write(lcd, command & 0x0F, LCD_NIB);
 8001fa8:	78fb      	ldrb	r3, [r7, #3]
 8001faa:	f003 030f 	and.w	r3, r3, #15
 8001fae:	b2db      	uxtb	r3, r3
 8001fb0:	2204      	movs	r2, #4
 8001fb2:	4619      	mov	r1, r3
 8001fb4:	6878      	ldr	r0, [r7, #4]
 8001fb6:	f000 f839 	bl	800202c <lcd_write>
	else
	{
		lcd_write(lcd, command, LCD_BYTE);
	}

}
 8001fba:	e005      	b.n	8001fc8 <lcd_write_command+0x54>
		lcd_write(lcd, command, LCD_BYTE);
 8001fbc:	78fb      	ldrb	r3, [r7, #3]
 8001fbe:	2208      	movs	r2, #8
 8001fc0:	4619      	mov	r1, r3
 8001fc2:	6878      	ldr	r0, [r7, #4]
 8001fc4:	f000 f832 	bl	800202c <lcd_write>
}
 8001fc8:	bf00      	nop
 8001fca:	3708      	adds	r7, #8
 8001fcc:	46bd      	mov	sp, r7
 8001fce:	bd80      	pop	{r7, pc}

08001fd0 <lcd_write_data>:

/**
 * Write a byte to the data register
 */
void lcd_write_data(Lcd_HandleTypeDef * lcd, uint8_t data)
{
 8001fd0:	b580      	push	{r7, lr}
 8001fd2:	b082      	sub	sp, #8
 8001fd4:	af00      	add	r7, sp, #0
 8001fd6:	6078      	str	r0, [r7, #4]
 8001fd8:	460b      	mov	r3, r1
 8001fda:	70fb      	strb	r3, [r7, #3]
	HAL_GPIO_WritePin(lcd->rs_port, lcd->rs_pin, LCD_DATA_REG);			// Write to data register
 8001fdc:	687b      	ldr	r3, [r7, #4]
 8001fde:	6898      	ldr	r0, [r3, #8]
 8001fe0:	687b      	ldr	r3, [r7, #4]
 8001fe2:	899b      	ldrh	r3, [r3, #12]
 8001fe4:	2201      	movs	r2, #1
 8001fe6:	4619      	mov	r1, r3
 8001fe8:	f000 fe98 	bl	8002d1c <HAL_GPIO_WritePin>

	if(lcd->mode == LCD_4_BIT_MODE)
 8001fec:	687b      	ldr	r3, [r7, #4]
 8001fee:	7d9b      	ldrb	r3, [r3, #22]
 8001ff0:	2b00      	cmp	r3, #0
 8001ff2:	d111      	bne.n	8002018 <lcd_write_data+0x48>
	{
		lcd_write(lcd, data >> 4, LCD_NIB);
 8001ff4:	78fb      	ldrb	r3, [r7, #3]
 8001ff6:	091b      	lsrs	r3, r3, #4
 8001ff8:	b2db      	uxtb	r3, r3
 8001ffa:	2204      	movs	r2, #4
 8001ffc:	4619      	mov	r1, r3
 8001ffe:	6878      	ldr	r0, [r7, #4]
 8002000:	f000 f814 	bl	800202c <lcd_write>
		lcd_write(lcd, data & 0x0F, LCD_NIB);
 8002004:	78fb      	ldrb	r3, [r7, #3]
 8002006:	f003 030f 	and.w	r3, r3, #15
 800200a:	b2db      	uxtb	r3, r3
 800200c:	2204      	movs	r2, #4
 800200e:	4619      	mov	r1, r3
 8002010:	6878      	ldr	r0, [r7, #4]
 8002012:	f000 f80b 	bl	800202c <lcd_write>
	else
	{
		lcd_write(lcd, data, LCD_BYTE);
	}

}
 8002016:	e005      	b.n	8002024 <lcd_write_data+0x54>
		lcd_write(lcd, data, LCD_BYTE);
 8002018:	78fb      	ldrb	r3, [r7, #3]
 800201a:	2208      	movs	r2, #8
 800201c:	4619      	mov	r1, r3
 800201e:	6878      	ldr	r0, [r7, #4]
 8002020:	f000 f804 	bl	800202c <lcd_write>
}
 8002024:	bf00      	nop
 8002026:	3708      	adds	r7, #8
 8002028:	46bd      	mov	sp, r7
 800202a:	bd80      	pop	{r7, pc}

0800202c <lcd_write>:

/**
 * Set len bits on the bus and toggle the enable line
 */
void lcd_write(Lcd_HandleTypeDef * lcd, uint8_t data, uint8_t len)
{
 800202c:	b580      	push	{r7, lr}
 800202e:	b084      	sub	sp, #16
 8002030:	af00      	add	r7, sp, #0
 8002032:	6078      	str	r0, [r7, #4]
 8002034:	460b      	mov	r3, r1
 8002036:	70fb      	strb	r3, [r7, #3]
 8002038:	4613      	mov	r3, r2
 800203a:	70bb      	strb	r3, [r7, #2]
	for(uint8_t i = 0; i < len; i++)
 800203c:	2300      	movs	r3, #0
 800203e:	73fb      	strb	r3, [r7, #15]
 8002040:	e019      	b.n	8002076 <lcd_write+0x4a>
	{
		HAL_GPIO_WritePin(lcd->data_port[i], lcd->data_pin[i], (data >> i) & 0x01);
 8002042:	687b      	ldr	r3, [r7, #4]
 8002044:	681a      	ldr	r2, [r3, #0]
 8002046:	7bfb      	ldrb	r3, [r7, #15]
 8002048:	009b      	lsls	r3, r3, #2
 800204a:	4413      	add	r3, r2
 800204c:	6818      	ldr	r0, [r3, #0]
 800204e:	687b      	ldr	r3, [r7, #4]
 8002050:	685a      	ldr	r2, [r3, #4]
 8002052:	7bfb      	ldrb	r3, [r7, #15]
 8002054:	005b      	lsls	r3, r3, #1
 8002056:	4413      	add	r3, r2
 8002058:	8819      	ldrh	r1, [r3, #0]
 800205a:	78fa      	ldrb	r2, [r7, #3]
 800205c:	7bfb      	ldrb	r3, [r7, #15]
 800205e:	fa42 f303 	asr.w	r3, r2, r3
 8002062:	b2db      	uxtb	r3, r3
 8002064:	f003 0301 	and.w	r3, r3, #1
 8002068:	b2db      	uxtb	r3, r3
 800206a:	461a      	mov	r2, r3
 800206c:	f000 fe56 	bl	8002d1c <HAL_GPIO_WritePin>
	for(uint8_t i = 0; i < len; i++)
 8002070:	7bfb      	ldrb	r3, [r7, #15]
 8002072:	3301      	adds	r3, #1
 8002074:	73fb      	strb	r3, [r7, #15]
 8002076:	7bfa      	ldrb	r2, [r7, #15]
 8002078:	78bb      	ldrb	r3, [r7, #2]
 800207a:	429a      	cmp	r2, r3
 800207c:	d3e1      	bcc.n	8002042 <lcd_write+0x16>
	}

	HAL_GPIO_WritePin(lcd->en_port, lcd->en_pin, 1);
 800207e:	687b      	ldr	r3, [r7, #4]
 8002080:	6918      	ldr	r0, [r3, #16]
 8002082:	687b      	ldr	r3, [r7, #4]
 8002084:	8a9b      	ldrh	r3, [r3, #20]
 8002086:	2201      	movs	r2, #1
 8002088:	4619      	mov	r1, r3
 800208a:	f000 fe47 	bl	8002d1c <HAL_GPIO_WritePin>
	DELAY(1);
 800208e:	2001      	movs	r0, #1
 8002090:	f000 f87e 	bl	8002190 <HAL_Delay>
	HAL_GPIO_WritePin(lcd->en_port, lcd->en_pin, 0); 		// Data receive on falling edge
 8002094:	687b      	ldr	r3, [r7, #4]
 8002096:	6918      	ldr	r0, [r3, #16]
 8002098:	687b      	ldr	r3, [r7, #4]
 800209a:	8a9b      	ldrh	r3, [r3, #20]
 800209c:	2200      	movs	r2, #0
 800209e:	4619      	mov	r1, r3
 80020a0:	f000 fe3c 	bl	8002d1c <HAL_GPIO_WritePin>
}
 80020a4:	bf00      	nop
 80020a6:	3710      	adds	r7, #16
 80020a8:	46bd      	mov	sp, r7
 80020aa:	bd80      	pop	{r7, pc}

080020ac <HAL_Init>:
  *         need to ensure that the SysTick time base is always set to 1 millisecond
  *         to have correct HAL operation.
  * @retval HAL status
  */
HAL_StatusTypeDef HAL_Init(void)
{
 80020ac:	b580      	push	{r7, lr}
 80020ae:	af00      	add	r7, sp, #0
  /* Configure Flash prefetch, Instruction cache, Data cache */ 
#if (INSTRUCTION_CACHE_ENABLE != 0U)
  __HAL_FLASH_INSTRUCTION_CACHE_ENABLE();
 80020b0:	4b0e      	ldr	r3, [pc, #56]	@ (80020ec <HAL_Init+0x40>)
 80020b2:	681b      	ldr	r3, [r3, #0]
 80020b4:	4a0d      	ldr	r2, [pc, #52]	@ (80020ec <HAL_Init+0x40>)
 80020b6:	f443 7300 	orr.w	r3, r3, #512	@ 0x200
 80020ba:	6013      	str	r3, [r2, #0]
#endif /* INSTRUCTION_CACHE_ENABLE */

#if (DATA_CACHE_ENABLE != 0U)
  __HAL_FLASH_DATA_CACHE_ENABLE();
 80020bc:	4b0b      	ldr	r3, [pc, #44]	@ (80020ec <HAL_Init+0x40>)
 80020be:	681b      	ldr	r3, [r3, #0]
 80020c0:	4a0a      	ldr	r2, [pc, #40]	@ (80020ec <HAL_Init+0x40>)
 80020c2:	f443 6380 	orr.w	r3, r3, #1024	@ 0x400
 80020c6:	6013      	str	r3, [r2, #0]
#endif /* DATA_CACHE_ENABLE */

#if (PREFETCH_ENABLE != 0U)
  __HAL_FLASH_PREFETCH_BUFFER_ENABLE();
 80020c8:	4b08      	ldr	r3, [pc, #32]	@ (80020ec <HAL_Init+0x40>)
 80020ca:	681b      	ldr	r3, [r3, #0]
 80020cc:	4a07      	ldr	r2, [pc, #28]	@ (80020ec <HAL_Init+0x40>)
 80020ce:	f443 7380 	orr.w	r3, r3, #256	@ 0x100
 80020d2:	6013      	str	r3, [r2, #0]
#endif /* PREFETCH_ENABLE */

  /* Set Interrupt Group Priority */
  HAL_NVIC_SetPriorityGrouping(NVIC_PRIORITYGROUP_4);
 80020d4:	2003      	movs	r0, #3
 80020d6:	f000 fbb1 	bl	800283c <HAL_NVIC_SetPriorityGrouping>

  /* Use systick as time base source and configure 1ms tick (default clock after Reset is HSI) */
  HAL_InitTick(TICK_INT_PRIORITY);
 80020da:	200f      	movs	r0, #15
 80020dc:	f000 f808 	bl	80020f0 <HAL_InitTick>

  /* Init the low level hardware */
  HAL_MspInit();
 80020e0:	f7ff f9ac 	bl	800143c <HAL_MspInit>

  /* Return function status */
  return HAL_OK;
 80020e4:	2300      	movs	r3, #0
}
 80020e6:	4618      	mov	r0, r3
 80020e8:	bd80      	pop	{r7, pc}
 80020ea:	bf00      	nop
 80020ec:	40023c00 	.word	0x40023c00

080020f0 <HAL_InitTick>:
  *       implementation  in user file.
  * @param TickPriority Tick interrupt priority.
  * @retval HAL status
  */
__weak HAL_StatusTypeDef HAL_InitTick(uint32_t TickPriority)
{
 80020f0:	b580      	push	{r7, lr}
 80020f2:	b082      	sub	sp, #8
 80020f4:	af00      	add	r7, sp, #0
 80020f6:	6078      	str	r0, [r7, #4]
  /* Configure the SysTick to have interrupt in 1ms time basis*/
  if (HAL_SYSTICK_Config(SystemCoreClock / (1000U / uwTickFreq)) > 0U)
 80020f8:	4b12      	ldr	r3, [pc, #72]	@ (8002144 <HAL_InitTick+0x54>)
 80020fa:	681a      	ldr	r2, [r3, #0]
 80020fc:	4b12      	ldr	r3, [pc, #72]	@ (8002148 <HAL_InitTick+0x58>)
 80020fe:	781b      	ldrb	r3, [r3, #0]
 8002100:	4619      	mov	r1, r3
 8002102:	f44f 737a 	mov.w	r3, #1000	@ 0x3e8
 8002106:	fbb3 f3f1 	udiv	r3, r3, r1
 800210a:	fbb2 f3f3 	udiv	r3, r2, r3
 800210e:	4618      	mov	r0, r3
 8002110:	f000 fbc9 	bl	80028a6 <HAL_SYSTICK_Config>
 8002114:	4603      	mov	r3, r0
 8002116:	2b00      	cmp	r3, #0
 8002118:	d001      	beq.n	800211e <HAL_InitTick+0x2e>
  {
    return HAL_ERROR;
 800211a:	2301      	movs	r3, #1
 800211c:	e00e      	b.n	800213c <HAL_InitTick+0x4c>
  }

  /* Configure the SysTick IRQ priority */
  if (TickPriority < (1UL << __NVIC_PRIO_BITS))
 800211e:	687b      	ldr	r3, [r7, #4]
 8002120:	2b0f      	cmp	r3, #15
 8002122:	d80a      	bhi.n	800213a <HAL_InitTick+0x4a>
  {
    HAL_NVIC_SetPriority(SysTick_IRQn, TickPriority, 0U);
 8002124:	2200      	movs	r2, #0
 8002126:	6879      	ldr	r1, [r7, #4]
 8002128:	f04f 30ff 	mov.w	r0, #4294967295
 800212c:	f000 fb91 	bl	8002852 <HAL_NVIC_SetPriority>
    uwTickPrio = TickPriority;
 8002130:	4a06      	ldr	r2, [pc, #24]	@ (800214c <HAL_InitTick+0x5c>)
 8002132:	687b      	ldr	r3, [r7, #4]
 8002134:	6013      	str	r3, [r2, #0]
  {
    return HAL_ERROR;
  }

  /* Return function status */
  return HAL_OK;
 8002136:	2300      	movs	r3, #0
 8002138:	e000      	b.n	800213c <HAL_InitTick+0x4c>
    return HAL_ERROR;
 800213a:	2301      	movs	r3, #1
}
 800213c:	4618      	mov	r0, r3
 800213e:	3708      	adds	r7, #8
 8002140:	46bd      	mov	sp, r7
 8002142:	bd80      	pop	{r7, pc}
 8002144:	20000000 	.word	0x20000000
 8002148:	20000020 	.word	0x20000020
 800214c:	2000001c 	.word	0x2000001c

08002150 <HAL_IncTick>:
 * @note This function is declared as __weak to be overwritten in case of other 
  *      implementations in user file.
  * @retval None
  */
__weak void HAL_IncTick(void)
{
 8002150:	b480      	push	{r7}
 8002152:	af00      	add	r7, sp, #0
  uwTick += uwTickFreq;
 8002154:	4b06      	ldr	r3, [pc, #24]	@ (8002170 <HAL_IncTick+0x20>)
 8002156:	781b      	ldrb	r3, [r3, #0]
 8002158:	461a      	mov	r2, r3
 800215a:	4b06      	ldr	r3, [pc, #24]	@ (8002174 <HAL_IncTick+0x24>)
 800215c:	681b      	ldr	r3, [r3, #0]
 800215e:	4413      	add	r3, r2
 8002160:	4a04      	ldr	r2, [pc, #16]	@ (8002174 <HAL_IncTick+0x24>)
 8002162:	6013      	str	r3, [r2, #0]
}
 8002164:	bf00      	nop
 8002166:	46bd      	mov	sp, r7
 8002168:	f85d 7b04 	ldr.w	r7, [sp], #4
 800216c:	4770      	bx	lr
 800216e:	bf00      	nop
 8002170:	20000020 	.word	0x20000020
 8002174:	20000234 	.word	0x20000234

08002178 <HAL_GetTick>:
  * @note This function is declared as __weak to be overwritten in case of other 
  *       implementations in user file.
  * @retval tick value
  */
__weak uint32_t HAL_GetTick(void)
{
 8002178:	b480      	push	{r7}
 800217a:	af00      	add	r7, sp, #0
  return uwTick;
 800217c:	4b03      	ldr	r3, [pc, #12]	@ (800218c <HAL_GetTick+0x14>)
 800217e:	681b      	ldr	r3, [r3, #0]
}
 8002180:	4618      	mov	r0, r3
 8002182:	46bd      	mov	sp, r7
 8002184:	f85d 7b04 	ldr.w	r7, [sp], #4
 8002188:	4770      	bx	lr
 800218a:	bf00      	nop
 800218c:	20000234 	.word	0x20000234

08002190 <HAL_Delay>:
  *       implementations in user file.
  * @param Delay specifies the delay time length, in milliseconds.
  * @retval None
  */
__weak void HAL_Delay(uint32_t Delay)
{
 8002190:	b580      	push	{r7, lr}
 8002192:	b084      	sub	sp, #16
 8002194:	af00      	add	r7, sp, #0
 8002196:	6078      	str	r0, [r7, #4]
  uint32_t tickstart = HAL_GetTick();
 8002198:	f7ff ffee 	bl	8002178 <HAL_GetTick>
 800219c:	60b8      	str	r0, [r7, #8]
  uint32_t wait = Delay;
 800219e:	687b      	ldr	r3, [r7, #4]
 80021a0:	60fb      	str	r3, [r7, #12]

  /* Add a freq to guarantee minimum wait */
  if (wait < HAL_MAX_DELAY)
 80021a2:	68fb      	ldr	r3, [r7, #12]
 80021a4:	f1b3 3fff 	cmp.w	r3, #4294967295
 80021a8:	d005      	beq.n	80021b6 <HAL_Delay+0x26>
  {
    wait += (uint32_t)(uwTickFreq);
 80021aa:	4b0a      	ldr	r3, [pc, #40]	@ (80021d4 <HAL_Delay+0x44>)
 80021ac:	781b      	ldrb	r3, [r3, #0]
 80021ae:	461a      	mov	r2, r3
 80021b0:	68fb      	ldr	r3, [r7, #12]
 80021b2:	4413      	add	r3, r2
 80021b4:	60fb      	str	r3, [r7, #12]
  }

  while((HAL_GetTick() - tickstart) < wait)
 80021b6:	bf00      	nop
 80021b8:	f7ff ffde 	bl	8002178 <HAL_GetTick>
 80021bc:	4602      	mov	r2, r0
 80021be:	68bb      	ldr	r3, [r7, #8]
 80021c0:	1ad3      	subs	r3, r2, r3
 80021c2:	68fa      	ldr	r2, [r7, #12]
 80021c4:	429a      	cmp	r2, r3
 80021c6:	d8f7      	bhi.n	80021b8 <HAL_Delay+0x28>
  {
  }
}
 80021c8:	bf00      	nop
 80021ca:	bf00      	nop
 80021cc:	3710      	adds	r7, #16
 80021ce:	46bd      	mov	sp, r7
 80021d0:	bd80      	pop	{r7, pc}
 80021d2:	bf00      	nop
 80021d4:	20000020 	.word	0x20000020

080021d8 <HAL_ADC_Init>:
  * @param  hadc pointer to a ADC_HandleTypeDef structure that contains
  *         the configuration information for the specified ADC.
  * @retval HAL status
  */
HAL_StatusTypeDef HAL_ADC_Init(ADC_HandleTypeDef *hadc)
{
 80021d8:	b580      	push	{r7, lr}
 80021da:	b084      	sub	sp, #16
 80021dc:	af00      	add	r7, sp, #0
 80021de:	6078      	str	r0, [r7, #4]
  HAL_StatusTypeDef tmp_hal_status = HAL_OK;
 80021e0:	2300      	movs	r3, #0
 80021e2:	73fb      	strb	r3, [r7, #15]

  /* Check ADC handle */
  if (hadc == NULL)
 80021e4:	687b      	ldr	r3, [r7, #4]
 80021e6:	2b00      	cmp	r3, #0
 80021e8:	d101      	bne.n	80021ee <HAL_ADC_Init+0x16>
  {
    return HAL_ERROR;
 80021ea:	2301      	movs	r3, #1
 80021ec:	e033      	b.n	8002256 <HAL_ADC_Init+0x7e>
  if (hadc->Init.ExternalTrigConv != ADC_SOFTWARE_START)
  {
    assert_param(IS_ADC_EXT_TRIG_EDGE(hadc->Init.ExternalTrigConvEdge));
  }

  if (hadc->State == HAL_ADC_STATE_RESET)
 80021ee:	687b      	ldr	r3, [r7, #4]
 80021f0:	6c1b      	ldr	r3, [r3, #64]	@ 0x40
 80021f2:	2b00      	cmp	r3, #0
 80021f4:	d109      	bne.n	800220a <HAL_ADC_Init+0x32>

    /* Init the low level hardware */
    hadc->MspInitCallback(hadc);
#else
    /* Init the low level hardware */
    HAL_ADC_MspInit(hadc);
 80021f6:	6878      	ldr	r0, [r7, #4]
 80021f8:	f7ff f948 	bl	800148c <HAL_ADC_MspInit>
#endif /* USE_HAL_ADC_REGISTER_CALLBACKS */

    /* Initialize ADC error code */
    ADC_CLEAR_ERRORCODE(hadc);
 80021fc:	687b      	ldr	r3, [r7, #4]
 80021fe:	2200      	movs	r2, #0
 8002200:	645a      	str	r2, [r3, #68]	@ 0x44

    /* Allocate lock resource and initialize it */
    hadc->Lock = HAL_UNLOCKED;
 8002202:	687b      	ldr	r3, [r7, #4]
 8002204:	2200      	movs	r2, #0
 8002206:	f883 203c 	strb.w	r2, [r3, #60]	@ 0x3c
  }

  /* Configuration of ADC parameters if previous preliminary actions are      */
  /* correctly completed.                                                     */
  if (HAL_IS_BIT_CLR(hadc->State, HAL_ADC_STATE_ERROR_INTERNAL))
 800220a:	687b      	ldr	r3, [r7, #4]
 800220c:	6c1b      	ldr	r3, [r3, #64]	@ 0x40
 800220e:	f003 0310 	and.w	r3, r3, #16
 8002212:	2b00      	cmp	r3, #0
 8002214:	d118      	bne.n	8002248 <HAL_ADC_Init+0x70>
  {
    /* Set ADC state */
    ADC_STATE_CLR_SET(hadc->State,
 8002216:	687b      	ldr	r3, [r7, #4]
 8002218:	6c1b      	ldr	r3, [r3, #64]	@ 0x40
 800221a:	f423 5388 	bic.w	r3, r3, #4352	@ 0x1100
 800221e:	f023 0302 	bic.w	r3, r3, #2
 8002222:	f043 0202 	orr.w	r2, r3, #2
 8002226:	687b      	ldr	r3, [r7, #4]
 8002228:	641a      	str	r2, [r3, #64]	@ 0x40
                      HAL_ADC_STATE_REG_BUSY | HAL_ADC_STATE_INJ_BUSY,
                      HAL_ADC_STATE_BUSY_INTERNAL);

    /* Set ADC parameters */
    ADC_Init(hadc);
 800222a:	6878      	ldr	r0, [r7, #4]
 800222c:	f000 f93a 	bl	80024a4 <ADC_Init>

    /* Set ADC error code to none */
    ADC_CLEAR_ERRORCODE(hadc);
 8002230:	687b      	ldr	r3, [r7, #4]
 8002232:	2200      	movs	r2, #0
 8002234:	645a      	str	r2, [r3, #68]	@ 0x44

    /* Set the ADC state */
    ADC_STATE_CLR_SET(hadc->State,
 8002236:	687b      	ldr	r3, [r7, #4]
 8002238:	6c1b      	ldr	r3, [r3, #64]	@ 0x40
 800223a:	f023 0303 	bic.w	r3, r3, #3
 800223e:	f043 0201 	orr.w	r2, r3, #1
 8002242:	687b      	ldr	r3, [r7, #4]
 8002244:	641a      	str	r2, [r3, #64]	@ 0x40
 8002246:	e001      	b.n	800224c <HAL_ADC_Init+0x74>
                      HAL_ADC_STATE_BUSY_INTERNAL,
                      HAL_ADC_STATE_READY);
  }
  else
  {
    tmp_hal_status = HAL_ERROR;
 8002248:	2301      	movs	r3, #1
 800224a:	73fb      	strb	r3, [r7, #15]
  }

  /* Release Lock */
  __HAL_UNLOCK(hadc);
 800224c:	687b      	ldr	r3, [r7, #4]
 800224e:	2200      	movs	r2, #0
 8002250:	f883 203c 	strb.w	r2, [r3, #60]	@ 0x3c

  /* Return function status */
  return tmp_hal_status;
 8002254:	7bfb      	ldrb	r3, [r7, #15]
}
 8002256:	4618      	mov	r0, r3
 8002258:	3710      	adds	r7, #16
 800225a:	46bd      	mov	sp, r7
 800225c:	bd80      	pop	{r7, pc}
	...

08002260 <HAL_ADC_ConfigChannel>:
*         the configuration information for the specified ADC.
* @param  sConfig ADC configuration structure.
* @retval HAL status
*/
HAL_StatusTypeDef HAL_ADC_ConfigChannel(ADC_HandleTypeDef *hadc, ADC_ChannelConfTypeDef *sConfig)
{
 8002260:	b480      	push	{r7}
 8002262:	b085      	sub	sp, #20
 8002264:	af00      	add	r7, sp, #0
 8002266:	6078      	str	r0, [r7, #4]
 8002268:	6039      	str	r1, [r7, #0]
  __IO uint32_t counter = 0U;
 800226a:	2300      	movs	r3, #0
 800226c:	60bb      	str	r3, [r7, #8]
  assert_param(IS_ADC_CHANNEL(sConfig->Channel));
  assert_param(IS_ADC_REGULAR_RANK(sConfig->Rank));
  assert_param(IS_ADC_SAMPLE_TIME(sConfig->SamplingTime));

  /* Process locked */
  __HAL_LOCK(hadc);
 800226e:	687b      	ldr	r3, [r7, #4]
 8002270:	f893 303c 	ldrb.w	r3, [r3, #60]	@ 0x3c
 8002274:	2b01      	cmp	r3, #1
 8002276:	d101      	bne.n	800227c <HAL_ADC_ConfigChannel+0x1c>
 8002278:	2302      	movs	r3, #2
 800227a:	e105      	b.n	8002488 <HAL_ADC_ConfigChannel+0x228>
 800227c:	687b      	ldr	r3, [r7, #4]
 800227e:	2201      	movs	r2, #1
 8002280:	f883 203c 	strb.w	r2, [r3, #60]	@ 0x3c

  /* if ADC_Channel_10 ... ADC_Channel_18 is selected */
  if (sConfig->Channel > ADC_CHANNEL_9)
 8002284:	683b      	ldr	r3, [r7, #0]
 8002286:	681b      	ldr	r3, [r3, #0]
 8002288:	2b09      	cmp	r3, #9
 800228a:	d925      	bls.n	80022d8 <HAL_ADC_ConfigChannel+0x78>
  {
    /* Clear the old sample time */
    hadc->Instance->SMPR1 &= ~ADC_SMPR1(ADC_SMPR1_SMP10, sConfig->Channel);
 800228c:	687b      	ldr	r3, [r7, #4]
 800228e:	681b      	ldr	r3, [r3, #0]
 8002290:	68d9      	ldr	r1, [r3, #12]
 8002292:	683b      	ldr	r3, [r7, #0]
 8002294:	681b      	ldr	r3, [r3, #0]
 8002296:	b29b      	uxth	r3, r3
 8002298:	461a      	mov	r2, r3
 800229a:	4613      	mov	r3, r2
 800229c:	005b      	lsls	r3, r3, #1
 800229e:	4413      	add	r3, r2
 80022a0:	3b1e      	subs	r3, #30
 80022a2:	2207      	movs	r2, #7
 80022a4:	fa02 f303 	lsl.w	r3, r2, r3
 80022a8:	43da      	mvns	r2, r3
 80022aa:	687b      	ldr	r3, [r7, #4]
 80022ac:	681b      	ldr	r3, [r3, #0]
 80022ae:	400a      	ands	r2, r1
 80022b0:	60da      	str	r2, [r3, #12]

    /* Set the new sample time */
    hadc->Instance->SMPR1 |= ADC_SMPR1(sConfig->SamplingTime, sConfig->Channel);
 80022b2:	687b      	ldr	r3, [r7, #4]
 80022b4:	681b      	ldr	r3, [r3, #0]
 80022b6:	68d9      	ldr	r1, [r3, #12]
 80022b8:	683b      	ldr	r3, [r7, #0]
 80022ba:	689a      	ldr	r2, [r3, #8]
 80022bc:	683b      	ldr	r3, [r7, #0]
 80022be:	681b      	ldr	r3, [r3, #0]
 80022c0:	b29b      	uxth	r3, r3
 80022c2:	4618      	mov	r0, r3
 80022c4:	4603      	mov	r3, r0
 80022c6:	005b      	lsls	r3, r3, #1
 80022c8:	4403      	add	r3, r0
 80022ca:	3b1e      	subs	r3, #30
 80022cc:	409a      	lsls	r2, r3
 80022ce:	687b      	ldr	r3, [r7, #4]
 80022d0:	681b      	ldr	r3, [r3, #0]
 80022d2:	430a      	orrs	r2, r1
 80022d4:	60da      	str	r2, [r3, #12]
 80022d6:	e022      	b.n	800231e <HAL_ADC_ConfigChannel+0xbe>
  }
  else /* ADC_Channel include in ADC_Channel_[0..9] */
  {
    /* Clear the old sample time */
    hadc->Instance->SMPR2 &= ~ADC_SMPR2(ADC_SMPR2_SMP0, sConfig->Channel);
 80022d8:	687b      	ldr	r3, [r7, #4]
 80022da:	681b      	ldr	r3, [r3, #0]
 80022dc:	6919      	ldr	r1, [r3, #16]
 80022de:	683b      	ldr	r3, [r7, #0]
 80022e0:	681b      	ldr	r3, [r3, #0]
 80022e2:	b29b      	uxth	r3, r3
 80022e4:	461a      	mov	r2, r3
 80022e6:	4613      	mov	r3, r2
 80022e8:	005b      	lsls	r3, r3, #1
 80022ea:	4413      	add	r3, r2
 80022ec:	2207      	movs	r2, #7
 80022ee:	fa02 f303 	lsl.w	r3, r2, r3
 80022f2:	43da      	mvns	r2, r3
 80022f4:	687b      	ldr	r3, [r7, #4]
 80022f6:	681b      	ldr	r3, [r3, #0]
 80022f8:	400a      	ands	r2, r1
 80022fa:	611a      	str	r2, [r3, #16]

    /* Set the new sample time */
    hadc->Instance->SMPR2 |= ADC_SMPR2(sConfig->SamplingTime, sConfig->Channel);
 80022fc:	687b      	ldr	r3, [r7, #4]
 80022fe:	681b      	ldr	r3, [r3, #0]
 8002300:	6919      	ldr	r1, [r3, #16]
 8002302:	683b      	ldr	r3, [r7, #0]
 8002304:	689a      	ldr	r2, [r3, #8]
 8002306:	683b      	ldr	r3, [r7, #0]
 8002308:	681b      	ldr	r3, [r3, #0]
 800230a:	b29b      	uxth	r3, r3
 800230c:	4618      	mov	r0, r3
 800230e:	4603      	mov	r3, r0
 8002310:	005b      	lsls	r3, r3, #1
 8002312:	4403      	add	r3, r0
 8002314:	409a      	lsls	r2, r3
 8002316:	687b      	ldr	r3, [r7, #4]
 8002318:	681b      	ldr	r3, [r3, #0]
 800231a:	430a      	orrs	r2, r1
 800231c:	611a      	str	r2, [r3, #16]
  }

  /* For Rank 1 to 6 */
  if (sConfig->Rank < 7U)
 800231e:	683b      	ldr	r3, [r7, #0]
 8002320:	685b      	ldr	r3, [r3, #4]
 8002322:	2b06      	cmp	r3, #6
 8002324:	d824      	bhi.n	8002370 <HAL_ADC_ConfigChannel+0x110>
  {
    /* Clear the old SQx bits for the selected rank */
    hadc->Instance->SQR3 &= ~ADC_SQR3_RK(ADC_SQR3_SQ1, sConfig->Rank);
 8002326:	687b      	ldr	r3, [r7, #4]
 8002328:	681b      	ldr	r3, [r3, #0]
 800232a:	6b59      	ldr	r1, [r3, #52]	@ 0x34
 800232c:	683b      	ldr	r3, [r7, #0]
 800232e:	685a      	ldr	r2, [r3, #4]
 8002330:	4613      	mov	r3, r2
 8002332:	009b      	lsls	r3, r3, #2
 8002334:	4413      	add	r3, r2
 8002336:	3b05      	subs	r3, #5
 8002338:	221f      	movs	r2, #31
 800233a:	fa02 f303 	lsl.w	r3, r2, r3
 800233e:	43da      	mvns	r2, r3
 8002340:	687b      	ldr	r3, [r7, #4]
 8002342:	681b      	ldr	r3, [r3, #0]
 8002344:	400a      	ands	r2, r1
 8002346:	635a      	str	r2, [r3, #52]	@ 0x34

    /* Set the SQx bits for the selected rank */
    hadc->Instance->SQR3 |= ADC_SQR3_RK(sConfig->Channel, sConfig->Rank);
 8002348:	687b      	ldr	r3, [r7, #4]
 800234a:	681b      	ldr	r3, [r3, #0]
 800234c:	6b59      	ldr	r1, [r3, #52]	@ 0x34
 800234e:	683b      	ldr	r3, [r7, #0]
 8002350:	681b      	ldr	r3, [r3, #0]
 8002352:	b29b      	uxth	r3, r3
 8002354:	4618      	mov	r0, r3
 8002356:	683b      	ldr	r3, [r7, #0]
 8002358:	685a      	ldr	r2, [r3, #4]
 800235a:	4613      	mov	r3, r2
 800235c:	009b      	lsls	r3, r3, #2
 800235e:	4413      	add	r3, r2
 8002360:	3b05      	subs	r3, #5
 8002362:	fa00 f203 	lsl.w	r2, r0, r3
 8002366:	687b      	ldr	r3, [r7, #4]
 8002368:	681b      	ldr	r3, [r3, #0]
 800236a:	430a      	orrs	r2, r1
 800236c:	635a      	str	r2, [r3, #52]	@ 0x34
 800236e:	e04c      	b.n	800240a <HAL_ADC_ConfigChannel+0x1aa>
  }
  /* For Rank 7 to 12 */
  else if (sConfig->Rank < 13U)
 8002370:	683b      	ldr	r3, [r7, #0]
 8002372:	685b      	ldr	r3, [r3, #4]
 8002374:	2b0c      	cmp	r3, #12
 8002376:	d824      	bhi.n	80023c2 <HAL_ADC_ConfigChannel+0x162>
  {
    /* Clear the old SQx bits for the selected rank */
    hadc->Instance->SQR2 &= ~ADC_SQR2_RK(ADC_SQR2_SQ7, sConfig->Rank);
 8002378:	687b      	ldr	r3, [r7, #4]
 800237a:	681b      	ldr	r3, [r3, #0]
 800237c:	6b19      	ldr	r1, [r3, #48]	@ 0x30
 800237e:	683b      	ldr	r3, [r7, #0]
 8002380:	685a      	ldr	r2, [r3, #4]
 8002382:	4613      	mov	r3, r2
 8002384:	009b      	lsls	r3, r3, #2
 8002386:	4413      	add	r3, r2
 8002388:	3b23      	subs	r3, #35	@ 0x23
 800238a:	221f      	movs	r2, #31
 800238c:	fa02 f303 	lsl.w	r3, r2, r3
 8002390:	43da      	mvns	r2, r3
 8002392:	687b      	ldr	r3, [r7, #4]
 8002394:	681b      	ldr	r3, [r3, #0]
 8002396:	400a      	ands	r2, r1
 8002398:	631a      	str	r2, [r3, #48]	@ 0x30

    /* Set the SQx bits for the selected rank */
    hadc->Instance->SQR2 |= ADC_SQR2_RK(sConfig->Channel, sConfig->Rank);
 800239a:	687b      	ldr	r3, [r7, #4]
 800239c:	681b      	ldr	r3, [r3, #0]
 800239e:	6b19      	ldr	r1, [r3, #48]	@ 0x30
 80023a0:	683b      	ldr	r3, [r7, #0]
 80023a2:	681b      	ldr	r3, [r3, #0]
 80023a4:	b29b      	uxth	r3, r3
 80023a6:	4618      	mov	r0, r3
 80023a8:	683b      	ldr	r3, [r7, #0]
 80023aa:	685a      	ldr	r2, [r3, #4]
 80023ac:	4613      	mov	r3, r2
 80023ae:	009b      	lsls	r3, r3, #2
 80023b0:	4413      	add	r3, r2
 80023b2:	3b23      	subs	r3, #35	@ 0x23
 80023b4:	fa00 f203 	lsl.w	r2, r0, r3
 80023b8:	687b      	ldr	r3, [r7, #4]
 80023ba:	681b      	ldr	r3, [r3, #0]
 80023bc:	430a      	orrs	r2, r1
 80023be:	631a      	str	r2, [r3, #48]	@ 0x30
 80023c0:	e023      	b.n	800240a <HAL_ADC_ConfigChannel+0x1aa>
  }
  /* For Rank 13 to 16 */
  else
  {
    /* Clear the old SQx bits for the selected rank */
    hadc->Instance->SQR1 &= ~ADC_SQR1_RK(ADC_SQR1_SQ13, sConfig->Rank);
 80023c2:	687b      	ldr	r3, [r7, #4]
 80023c4:	681b      	ldr	r3, [r3, #0]
 80023c6:	6ad9      	ldr	r1, [r3, #44]	@ 0x2c
 80023c8:	683b      	ldr	r3, [r7, #0]
 80023ca:	685a      	ldr	r2, [r3, #4]
 80023cc:	4613      	mov	r3, r2
 80023ce:	009b      	lsls	r3, r3, #2
 80023d0:	4413      	add	r3, r2
 80023d2:	3b41      	subs	r3, #65	@ 0x41
 80023d4:	221f      	movs	r2, #31
 80023d6:	fa02 f303 	lsl.w	r3, r2, r3
 80023da:	43da      	mvns	r2, r3
 80023dc:	687b      	ldr	r3, [r7, #4]
 80023de:	681b      	ldr	r3, [r3, #0]
 80023e0:	400a      	ands	r2, r1
 80023e2:	62da      	str	r2, [r3, #44]	@ 0x2c

    /* Set the SQx bits for the selected rank */
    hadc->Instance->SQR1 |= ADC_SQR1_RK(sConfig->Channel, sConfig->Rank);
 80023e4:	687b      	ldr	r3, [r7, #4]
 80023e6:	681b      	ldr	r3, [r3, #0]
 80023e8:	6ad9      	ldr	r1, [r3, #44]	@ 0x2c
 80023ea:	683b      	ldr	r3, [r7, #0]
 80023ec:	681b      	ldr	r3, [r3, #0]
 80023ee:	b29b      	uxth	r3, r3
 80023f0:	4618      	mov	r0, r3
 80023f2:	683b      	ldr	r3, [r7, #0]
 80023f4:	685a      	ldr	r2, [r3, #4]
 80023f6:	4613      	mov	r3, r2
 80023f8:	009b      	lsls	r3, r3, #2
 80023fa:	4413      	add	r3, r2
 80023fc:	3b41      	subs	r3, #65	@ 0x41
 80023fe:	fa00 f203 	lsl.w	r2, r0, r3
 8002402:	687b      	ldr	r3, [r7, #4]
 8002404:	681b      	ldr	r3, [r3, #0]
 8002406:	430a      	orrs	r2, r1
 8002408:	62da      	str	r2, [r3, #44]	@ 0x2c
  }

  /* Pointer to the common control register to which is belonging hadc    */
  /* (Depending on STM32F4 product, there may be up to 3 ADCs and 1 common */
  /* control register)                                                    */
  tmpADC_Common = ADC_COMMON_REGISTER(hadc);
 800240a:	4b22      	ldr	r3, [pc, #136]	@ (8002494 <HAL_ADC_ConfigChannel+0x234>)
 800240c:	60fb      	str	r3, [r7, #12]

  /* if ADC1 Channel_18 is selected for VBAT Channel ennable VBATE */
  if ((hadc->Instance == ADC1) && (sConfig->Channel == ADC_CHANNEL_VBAT))
 800240e:	687b      	ldr	r3, [r7, #4]
 8002410:	681b      	ldr	r3, [r3, #0]
 8002412:	4a21      	ldr	r2, [pc, #132]	@ (8002498 <HAL_ADC_ConfigChannel+0x238>)
 8002414:	4293      	cmp	r3, r2
 8002416:	d109      	bne.n	800242c <HAL_ADC_ConfigChannel+0x1cc>
 8002418:	683b      	ldr	r3, [r7, #0]
 800241a:	681b      	ldr	r3, [r3, #0]
 800241c:	2b12      	cmp	r3, #18
 800241e:	d105      	bne.n	800242c <HAL_ADC_ConfigChannel+0x1cc>
    if ((uint16_t)ADC_CHANNEL_TEMPSENSOR == (uint16_t)ADC_CHANNEL_VBAT)
    {
      tmpADC_Common->CCR &= ~ADC_CCR_TSVREFE;
    }
    /* Enable the VBAT channel*/
    tmpADC_Common->CCR |= ADC_CCR_VBATE;
 8002420:	68fb      	ldr	r3, [r7, #12]
 8002422:	685b      	ldr	r3, [r3, #4]
 8002424:	f443 0280 	orr.w	r2, r3, #4194304	@ 0x400000
 8002428:	68fb      	ldr	r3, [r7, #12]
 800242a:	605a      	str	r2, [r3, #4]
  }

  /* if ADC1 Channel_16 or Channel_18 is selected for Temperature sensor or
     Channel_17 is selected for VREFINT enable TSVREFE */
  if ((hadc->Instance == ADC1) && ((sConfig->Channel == ADC_CHANNEL_TEMPSENSOR) || (sConfig->Channel == ADC_CHANNEL_VREFINT)))
 800242c:	687b      	ldr	r3, [r7, #4]
 800242e:	681b      	ldr	r3, [r3, #0]
 8002430:	4a19      	ldr	r2, [pc, #100]	@ (8002498 <HAL_ADC_ConfigChannel+0x238>)
 8002432:	4293      	cmp	r3, r2
 8002434:	d123      	bne.n	800247e <HAL_ADC_ConfigChannel+0x21e>
 8002436:	683b      	ldr	r3, [r7, #0]
 8002438:	681b      	ldr	r3, [r3, #0]
 800243a:	2b10      	cmp	r3, #16
 800243c:	d003      	beq.n	8002446 <HAL_ADC_ConfigChannel+0x1e6>
 800243e:	683b      	ldr	r3, [r7, #0]
 8002440:	681b      	ldr	r3, [r3, #0]
 8002442:	2b11      	cmp	r3, #17
 8002444:	d11b      	bne.n	800247e <HAL_ADC_ConfigChannel+0x21e>
    if ((uint16_t)ADC_CHANNEL_TEMPSENSOR == (uint16_t)ADC_CHANNEL_VBAT)
    {
      tmpADC_Common->CCR &= ~ADC_CCR_VBATE;
    }
    /* Enable the Temperature sensor and VREFINT channel*/
    tmpADC_Common->CCR |= ADC_CCR_TSVREFE;
 8002446:	68fb      	ldr	r3, [r7, #12]
 8002448:	685b      	ldr	r3, [r3, #4]
 800244a:	f443 0200 	orr.w	r2, r3, #8388608	@ 0x800000
 800244e:	68fb      	ldr	r3, [r7, #12]
 8002450:	605a      	str	r2, [r3, #4]

    if (sConfig->Channel == ADC_CHANNEL_TEMPSENSOR)
 8002452:	683b      	ldr	r3, [r7, #0]
 8002454:	681b      	ldr	r3, [r3, #0]
 8002456:	2b10      	cmp	r3, #16
 8002458:	d111      	bne.n	800247e <HAL_ADC_ConfigChannel+0x21e>
    {
      /* Delay for temperature sensor stabilization time */
      /* Compute number of CPU cycles to wait for */
      counter = (ADC_TEMPSENSOR_DELAY_US * (SystemCoreClock / 1000000U));
 800245a:	4b10      	ldr	r3, [pc, #64]	@ (800249c <HAL_ADC_ConfigChannel+0x23c>)
 800245c:	681b      	ldr	r3, [r3, #0]
 800245e:	4a10      	ldr	r2, [pc, #64]	@ (80024a0 <HAL_ADC_ConfigChannel+0x240>)
 8002460:	fba2 2303 	umull	r2, r3, r2, r3
 8002464:	0c9a      	lsrs	r2, r3, #18
 8002466:	4613      	mov	r3, r2
 8002468:	009b      	lsls	r3, r3, #2
 800246a:	4413      	add	r3, r2
 800246c:	005b      	lsls	r3, r3, #1
 800246e:	60bb      	str	r3, [r7, #8]
      while (counter != 0U)
 8002470:	e002      	b.n	8002478 <HAL_ADC_ConfigChannel+0x218>
      {
        counter--;
 8002472:	68bb      	ldr	r3, [r7, #8]
 8002474:	3b01      	subs	r3, #1
 8002476:	60bb      	str	r3, [r7, #8]
      while (counter != 0U)
 8002478:	68bb      	ldr	r3, [r7, #8]
 800247a:	2b00      	cmp	r3, #0
 800247c:	d1f9      	bne.n	8002472 <HAL_ADC_ConfigChannel+0x212>
      }
    }
  }

  /* Process unlocked */
  __HAL_UNLOCK(hadc);
 800247e:	687b      	ldr	r3, [r7, #4]
 8002480:	2200      	movs	r2, #0
 8002482:	f883 203c 	strb.w	r2, [r3, #60]	@ 0x3c

  /* Return function status */
  return HAL_OK;
 8002486:	2300      	movs	r3, #0
}
 8002488:	4618      	mov	r0, r3
 800248a:	3714      	adds	r7, #20
 800248c:	46bd      	mov	sp, r7
 800248e:	f85d 7b04 	ldr.w	r7, [sp], #4
 8002492:	4770      	bx	lr
 8002494:	40012300 	.word	0x40012300
 8002498:	40012000 	.word	0x40012000
 800249c:	20000000 	.word	0x20000000
 80024a0:	431bde83 	.word	0x431bde83

080024a4 <ADC_Init>:
  * @param  hadc pointer to a ADC_HandleTypeDef structure that contains
  *         the configuration information for the specified ADC.
  * @retval None
  */
static void ADC_Init(ADC_HandleTypeDef *hadc)
{
 80024a4:	b480      	push	{r7}
 80024a6:	b085      	sub	sp, #20
 80024a8:	af00      	add	r7, sp, #0
 80024aa:	6078      	str	r0, [r7, #4]

  /* Set ADC parameters */
  /* Pointer to the common control register to which is belonging hadc    */
  /* (Depending on STM32F4 product, there may be up to 3 ADCs and 1 common */
  /* control register)                                                    */
  tmpADC_Common = ADC_COMMON_REGISTER(hadc);
 80024ac:	4b79      	ldr	r3, [pc, #484]	@ (8002694 <ADC_Init+0x1f0>)
 80024ae:	60fb      	str	r3, [r7, #12]

  /* Set the ADC clock prescaler */
  tmpADC_Common->CCR &= ~(ADC_CCR_ADCPRE);
 80024b0:	68fb      	ldr	r3, [r7, #12]
 80024b2:	685b      	ldr	r3, [r3, #4]
 80024b4:	f423 3240 	bic.w	r2, r3, #196608	@ 0x30000
 80024b8:	68fb      	ldr	r3, [r7, #12]
 80024ba:	605a      	str	r2, [r3, #4]
  tmpADC_Common->CCR |=  hadc->Init.ClockPrescaler;
 80024bc:	68fb      	ldr	r3, [r7, #12]
 80024be:	685a      	ldr	r2, [r3, #4]
 80024c0:	687b      	ldr	r3, [r7, #4]
 80024c2:	685b      	ldr	r3, [r3, #4]
 80024c4:	431a      	orrs	r2, r3
 80024c6:	68fb      	ldr	r3, [r7, #12]
 80024c8:	605a      	str	r2, [r3, #4]

  /* Set ADC scan mode */
  hadc->Instance->CR1 &= ~(ADC_CR1_SCAN);
 80024ca:	687b      	ldr	r3, [r7, #4]
 80024cc:	681b      	ldr	r3, [r3, #0]
 80024ce:	685a      	ldr	r2, [r3, #4]
 80024d0:	687b      	ldr	r3, [r7, #4]
 80024d2:	681b      	ldr	r3, [r3, #0]
 80024d4:	f422 7280 	bic.w	r2, r2, #256	@ 0x100
 80024d8:	605a      	str	r2, [r3, #4]
  hadc->Instance->CR1 |=  ADC_CR1_SCANCONV(hadc->Init.ScanConvMode);
 80024da:	687b      	ldr	r3, [r7, #4]
 80024dc:	681b      	ldr	r3, [r3, #0]
 80024de:	6859      	ldr	r1, [r3, #4]
 80024e0:	687b      	ldr	r3, [r7, #4]
 80024e2:	691b      	ldr	r3, [r3, #16]
 80024e4:	021a      	lsls	r2, r3, #8
 80024e6:	687b      	ldr	r3, [r7, #4]
 80024e8:	681b      	ldr	r3, [r3, #0]
 80024ea:	430a      	orrs	r2, r1
 80024ec:	605a      	str	r2, [r3, #4]

  /* Set ADC resolution */
  hadc->Instance->CR1 &= ~(ADC_CR1_RES);
 80024ee:	687b      	ldr	r3, [r7, #4]
 80024f0:	681b      	ldr	r3, [r3, #0]
 80024f2:	685a      	ldr	r2, [r3, #4]
 80024f4:	687b      	ldr	r3, [r7, #4]
 80024f6:	681b      	ldr	r3, [r3, #0]
 80024f8:	f022 7240 	bic.w	r2, r2, #50331648	@ 0x3000000
 80024fc:	605a      	str	r2, [r3, #4]
  hadc->Instance->CR1 |=  hadc->Init.Resolution;
 80024fe:	687b      	ldr	r3, [r7, #4]
 8002500:	681b      	ldr	r3, [r3, #0]
 8002502:	6859      	ldr	r1, [r3, #4]
 8002504:	687b      	ldr	r3, [r7, #4]
 8002506:	689a      	ldr	r2, [r3, #8]
 8002508:	687b      	ldr	r3, [r7, #4]
 800250a:	681b      	ldr	r3, [r3, #0]
 800250c:	430a      	orrs	r2, r1
 800250e:	605a      	str	r2, [r3, #4]

  /* Set ADC data alignment */
  hadc->Instance->CR2 &= ~(ADC_CR2_ALIGN);
 8002510:	687b      	ldr	r3, [r7, #4]
 8002512:	681b      	ldr	r3, [r3, #0]
 8002514:	689a      	ldr	r2, [r3, #8]
 8002516:	687b      	ldr	r3, [r7, #4]
 8002518:	681b      	ldr	r3, [r3, #0]
 800251a:	f422 6200 	bic.w	r2, r2, #2048	@ 0x800
 800251e:	609a      	str	r2, [r3, #8]
  hadc->Instance->CR2 |= hadc->Init.DataAlign;
 8002520:	687b      	ldr	r3, [r7, #4]
 8002522:	681b      	ldr	r3, [r3, #0]
 8002524:	6899      	ldr	r1, [r3, #8]
 8002526:	687b      	ldr	r3, [r7, #4]
 8002528:	68da      	ldr	r2, [r3, #12]
 800252a:	687b      	ldr	r3, [r7, #4]
 800252c:	681b      	ldr	r3, [r3, #0]
 800252e:	430a      	orrs	r2, r1
 8002530:	609a      	str	r2, [r3, #8]
  /* Enable external trigger if trigger selection is different of software  */
  /* start.                                                                 */
  /* Note: This configuration keeps the hardware feature of parameter       */
  /*       ExternalTrigConvEdge "trigger edge none" equivalent to           */
  /*       software start.                                                  */
  if (hadc->Init.ExternalTrigConv != ADC_SOFTWARE_START)
 8002532:	687b      	ldr	r3, [r7, #4]
 8002534:	6a9b      	ldr	r3, [r3, #40]	@ 0x28
 8002536:	4a58      	ldr	r2, [pc, #352]	@ (8002698 <ADC_Init+0x1f4>)
 8002538:	4293      	cmp	r3, r2
 800253a:	d022      	beq.n	8002582 <ADC_Init+0xde>
  {
    /* Select external trigger to start conversion */
    hadc->Instance->CR2 &= ~(ADC_CR2_EXTSEL);
 800253c:	687b      	ldr	r3, [r7, #4]
 800253e:	681b      	ldr	r3, [r3, #0]
 8002540:	689a      	ldr	r2, [r3, #8]
 8002542:	687b      	ldr	r3, [r7, #4]
 8002544:	681b      	ldr	r3, [r3, #0]
 8002546:	f022 6270 	bic.w	r2, r2, #251658240	@ 0xf000000
 800254a:	609a      	str	r2, [r3, #8]
    hadc->Instance->CR2 |= hadc->Init.ExternalTrigConv;
 800254c:	687b      	ldr	r3, [r7, #4]
 800254e:	681b      	ldr	r3, [r3, #0]
 8002550:	6899      	ldr	r1, [r3, #8]
 8002552:	687b      	ldr	r3, [r7, #4]
 8002554:	6a9a      	ldr	r2, [r3, #40]	@ 0x28
 8002556:	687b      	ldr	r3, [r7, #4]
 8002558:	681b      	ldr	r3, [r3, #0]
 800255a:	430a      	orrs	r2, r1
 800255c:	609a      	str	r2, [r3, #8]

    /* Select external trigger polarity */
    hadc->Instance->CR2 &= ~(ADC_CR2_EXTEN);
 800255e:	687b      	ldr	r3, [r7, #4]
 8002560:	681b      	ldr	r3, [r3, #0]
 8002562:	689a      	ldr	r2, [r3, #8]
 8002564:	687b      	ldr	r3, [r7, #4]
 8002566:	681b      	ldr	r3, [r3, #0]
 8002568:	f022 5240 	bic.w	r2, r2, #805306368	@ 0x30000000
 800256c:	609a      	str	r2, [r3, #8]
    hadc->Instance->CR2 |= hadc->Init.ExternalTrigConvEdge;
 800256e:	687b      	ldr	r3, [r7, #4]
 8002570:	681b      	ldr	r3, [r3, #0]
 8002572:	6899      	ldr	r1, [r3, #8]
 8002574:	687b      	ldr	r3, [r7, #4]
 8002576:	6ada      	ldr	r2, [r3, #44]	@ 0x2c
 8002578:	687b      	ldr	r3, [r7, #4]
 800257a:	681b      	ldr	r3, [r3, #0]
 800257c:	430a      	orrs	r2, r1
 800257e:	609a      	str	r2, [r3, #8]
 8002580:	e00f      	b.n	80025a2 <ADC_Init+0xfe>
  }
  else
  {
    /* Reset the external trigger */
    hadc->Instance->CR2 &= ~(ADC_CR2_EXTSEL);
 8002582:	687b      	ldr	r3, [r7, #4]
 8002584:	681b      	ldr	r3, [r3, #0]
 8002586:	689a      	ldr	r2, [r3, #8]
 8002588:	687b      	ldr	r3, [r7, #4]
 800258a:	681b      	ldr	r3, [r3, #0]
 800258c:	f022 6270 	bic.w	r2, r2, #251658240	@ 0xf000000
 8002590:	609a      	str	r2, [r3, #8]
    hadc->Instance->CR2 &= ~(ADC_CR2_EXTEN);
 8002592:	687b      	ldr	r3, [r7, #4]
 8002594:	681b      	ldr	r3, [r3, #0]
 8002596:	689a      	ldr	r2, [r3, #8]
 8002598:	687b      	ldr	r3, [r7, #4]
 800259a:	681b      	ldr	r3, [r3, #0]
 800259c:	f022 5240 	bic.w	r2, r2, #805306368	@ 0x30000000
 80025a0:	609a      	str	r2, [r3, #8]
  }

  /* Enable or disable ADC continuous conversion mode */
  hadc->Instance->CR2 &= ~(ADC_CR2_CONT);
 80025a2:	687b      	ldr	r3, [r7, #4]
 80025a4:	681b      	ldr	r3, [r3, #0]
 80025a6:	689a      	ldr	r2, [r3, #8]
 80025a8:	687b      	ldr	r3, [r7, #4]
 80025aa:	681b      	ldr	r3, [r3, #0]
 80025ac:	f022 0202 	bic.w	r2, r2, #2
 80025b0:	609a      	str	r2, [r3, #8]
  hadc->Instance->CR2 |= ADC_CR2_CONTINUOUS((uint32_t)hadc->Init.ContinuousConvMode);
 80025b2:	687b      	ldr	r3, [r7, #4]
 80025b4:	681b      	ldr	r3, [r3, #0]
 80025b6:	6899      	ldr	r1, [r3, #8]
 80025b8:	687b      	ldr	r3, [r7, #4]
 80025ba:	7e1b      	ldrb	r3, [r3, #24]
 80025bc:	005a      	lsls	r2, r3, #1
 80025be:	687b      	ldr	r3, [r7, #4]
 80025c0:	681b      	ldr	r3, [r3, #0]
 80025c2:	430a      	orrs	r2, r1
 80025c4:	609a      	str	r2, [r3, #8]

  if (hadc->Init.DiscontinuousConvMode != DISABLE)
 80025c6:	687b      	ldr	r3, [r7, #4]
 80025c8:	f893 3020 	ldrb.w	r3, [r3, #32]
 80025cc:	2b00      	cmp	r3, #0
 80025ce:	d01b      	beq.n	8002608 <ADC_Init+0x164>
  {
    assert_param(IS_ADC_REGULAR_DISC_NUMBER(hadc->Init.NbrOfDiscConversion));

    /* Enable the selected ADC regular discontinuous mode */
    hadc->Instance->CR1 |= (uint32_t)ADC_CR1_DISCEN;
 80025d0:	687b      	ldr	r3, [r7, #4]
 80025d2:	681b      	ldr	r3, [r3, #0]
 80025d4:	685a      	ldr	r2, [r3, #4]
 80025d6:	687b      	ldr	r3, [r7, #4]
 80025d8:	681b      	ldr	r3, [r3, #0]
 80025da:	f442 6200 	orr.w	r2, r2, #2048	@ 0x800
 80025de:	605a      	str	r2, [r3, #4]

    /* Set the number of channels to be converted in discontinuous mode */
    hadc->Instance->CR1 &= ~(ADC_CR1_DISCNUM);
 80025e0:	687b      	ldr	r3, [r7, #4]
 80025e2:	681b      	ldr	r3, [r3, #0]
 80025e4:	685a      	ldr	r2, [r3, #4]
 80025e6:	687b      	ldr	r3, [r7, #4]
 80025e8:	681b      	ldr	r3, [r3, #0]
 80025ea:	f422 4260 	bic.w	r2, r2, #57344	@ 0xe000
 80025ee:	605a      	str	r2, [r3, #4]
    hadc->Instance->CR1 |=  ADC_CR1_DISCONTINUOUS(hadc->Init.NbrOfDiscConversion);
 80025f0:	687b      	ldr	r3, [r7, #4]
 80025f2:	681b      	ldr	r3, [r3, #0]
 80025f4:	6859      	ldr	r1, [r3, #4]
 80025f6:	687b      	ldr	r3, [r7, #4]
 80025f8:	6a5b      	ldr	r3, [r3, #36]	@ 0x24
 80025fa:	3b01      	subs	r3, #1
 80025fc:	035a      	lsls	r2, r3, #13
 80025fe:	687b      	ldr	r3, [r7, #4]
 8002600:	681b      	ldr	r3, [r3, #0]
 8002602:	430a      	orrs	r2, r1
 8002604:	605a      	str	r2, [r3, #4]
 8002606:	e007      	b.n	8002618 <ADC_Init+0x174>
  }
  else
  {
    /* Disable the selected ADC regular discontinuous mode */
    hadc->Instance->CR1 &= ~(ADC_CR1_DISCEN);
 8002608:	687b      	ldr	r3, [r7, #4]
 800260a:	681b      	ldr	r3, [r3, #0]
 800260c:	685a      	ldr	r2, [r3, #4]
 800260e:	687b      	ldr	r3, [r7, #4]
 8002610:	681b      	ldr	r3, [r3, #0]
 8002612:	f422 6200 	bic.w	r2, r2, #2048	@ 0x800
 8002616:	605a      	str	r2, [r3, #4]
  }

  /* Set ADC number of conversion */
  hadc->Instance->SQR1 &= ~(ADC_SQR1_L);
 8002618:	687b      	ldr	r3, [r7, #4]
 800261a:	681b      	ldr	r3, [r3, #0]
 800261c:	6ada      	ldr	r2, [r3, #44]	@ 0x2c
 800261e:	687b      	ldr	r3, [r7, #4]
 8002620:	681b      	ldr	r3, [r3, #0]
 8002622:	f422 0270 	bic.w	r2, r2, #15728640	@ 0xf00000
 8002626:	62da      	str	r2, [r3, #44]	@ 0x2c
  hadc->Instance->SQR1 |=  ADC_SQR1(hadc->Init.NbrOfConversion);
 8002628:	687b      	ldr	r3, [r7, #4]
 800262a:	681b      	ldr	r3, [r3, #0]
 800262c:	6ad9      	ldr	r1, [r3, #44]	@ 0x2c
 800262e:	687b      	ldr	r3, [r7, #4]
 8002630:	69db      	ldr	r3, [r3, #28]
 8002632:	3b01      	subs	r3, #1
 8002634:	051a      	lsls	r2, r3, #20
 8002636:	687b      	ldr	r3, [r7, #4]
 8002638:	681b      	ldr	r3, [r3, #0]
 800263a:	430a      	orrs	r2, r1
 800263c:	62da      	str	r2, [r3, #44]	@ 0x2c

  /* Enable or disable ADC DMA continuous request */
  hadc->Instance->CR2 &= ~(ADC_CR2_DDS);
 800263e:	687b      	ldr	r3, [r7, #4]
 8002640:	681b      	ldr	r3, [r3, #0]
 8002642:	689a      	ldr	r2, [r3, #8]
 8002644:	687b      	ldr	r3, [r7, #4]
 8002646:	681b      	ldr	r3, [r3, #0]
 8002648:	f422 7200 	bic.w	r2, r2, #512	@ 0x200
 800264c:	609a      	str	r2, [r3, #8]
  hadc->Instance->CR2 |= ADC_CR2_DMAContReq((uint32_t)hadc->Init.DMAContinuousRequests);
 800264e:	687b      	ldr	r3, [r7, #4]
 8002650:	681b      	ldr	r3, [r3, #0]
 8002652:	6899      	ldr	r1, [r3, #8]
 8002654:	687b      	ldr	r3, [r7, #4]
 8002656:	f893 3030 	ldrb.w	r3, [r3, #48]	@ 0x30
 800265a:	025a      	lsls	r2, r3, #9
 800265c:	687b      	ldr	r3, [r7, #4]
 800265e:	681b      	ldr	r3, [r3, #0]
 8002660:	430a      	orrs	r2, r1
 8002662:	609a      	str	r2, [r3, #8]

  /* Enable or disable ADC end of conversion selection */
  hadc->Instance->CR2 &= ~(ADC_CR2_EOCS);
 8002664:	687b      	ldr	r3, [r7, #4]
 8002666:	681b      	ldr	r3, [r3, #0]
 8002668:	689a      	ldr	r2, [r3, #8]
 800266a:	687b      	ldr	r3, [r7, #4]
 800266c:	681b      	ldr	r3, [r3, #0]
 800266e:	f422 6280 	bic.w	r2, r2, #1024	@ 0x400
 8002672:	609a      	str	r2, [r3, #8]
  hadc->Instance->CR2 |= ADC_CR2_EOCSelection(hadc->Init.EOCSelection);
 8002674:	687b      	ldr	r3, [r7, #4]
 8002676:	681b      	ldr	r3, [r3, #0]
 8002678:	6899      	ldr	r1, [r3, #8]
 800267a:	687b      	ldr	r3, [r7, #4]
 800267c:	695b      	ldr	r3, [r3, #20]
 800267e:	029a      	lsls	r2, r3, #10
 8002680:	687b      	ldr	r3, [r7, #4]
 8002682:	681b      	ldr	r3, [r3, #0]
 8002684:	430a      	orrs	r2, r1
 8002686:	609a      	str	r2, [r3, #8]
}
 8002688:	bf00      	nop
 800268a:	3714      	adds	r7, #20
 800268c:	46bd      	mov	sp, r7
 800268e:	f85d 7b04 	ldr.w	r7, [sp], #4
 8002692:	4770      	bx	lr
 8002694:	40012300 	.word	0x40012300
 8002698:	0f000001 	.word	0x0f000001

0800269c <__NVIC_SetPriorityGrouping>:
           In case of a conflict between priority grouping and available
           priority bits (__NVIC_PRIO_BITS), the smallest possible priority group is set.
  \param [in]      PriorityGroup  Priority grouping field.
 */
__STATIC_INLINE void __NVIC_SetPriorityGrouping(uint32_t PriorityGroup)
{
 800269c:	b480      	push	{r7}
 800269e:	b085      	sub	sp, #20
 80026a0:	af00      	add	r7, sp, #0
 80026a2:	6078      	str	r0, [r7, #4]
  uint32_t reg_value;
  uint32_t PriorityGroupTmp = (PriorityGroup & (uint32_t)0x07UL);             /* only values 0..7 are used          */
 80026a4:	687b      	ldr	r3, [r7, #4]
 80026a6:	f003 0307 	and.w	r3, r3, #7
 80026aa:	60fb      	str	r3, [r7, #12]

  reg_value  =  SCB->AIRCR;                                                   /* read old register configuration    */
 80026ac:	4b0c      	ldr	r3, [pc, #48]	@ (80026e0 <__NVIC_SetPriorityGrouping+0x44>)
 80026ae:	68db      	ldr	r3, [r3, #12]
 80026b0:	60bb      	str	r3, [r7, #8]
  reg_value &= ~((uint32_t)(SCB_AIRCR_VECTKEY_Msk | SCB_AIRCR_PRIGROUP_Msk)); /* clear bits to change               */
 80026b2:	68ba      	ldr	r2, [r7, #8]
 80026b4:	f64f 03ff 	movw	r3, #63743	@ 0xf8ff
 80026b8:	4013      	ands	r3, r2
 80026ba:	60bb      	str	r3, [r7, #8]
  reg_value  =  (reg_value                                   |
                ((uint32_t)0x5FAUL << SCB_AIRCR_VECTKEY_Pos) |
                (PriorityGroupTmp << SCB_AIRCR_PRIGROUP_Pos)  );              /* Insert write key and priority group */
 80026bc:	68fb      	ldr	r3, [r7, #12]
 80026be:	021a      	lsls	r2, r3, #8
                ((uint32_t)0x5FAUL << SCB_AIRCR_VECTKEY_Pos) |
 80026c0:	68bb      	ldr	r3, [r7, #8]
 80026c2:	4313      	orrs	r3, r2
  reg_value  =  (reg_value                                   |
 80026c4:	f043 63bf 	orr.w	r3, r3, #100139008	@ 0x5f80000
 80026c8:	f443 3300 	orr.w	r3, r3, #131072	@ 0x20000
 80026cc:	60bb      	str	r3, [r7, #8]
  SCB->AIRCR =  reg_value;
 80026ce:	4a04      	ldr	r2, [pc, #16]	@ (80026e0 <__NVIC_SetPriorityGrouping+0x44>)
 80026d0:	68bb      	ldr	r3, [r7, #8]
 80026d2:	60d3      	str	r3, [r2, #12]
}
 80026d4:	bf00      	nop
 80026d6:	3714      	adds	r7, #20
 80026d8:	46bd      	mov	sp, r7
 80026da:	f85d 7b04 	ldr.w	r7, [sp], #4
 80026de:	4770      	bx	lr
 80026e0:	e000ed00 	.word	0xe000ed00

080026e4 <__NVIC_GetPriorityGrouping>:
  \brief   Get Priority Grouping
  \details Reads the priority grouping field from the NVIC Interrupt Controller.
  \return                Priority grouping field (SCB->AIRCR [10:8] PRIGROUP field).
 */
__STATIC_INLINE uint32_t __NVIC_GetPriorityGrouping(void)
{
 80026e4:	b480      	push	{r7}
 80026e6:	af00      	add	r7, sp, #0
  return ((uint32_t)((SCB->AIRCR & SCB_AIRCR_PRIGROUP_Msk) >> SCB_AIRCR_PRIGROUP_Pos));
 80026e8:	4b04      	ldr	r3, [pc, #16]	@ (80026fc <__NVIC_GetPriorityGrouping+0x18>)
 80026ea:	68db      	ldr	r3, [r3, #12]
 80026ec:	0a1b      	lsrs	r3, r3, #8
 80026ee:	f003 0307 	and.w	r3, r3, #7
}
 80026f2:	4618      	mov	r0, r3
 80026f4:	46bd      	mov	sp, r7
 80026f6:	f85d 7b04 	ldr.w	r7, [sp], #4
 80026fa:	4770      	bx	lr
 80026fc:	e000ed00 	.word	0xe000ed00

08002700 <__NVIC_EnableIRQ>:
  \details Enables a device specific interrupt in the NVIC interrupt controller.
  \param [in]      IRQn  Device specific interrupt number.
  \note    IRQn must not be negative.
 */
__STATIC_INLINE void __NVIC_EnableIRQ(IRQn_Type IRQn)
{
 8002700:	b480      	push	{r7}
 8002702:	b083      	sub	sp, #12
 8002704:	af00      	add	r7, sp, #0
 8002706:	4603      	mov	r3, r0
 8002708:	71fb      	strb	r3, [r7, #7]
  if ((int32_t)(IRQn) >= 0)
 800270a:	f997 3007 	ldrsb.w	r3, [r7, #7]
 800270e:	2b00      	cmp	r3, #0
 8002710:	db0b      	blt.n	800272a <__NVIC_EnableIRQ+0x2a>
  {
    __COMPILER_BARRIER();
    NVIC->ISER[(((uint32_t)IRQn) >> 5UL)] = (uint32_t)(1UL << (((uint32_t)IRQn) & 0x1FUL));
 8002712:	79fb      	ldrb	r3, [r7, #7]
 8002714:	f003 021f 	and.w	r2, r3, #31
 8002718:	4907      	ldr	r1, [pc, #28]	@ (8002738 <__NVIC_EnableIRQ+0x38>)
 800271a:	f997 3007 	ldrsb.w	r3, [r7, #7]
 800271e:	095b      	lsrs	r3, r3, #5
 8002720:	2001      	movs	r0, #1
 8002722:	fa00 f202 	lsl.w	r2, r0, r2
 8002726:	f841 2023 	str.w	r2, [r1, r3, lsl #2]
    __COMPILER_BARRIER();
  }
}
 800272a:	bf00      	nop
 800272c:	370c      	adds	r7, #12
 800272e:	46bd      	mov	sp, r7
 8002730:	f85d 7b04 	ldr.w	r7, [sp], #4
 8002734:	4770      	bx	lr
 8002736:	bf00      	nop
 8002738:	e000e100 	.word	0xe000e100

0800273c <__NVIC_SetPriority>:
  \param [in]      IRQn  Interrupt number.
  \param [in]  priority  Priority to set.
  \note    The priority cannot be set for every processor exception.
 */
__STATIC_INLINE void __NVIC_SetPriority(IRQn_Type IRQn, uint32_t priority)
{
 800273c:	b480      	push	{r7}
 800273e:	b083      	sub	sp, #12
 8002740:	af00      	add	r7, sp, #0
 8002742:	4603      	mov	r3, r0
 8002744:	6039      	str	r1, [r7, #0]
 8002746:	71fb      	strb	r3, [r7, #7]
  if ((int32_t)(IRQn) >= 0)
 8002748:	f997 3007 	ldrsb.w	r3, [r7, #7]
 800274c:	2b00      	cmp	r3, #0
 800274e:	db0a      	blt.n	8002766 <__NVIC_SetPriority+0x2a>
  {
    NVIC->IP[((uint32_t)IRQn)]               = (uint8_t)((priority << (8U - __NVIC_PRIO_BITS)) & (uint32_t)0xFFUL);
 8002750:	683b      	ldr	r3, [r7, #0]
 8002752:	b2da      	uxtb	r2, r3
 8002754:	490c      	ldr	r1, [pc, #48]	@ (8002788 <__NVIC_SetPriority+0x4c>)
 8002756:	f997 3007 	ldrsb.w	r3, [r7, #7]
 800275a:	0112      	lsls	r2, r2, #4
 800275c:	b2d2      	uxtb	r2, r2
 800275e:	440b      	add	r3, r1
 8002760:	f883 2300 	strb.w	r2, [r3, #768]	@ 0x300
  }
  else
  {
    SCB->SHP[(((uint32_t)IRQn) & 0xFUL)-4UL] = (uint8_t)((priority << (8U - __NVIC_PRIO_BITS)) & (uint32_t)0xFFUL);
  }
}
 8002764:	e00a      	b.n	800277c <__NVIC_SetPriority+0x40>
    SCB->SHP[(((uint32_t)IRQn) & 0xFUL)-4UL] = (uint8_t)((priority << (8U - __NVIC_PRIO_BITS)) & (uint32_t)0xFFUL);
 8002766:	683b      	ldr	r3, [r7, #0]
 8002768:	b2da      	uxtb	r2, r3
 800276a:	4908      	ldr	r1, [pc, #32]	@ (800278c <__NVIC_SetPriority+0x50>)
 800276c:	79fb      	ldrb	r3, [r7, #7]
 800276e:	f003 030f 	and.w	r3, r3, #15
 8002772:	3b04      	subs	r3, #4
 8002774:	0112      	lsls	r2, r2, #4
 8002776:	b2d2      	uxtb	r2, r2
 8002778:	440b      	add	r3, r1
 800277a:	761a      	strb	r2, [r3, #24]
}
 800277c:	bf00      	nop
 800277e:	370c      	adds	r7, #12
 8002780:	46bd      	mov	sp, r7
 8002782:	f85d 7b04 	ldr.w	r7, [sp], #4
 8002786:	4770      	bx	lr
 8002788:	e000e100 	.word	0xe000e100
 800278c:	e000ed00 	.word	0xe000ed00

08002790 <NVIC_EncodePriority>:
  \param [in]   PreemptPriority  Preemptive priority value (starting from 0).
  \param [in]       SubPriority  Subpriority value (starting from 0).
  \return                        Encoded priority. Value can be used in the function \ref NVIC_SetPriority().
 */
__STATIC_INLINE uint32_t NVIC_EncodePriority (uint32_t PriorityGroup, uint32_t PreemptPriority, uint32_t SubPriority)
{
 8002790:	b480      	push	{r7}
 8002792:	b089      	sub	sp, #36	@ 0x24
 8002794:	af00      	add	r7, sp, #0
 8002796:	60f8      	str	r0, [r7, #12]
 8002798:	60b9      	str	r1, [r7, #8]
 800279a:	607a      	str	r2, [r7, #4]
  uint32_t PriorityGroupTmp = (PriorityGroup & (uint32_t)0x07UL);   /* only values 0..7 are used          */
 800279c:	68fb      	ldr	r3, [r7, #12]
 800279e:	f003 0307 	and.w	r3, r3, #7
 80027a2:	61fb      	str	r3, [r7, #28]
  uint32_t PreemptPriorityBits;
  uint32_t SubPriorityBits;

  PreemptPriorityBits = ((7UL - PriorityGroupTmp) > (uint32_t)(__NVIC_PRIO_BITS)) ? (uint32_t)(__NVIC_PRIO_BITS) : (uint32_t)(7UL - PriorityGroupTmp);
 80027a4:	69fb      	ldr	r3, [r7, #28]
 80027a6:	f1c3 0307 	rsb	r3, r3, #7
 80027aa:	2b04      	cmp	r3, #4
 80027ac:	bf28      	it	cs
 80027ae:	2304      	movcs	r3, #4
 80027b0:	61bb      	str	r3, [r7, #24]
  SubPriorityBits     = ((PriorityGroupTmp + (uint32_t)(__NVIC_PRIO_BITS)) < (uint32_t)7UL) ? (uint32_t)0UL : (uint32_t)((PriorityGroupTmp - 7UL) + (uint32_t)(__NVIC_PRIO_BITS));
 80027b2:	69fb      	ldr	r3, [r7, #28]
 80027b4:	3304      	adds	r3, #4
 80027b6:	2b06      	cmp	r3, #6
 80027b8:	d902      	bls.n	80027c0 <NVIC_EncodePriority+0x30>
 80027ba:	69fb      	ldr	r3, [r7, #28]
 80027bc:	3b03      	subs	r3, #3
 80027be:	e000      	b.n	80027c2 <NVIC_EncodePriority+0x32>
 80027c0:	2300      	movs	r3, #0
 80027c2:	617b      	str	r3, [r7, #20]

  return (
           ((PreemptPriority & (uint32_t)((1UL << (PreemptPriorityBits)) - 1UL)) << SubPriorityBits) |
 80027c4:	f04f 32ff 	mov.w	r2, #4294967295
 80027c8:	69bb      	ldr	r3, [r7, #24]
 80027ca:	fa02 f303 	lsl.w	r3, r2, r3
 80027ce:	43da      	mvns	r2, r3
 80027d0:	68bb      	ldr	r3, [r7, #8]
 80027d2:	401a      	ands	r2, r3
 80027d4:	697b      	ldr	r3, [r7, #20]
 80027d6:	409a      	lsls	r2, r3
           ((SubPriority     & (uint32_t)((1UL << (SubPriorityBits    )) - 1UL)))
 80027d8:	f04f 31ff 	mov.w	r1, #4294967295
 80027dc:	697b      	ldr	r3, [r7, #20]
 80027de:	fa01 f303 	lsl.w	r3, r1, r3
 80027e2:	43d9      	mvns	r1, r3
 80027e4:	687b      	ldr	r3, [r7, #4]
 80027e6:	400b      	ands	r3, r1
           ((PreemptPriority & (uint32_t)((1UL << (PreemptPriorityBits)) - 1UL)) << SubPriorityBits) |
 80027e8:	4313      	orrs	r3, r2
         );
}
 80027ea:	4618      	mov	r0, r3
 80027ec:	3724      	adds	r7, #36	@ 0x24
 80027ee:	46bd      	mov	sp, r7
 80027f0:	f85d 7b04 	ldr.w	r7, [sp], #4
 80027f4:	4770      	bx	lr
	...

080027f8 <SysTick_Config>:
  \note    When the variable <b>__Vendor_SysTickConfig</b> is set to 1, then the
           function <b>SysTick_Config</b> is not included. In this case, the file <b><i>device</i>.h</b>
           must contain a vendor-specific implementation of this function.
 */
__STATIC_INLINE uint32_t SysTick_Config(uint32_t ticks)
{
 80027f8:	b580      	push	{r7, lr}
 80027fa:	b082      	sub	sp, #8
 80027fc:	af00      	add	r7, sp, #0
 80027fe:	6078      	str	r0, [r7, #4]
  if ((ticks - 1UL) > SysTick_LOAD_RELOAD_Msk)
 8002800:	687b      	ldr	r3, [r7, #4]
 8002802:	3b01      	subs	r3, #1
 8002804:	f1b3 7f80 	cmp.w	r3, #16777216	@ 0x1000000
 8002808:	d301      	bcc.n	800280e <SysTick_Config+0x16>
  {
    return (1UL);                                                   /* Reload value impossible */
 800280a:	2301      	movs	r3, #1
 800280c:	e00f      	b.n	800282e <SysTick_Config+0x36>
  }

  SysTick->LOAD  = (uint32_t)(ticks - 1UL);                         /* set reload register */
 800280e:	4a0a      	ldr	r2, [pc, #40]	@ (8002838 <SysTick_Config+0x40>)
 8002810:	687b      	ldr	r3, [r7, #4]
 8002812:	3b01      	subs	r3, #1
 8002814:	6053      	str	r3, [r2, #4]
  NVIC_SetPriority (SysTick_IRQn, (1UL << __NVIC_PRIO_BITS) - 1UL); /* set Priority for Systick Interrupt */
 8002816:	210f      	movs	r1, #15
 8002818:	f04f 30ff 	mov.w	r0, #4294967295
 800281c:	f7ff ff8e 	bl	800273c <__NVIC_SetPriority>
  SysTick->VAL   = 0UL;                                             /* Load the SysTick Counter Value */
 8002820:	4b05      	ldr	r3, [pc, #20]	@ (8002838 <SysTick_Config+0x40>)
 8002822:	2200      	movs	r2, #0
 8002824:	609a      	str	r2, [r3, #8]
  SysTick->CTRL  = SysTick_CTRL_CLKSOURCE_Msk |
 8002826:	4b04      	ldr	r3, [pc, #16]	@ (8002838 <SysTick_Config+0x40>)
 8002828:	2207      	movs	r2, #7
 800282a:	601a      	str	r2, [r3, #0]
                   SysTick_CTRL_TICKINT_Msk   |
                   SysTick_CTRL_ENABLE_Msk;                         /* Enable SysTick IRQ and SysTick Timer */
  return (0UL);                                                     /* Function successful */
 800282c:	2300      	movs	r3, #0
}
 800282e:	4618      	mov	r0, r3
 8002830:	3708      	adds	r7, #8
 8002832:	46bd      	mov	sp, r7
 8002834:	bd80      	pop	{r7, pc}
 8002836:	bf00      	nop
 8002838:	e000e010 	.word	0xe000e010

0800283c <HAL_NVIC_SetPriorityGrouping>:
  * @note   When the NVIC_PriorityGroup_0 is selected, IRQ preemption is no more possible. 
  *         The pending IRQ priority will be managed only by the subpriority. 
  * @retval None
  */
void HAL_NVIC_SetPriorityGrouping(uint32_t PriorityGroup)
{
 800283c:	b580      	push	{r7, lr}
 800283e:	b082      	sub	sp, #8
 8002840:	af00      	add	r7, sp, #0
 8002842:	6078      	str	r0, [r7, #4]
  /* Check the parameters */
  assert_param(IS_NVIC_PRIORITY_GROUP(PriorityGroup));
  
  /* Set the PRIGROUP[10:8] bits according to the PriorityGroup parameter value */
  NVIC_SetPriorityGrouping(PriorityGroup);
 8002844:	6878      	ldr	r0, [r7, #4]
 8002846:	f7ff ff29 	bl	800269c <__NVIC_SetPriorityGrouping>
}
 800284a:	bf00      	nop
 800284c:	3708      	adds	r7, #8
 800284e:	46bd      	mov	sp, r7
 8002850:	bd80      	pop	{r7, pc}

08002852 <HAL_NVIC_SetPriority>:
  *         This parameter can be a value between 0 and 15
  *         A lower priority value indicates a higher priority.          
  * @retval None
  */
void HAL_NVIC_SetPriority(IRQn_Type IRQn, uint32_t PreemptPriority, uint32_t SubPriority)
{ 
 8002852:	b580      	push	{r7, lr}
 8002854:	b086      	sub	sp, #24
 8002856:	af00      	add	r7, sp, #0
 8002858:	4603      	mov	r3, r0
 800285a:	60b9      	str	r1, [r7, #8]
 800285c:	607a      	str	r2, [r7, #4]
 800285e:	73fb      	strb	r3, [r7, #15]
  uint32_t prioritygroup = 0x00U;
 8002860:	2300      	movs	r3, #0
 8002862:	617b      	str	r3, [r7, #20]
  
  /* Check the parameters */
  assert_param(IS_NVIC_SUB_PRIORITY(SubPriority));
  assert_param(IS_NVIC_PREEMPTION_PRIORITY(PreemptPriority));
  
  prioritygroup = NVIC_GetPriorityGrouping();
 8002864:	f7ff ff3e 	bl	80026e4 <__NVIC_GetPriorityGrouping>
 8002868:	6178      	str	r0, [r7, #20]
  
  NVIC_SetPriority(IRQn, NVIC_EncodePriority(prioritygroup, PreemptPriority, SubPriority));
 800286a:	687a      	ldr	r2, [r7, #4]
 800286c:	68b9      	ldr	r1, [r7, #8]
 800286e:	6978      	ldr	r0, [r7, #20]
 8002870:	f7ff ff8e 	bl	8002790 <NVIC_EncodePriority>
 8002874:	4602      	mov	r2, r0
 8002876:	f997 300f 	ldrsb.w	r3, [r7, #15]
 800287a:	4611      	mov	r1, r2
 800287c:	4618      	mov	r0, r3
 800287e:	f7ff ff5d 	bl	800273c <__NVIC_SetPriority>
}
 8002882:	bf00      	nop
 8002884:	3718      	adds	r7, #24
 8002886:	46bd      	mov	sp, r7
 8002888:	bd80      	pop	{r7, pc}

0800288a <HAL_NVIC_EnableIRQ>:
  *         This parameter can be an enumerator of IRQn_Type enumeration
  *         (For the complete STM32 Devices IRQ Channels list, please refer to the appropriate CMSIS device file (stm32f4xxxx.h))
  * @retval None
  */
void HAL_NVIC_EnableIRQ(IRQn_Type IRQn)
{
 800288a:	b580      	push	{r7, lr}
 800288c:	b082      	sub	sp, #8
 800288e:	af00      	add	r7, sp, #0
 8002890:	4603      	mov	r3, r0
 8002892:	71fb      	strb	r3, [r7, #7]
  /* Check the parameters */
  assert_param(IS_NVIC_DEVICE_IRQ(IRQn));
  
  /* Enable interrupt */
  NVIC_EnableIRQ(IRQn);
 8002894:	f997 3007 	ldrsb.w	r3, [r7, #7]
 8002898:	4618      	mov	r0, r3
 800289a:	f7ff ff31 	bl	8002700 <__NVIC_EnableIRQ>
}
 800289e:	bf00      	nop
 80028a0:	3708      	adds	r7, #8
 80028a2:	46bd      	mov	sp, r7
 80028a4:	bd80      	pop	{r7, pc}

080028a6 <HAL_SYSTICK_Config>:
  * @param  TicksNumb Specifies the ticks Number of ticks between two interrupts.
  * @retval status:  - 0  Function succeeded.
  *                  - 1  Function failed.
  */
uint32_t HAL_SYSTICK_Config(uint32_t TicksNumb)
{
 80028a6:	b580      	push	{r7, lr}
 80028a8:	b082      	sub	sp, #8
 80028aa:	af00      	add	r7, sp, #0
 80028ac:	6078      	str	r0, [r7, #4]
   return SysTick_Config(TicksNumb);
 80028ae:	6878      	ldr	r0, [r7, #4]
 80028b0:	f7ff ffa2 	bl	80027f8 <SysTick_Config>
 80028b4:	4603      	mov	r3, r0
}
 80028b6:	4618      	mov	r0, r3
 80028b8:	3708      	adds	r7, #8
 80028ba:	46bd      	mov	sp, r7
 80028bc:	bd80      	pop	{r7, pc}

080028be <HAL_DMA_Abort>:
  *        and the Stream will be effectively disabled only after the transfer of
  *        this single data is finished.  
  * @retval HAL status
  */
HAL_StatusTypeDef HAL_DMA_Abort(DMA_HandleTypeDef *hdma)
{
 80028be:	b580      	push	{r7, lr}
 80028c0:	b084      	sub	sp, #16
 80028c2:	af00      	add	r7, sp, #0
 80028c4:	6078      	str	r0, [r7, #4]
  /* calculate DMA base and stream number */
  DMA_Base_Registers *regs = (DMA_Base_Registers *)hdma->StreamBaseAddress;
 80028c6:	687b      	ldr	r3, [r7, #4]
 80028c8:	6d9b      	ldr	r3, [r3, #88]	@ 0x58
 80028ca:	60fb      	str	r3, [r7, #12]
  
  uint32_t tickstart = HAL_GetTick();
 80028cc:	f7ff fc54 	bl	8002178 <HAL_GetTick>
 80028d0:	60b8      	str	r0, [r7, #8]
  
  if(hdma->State != HAL_DMA_STATE_BUSY)
 80028d2:	687b      	ldr	r3, [r7, #4]
 80028d4:	f893 3035 	ldrb.w	r3, [r3, #53]	@ 0x35
 80028d8:	b2db      	uxtb	r3, r3
 80028da:	2b02      	cmp	r3, #2
 80028dc:	d008      	beq.n	80028f0 <HAL_DMA_Abort+0x32>
  {
    hdma->ErrorCode = HAL_DMA_ERROR_NO_XFER;
 80028de:	687b      	ldr	r3, [r7, #4]
 80028e0:	2280      	movs	r2, #128	@ 0x80
 80028e2:	655a      	str	r2, [r3, #84]	@ 0x54
    
    /* Process Unlocked */
    __HAL_UNLOCK(hdma);
 80028e4:	687b      	ldr	r3, [r7, #4]
 80028e6:	2200      	movs	r2, #0
 80028e8:	f883 2034 	strb.w	r2, [r3, #52]	@ 0x34
    
    return HAL_ERROR;
 80028ec:	2301      	movs	r3, #1
 80028ee:	e052      	b.n	8002996 <HAL_DMA_Abort+0xd8>
  }
  else
  {
    /* Disable all the transfer interrupts */
    hdma->Instance->CR  &= ~(DMA_IT_TC | DMA_IT_TE | DMA_IT_DME);
 80028f0:	687b      	ldr	r3, [r7, #4]
 80028f2:	681b      	ldr	r3, [r3, #0]
 80028f4:	681a      	ldr	r2, [r3, #0]
 80028f6:	687b      	ldr	r3, [r7, #4]
 80028f8:	681b      	ldr	r3, [r3, #0]
 80028fa:	f022 0216 	bic.w	r2, r2, #22
 80028fe:	601a      	str	r2, [r3, #0]
    hdma->Instance->FCR &= ~(DMA_IT_FE);
 8002900:	687b      	ldr	r3, [r7, #4]
 8002902:	681b      	ldr	r3, [r3, #0]
 8002904:	695a      	ldr	r2, [r3, #20]
 8002906:	687b      	ldr	r3, [r7, #4]
 8002908:	681b      	ldr	r3, [r3, #0]
 800290a:	f022 0280 	bic.w	r2, r2, #128	@ 0x80
 800290e:	615a      	str	r2, [r3, #20]
    
    if((hdma->XferHalfCpltCallback != NULL) || (hdma->XferM1HalfCpltCallback != NULL))
 8002910:	687b      	ldr	r3, [r7, #4]
 8002912:	6c1b      	ldr	r3, [r3, #64]	@ 0x40
 8002914:	2b00      	cmp	r3, #0
 8002916:	d103      	bne.n	8002920 <HAL_DMA_Abort+0x62>
 8002918:	687b      	ldr	r3, [r7, #4]
 800291a:	6c9b      	ldr	r3, [r3, #72]	@ 0x48
 800291c:	2b00      	cmp	r3, #0
 800291e:	d007      	beq.n	8002930 <HAL_DMA_Abort+0x72>
    {
      hdma->Instance->CR  &= ~(DMA_IT_HT);
 8002920:	687b      	ldr	r3, [r7, #4]
 8002922:	681b      	ldr	r3, [r3, #0]
 8002924:	681a      	ldr	r2, [r3, #0]
 8002926:	687b      	ldr	r3, [r7, #4]
 8002928:	681b      	ldr	r3, [r3, #0]
 800292a:	f022 0208 	bic.w	r2, r2, #8
 800292e:	601a      	str	r2, [r3, #0]
    }
    
    /* Disable the stream */
    __HAL_DMA_DISABLE(hdma);
 8002930:	687b      	ldr	r3, [r7, #4]
 8002932:	681b      	ldr	r3, [r3, #0]
 8002934:	681a      	ldr	r2, [r3, #0]
 8002936:	687b      	ldr	r3, [r7, #4]
 8002938:	681b      	ldr	r3, [r3, #0]
 800293a:	f022 0201 	bic.w	r2, r2, #1
 800293e:	601a      	str	r2, [r3, #0]
    
    /* Check if the DMA Stream is effectively disabled */
    while((hdma->Instance->CR & DMA_SxCR_EN) != RESET)
 8002940:	e013      	b.n	800296a <HAL_DMA_Abort+0xac>
    {
      /* Check for the Timeout */
      if((HAL_GetTick() - tickstart ) > HAL_TIMEOUT_DMA_ABORT)
 8002942:	f7ff fc19 	bl	8002178 <HAL_GetTick>
 8002946:	4602      	mov	r2, r0
 8002948:	68bb      	ldr	r3, [r7, #8]
 800294a:	1ad3      	subs	r3, r2, r3
 800294c:	2b05      	cmp	r3, #5
 800294e:	d90c      	bls.n	800296a <HAL_DMA_Abort+0xac>
      {
        /* Update error code */
        hdma->ErrorCode = HAL_DMA_ERROR_TIMEOUT;
 8002950:	687b      	ldr	r3, [r7, #4]
 8002952:	2220      	movs	r2, #32
 8002954:	655a      	str	r2, [r3, #84]	@ 0x54
        
        /* Change the DMA state */
        hdma->State = HAL_DMA_STATE_TIMEOUT;
 8002956:	687b      	ldr	r3, [r7, #4]
 8002958:	2203      	movs	r2, #3
 800295a:	f883 2035 	strb.w	r2, [r3, #53]	@ 0x35
        
        /* Process Unlocked */
        __HAL_UNLOCK(hdma);
 800295e:	687b      	ldr	r3, [r7, #4]
 8002960:	2200      	movs	r2, #0
 8002962:	f883 2034 	strb.w	r2, [r3, #52]	@ 0x34
        
        return HAL_TIMEOUT;
 8002966:	2303      	movs	r3, #3
 8002968:	e015      	b.n	8002996 <HAL_DMA_Abort+0xd8>
    while((hdma->Instance->CR & DMA_SxCR_EN) != RESET)
 800296a:	687b      	ldr	r3, [r7, #4]
 800296c:	681b      	ldr	r3, [r3, #0]
 800296e:	681b      	ldr	r3, [r3, #0]
 8002970:	f003 0301 	and.w	r3, r3, #1
 8002974:	2b00      	cmp	r3, #0
 8002976:	d1e4      	bne.n	8002942 <HAL_DMA_Abort+0x84>
      }
    }
    
    /* Clear all interrupt flags at correct offset within the register */
    regs->IFCR = 0x3FU << hdma->StreamIndex;
 8002978:	687b      	ldr	r3, [r7, #4]
 800297a:	6ddb      	ldr	r3, [r3, #92]	@ 0x5c
 800297c:	223f      	movs	r2, #63	@ 0x3f
 800297e:	409a      	lsls	r2, r3
 8002980:	68fb      	ldr	r3, [r7, #12]
 8002982:	609a      	str	r2, [r3, #8]
    
    /* Change the DMA state*/
    hdma->State = HAL_DMA_STATE_READY;
 8002984:	687b      	ldr	r3, [r7, #4]
 8002986:	2201      	movs	r2, #1
 8002988:	f883 2035 	strb.w	r2, [r3, #53]	@ 0x35
    
    /* Process Unlocked */
    __HAL_UNLOCK(hdma);
 800298c:	687b      	ldr	r3, [r7, #4]
 800298e:	2200      	movs	r2, #0
 8002990:	f883 2034 	strb.w	r2, [r3, #52]	@ 0x34
  }
  return HAL_OK;
 8002994:	2300      	movs	r3, #0
}
 8002996:	4618      	mov	r0, r3
 8002998:	3710      	adds	r7, #16
 800299a:	46bd      	mov	sp, r7
 800299c:	bd80      	pop	{r7, pc}

0800299e <HAL_DMA_Abort_IT>:
  * @param  hdma   pointer to a DMA_HandleTypeDef structure that contains
  *                 the configuration information for the specified DMA Stream.
  * @retval HAL status
  */
HAL_StatusTypeDef HAL_DMA_Abort_IT(DMA_HandleTypeDef *hdma)
{
 800299e:	b480      	push	{r7}
 80029a0:	b083      	sub	sp, #12
 80029a2:	af00      	add	r7, sp, #0
 80029a4:	6078      	str	r0, [r7, #4]
  if(hdma->State != HAL_DMA_STATE_BUSY)
 80029a6:	687b      	ldr	r3, [r7, #4]
 80029a8:	f893 3035 	ldrb.w	r3, [r3, #53]	@ 0x35
 80029ac:	b2db      	uxtb	r3, r3
 80029ae:	2b02      	cmp	r3, #2
 80029b0:	d004      	beq.n	80029bc <HAL_DMA_Abort_IT+0x1e>
  {
    hdma->ErrorCode = HAL_DMA_ERROR_NO_XFER;
 80029b2:	687b      	ldr	r3, [r7, #4]
 80029b4:	2280      	movs	r2, #128	@ 0x80
 80029b6:	655a      	str	r2, [r3, #84]	@ 0x54
    return HAL_ERROR;
 80029b8:	2301      	movs	r3, #1
 80029ba:	e00c      	b.n	80029d6 <HAL_DMA_Abort_IT+0x38>
  }
  else
  {
    /* Set Abort State  */
    hdma->State = HAL_DMA_STATE_ABORT;
 80029bc:	687b      	ldr	r3, [r7, #4]
 80029be:	2205      	movs	r2, #5
 80029c0:	f883 2035 	strb.w	r2, [r3, #53]	@ 0x35
    
    /* Disable the stream */
    __HAL_DMA_DISABLE(hdma);
 80029c4:	687b      	ldr	r3, [r7, #4]
 80029c6:	681b      	ldr	r3, [r3, #0]
 80029c8:	681a      	ldr	r2, [r3, #0]
 80029ca:	687b      	ldr	r3, [r7, #4]
 80029cc:	681b      	ldr	r3, [r3, #0]
 80029ce:	f022 0201 	bic.w	r2, r2, #1
 80029d2:	601a      	str	r2, [r3, #0]
  }

  return HAL_OK;
 80029d4:	2300      	movs	r3, #0
}
 80029d6:	4618      	mov	r0, r3
 80029d8:	370c      	adds	r7, #12
 80029da:	46bd      	mov	sp, r7
 80029dc:	f85d 7b04 	ldr.w	r7, [sp], #4
 80029e0:	4770      	bx	lr
	...

080029e4 <HAL_GPIO_Init>:
  * @param  GPIO_Init pointer to a GPIO_InitTypeDef structure that contains
  *         the configuration information for the specified GPIO peripheral.
  * @retval None
  */
void HAL_GPIO_Init(GPIO_TypeDef  *GPIOx, GPIO_InitTypeDef *GPIO_Init)
{
 80029e4:	b480      	push	{r7}
 80029e6:	b089      	sub	sp, #36	@ 0x24
 80029e8:	af00      	add	r7, sp, #0
 80029ea:	6078      	str	r0, [r7, #4]
 80029ec:	6039      	str	r1, [r7, #0]
  uint32_t position;
  uint32_t ioposition = 0x00U;
 80029ee:	2300      	movs	r3, #0
 80029f0:	617b      	str	r3, [r7, #20]
  uint32_t iocurrent = 0x00U;
 80029f2:	2300      	movs	r3, #0
 80029f4:	613b      	str	r3, [r7, #16]
  uint32_t temp = 0x00U;
 80029f6:	2300      	movs	r3, #0
 80029f8:	61bb      	str	r3, [r7, #24]
  assert_param(IS_GPIO_ALL_INSTANCE(GPIOx));
  assert_param(IS_GPIO_PIN(GPIO_Init->Pin));
  assert_param(IS_GPIO_MODE(GPIO_Init->Mode));

  /* Configure the port pins */
  for(position = 0U; position < GPIO_NUMBER; position++)
 80029fa:	2300      	movs	r3, #0
 80029fc:	61fb      	str	r3, [r7, #28]
 80029fe:	e16b      	b.n	8002cd8 <HAL_GPIO_Init+0x2f4>
  {
    /* Get the IO position */
    ioposition = 0x01U << position;
 8002a00:	2201      	movs	r2, #1
 8002a02:	69fb      	ldr	r3, [r7, #28]
 8002a04:	fa02 f303 	lsl.w	r3, r2, r3
 8002a08:	617b      	str	r3, [r7, #20]
    /* Get the current IO position */
    iocurrent = (uint32_t)(GPIO_Init->Pin) & ioposition;
 8002a0a:	683b      	ldr	r3, [r7, #0]
 8002a0c:	681b      	ldr	r3, [r3, #0]
 8002a0e:	697a      	ldr	r2, [r7, #20]
 8002a10:	4013      	ands	r3, r2
 8002a12:	613b      	str	r3, [r7, #16]

    if(iocurrent == ioposition)
 8002a14:	693a      	ldr	r2, [r7, #16]
 8002a16:	697b      	ldr	r3, [r7, #20]
 8002a18:	429a      	cmp	r2, r3
 8002a1a:	f040 815a 	bne.w	8002cd2 <HAL_GPIO_Init+0x2ee>
    {
      /*--------------------- GPIO Mode Configuration ------------------------*/
      /* In case of Output or Alternate function mode selection */
      if(((GPIO_Init->Mode & GPIO_MODE) == MODE_OUTPUT) || \
 8002a1e:	683b      	ldr	r3, [r7, #0]
 8002a20:	685b      	ldr	r3, [r3, #4]
 8002a22:	f003 0303 	and.w	r3, r3, #3
 8002a26:	2b01      	cmp	r3, #1
 8002a28:	d005      	beq.n	8002a36 <HAL_GPIO_Init+0x52>
          (GPIO_Init->Mode & GPIO_MODE) == MODE_AF)
 8002a2a:	683b      	ldr	r3, [r7, #0]
 8002a2c:	685b      	ldr	r3, [r3, #4]
 8002a2e:	f003 0303 	and.w	r3, r3, #3
      if(((GPIO_Init->Mode & GPIO_MODE) == MODE_OUTPUT) || \
 8002a32:	2b02      	cmp	r3, #2
 8002a34:	d130      	bne.n	8002a98 <HAL_GPIO_Init+0xb4>
      {
        /* Check the Speed parameter */
        assert_param(IS_GPIO_SPEED(GPIO_Init->Speed));
        /* Configure the IO Speed */
        temp = GPIOx->OSPEEDR; 
 8002a36:	687b      	ldr	r3, [r7, #4]
 8002a38:	689b      	ldr	r3, [r3, #8]
 8002a3a:	61bb      	str	r3, [r7, #24]
        temp &= ~(GPIO_OSPEEDER_OSPEEDR0 << (position * 2U));
 8002a3c:	69fb      	ldr	r3, [r7, #28]
 8002a3e:	005b      	lsls	r3, r3, #1
 8002a40:	2203      	movs	r2, #3
 8002a42:	fa02 f303 	lsl.w	r3, r2, r3
 8002a46:	43db      	mvns	r3, r3
 8002a48:	69ba      	ldr	r2, [r7, #24]
 8002a4a:	4013      	ands	r3, r2
 8002a4c:	61bb      	str	r3, [r7, #24]
        temp |= (GPIO_Init->Speed << (position * 2U));
 8002a4e:	683b      	ldr	r3, [r7, #0]
 8002a50:	68da      	ldr	r2, [r3, #12]
 8002a52:	69fb      	ldr	r3, [r7, #28]
 8002a54:	005b      	lsls	r3, r3, #1
 8002a56:	fa02 f303 	lsl.w	r3, r2, r3
 8002a5a:	69ba      	ldr	r2, [r7, #24]
 8002a5c:	4313      	orrs	r3, r2
 8002a5e:	61bb      	str	r3, [r7, #24]
        GPIOx->OSPEEDR = temp;
 8002a60:	687b      	ldr	r3, [r7, #4]
 8002a62:	69ba      	ldr	r2, [r7, #24]
 8002a64:	609a      	str	r2, [r3, #8]

        /* Configure the IO Output Type */
        temp = GPIOx->OTYPER;
 8002a66:	687b      	ldr	r3, [r7, #4]
 8002a68:	685b      	ldr	r3, [r3, #4]
 8002a6a:	61bb      	str	r3, [r7, #24]
        temp &= ~(GPIO_OTYPER_OT_0 << position) ;
 8002a6c:	2201      	movs	r2, #1
 8002a6e:	69fb      	ldr	r3, [r7, #28]
 8002a70:	fa02 f303 	lsl.w	r3, r2, r3
 8002a74:	43db      	mvns	r3, r3
 8002a76:	69ba      	ldr	r2, [r7, #24]
 8002a78:	4013      	ands	r3, r2
 8002a7a:	61bb      	str	r3, [r7, #24]
        temp |= (((GPIO_Init->Mode & OUTPUT_TYPE) >> OUTPUT_TYPE_Pos) << position);
 8002a7c:	683b      	ldr	r3, [r7, #0]
 8002a7e:	685b      	ldr	r3, [r3, #4]
 8002a80:	091b      	lsrs	r3, r3, #4
 8002a82:	f003 0201 	and.w	r2, r3, #1
 8002a86:	69fb      	ldr	r3, [r7, #28]
 8002a88:	fa02 f303 	lsl.w	r3, r2, r3
 8002a8c:	69ba      	ldr	r2, [r7, #24]
 8002a8e:	4313      	orrs	r3, r2
 8002a90:	61bb      	str	r3, [r7, #24]
        GPIOx->OTYPER = temp;
 8002a92:	687b      	ldr	r3, [r7, #4]
 8002a94:	69ba      	ldr	r2, [r7, #24]
 8002a96:	605a      	str	r2, [r3, #4]
       }

      if((GPIO_Init->Mode & GPIO_MODE) != MODE_ANALOG)
 8002a98:	683b      	ldr	r3, [r7, #0]
 8002a9a:	685b      	ldr	r3, [r3, #4]
 8002a9c:	f003 0303 	and.w	r3, r3, #3
 8002aa0:	2b03      	cmp	r3, #3
 8002aa2:	d017      	beq.n	8002ad4 <HAL_GPIO_Init+0xf0>
      {
        /* Check the parameters */
        assert_param(IS_GPIO_PULL(GPIO_Init->Pull));
        
        /* Activate the Pull-up or Pull down resistor for the current IO */
        temp = GPIOx->PUPDR;
 8002aa4:	687b      	ldr	r3, [r7, #4]
 8002aa6:	68db      	ldr	r3, [r3, #12]
 8002aa8:	61bb      	str	r3, [r7, #24]
        temp &= ~(GPIO_PUPDR_PUPDR0 << (position * 2U));
 8002aaa:	69fb      	ldr	r3, [r7, #28]
 8002aac:	005b      	lsls	r3, r3, #1
 8002aae:	2203      	movs	r2, #3
 8002ab0:	fa02 f303 	lsl.w	r3, r2, r3
 8002ab4:	43db      	mvns	r3, r3
 8002ab6:	69ba      	ldr	r2, [r7, #24]
 8002ab8:	4013      	ands	r3, r2
 8002aba:	61bb      	str	r3, [r7, #24]
        temp |= ((GPIO_Init->Pull) << (position * 2U));
 8002abc:	683b      	ldr	r3, [r7, #0]
 8002abe:	689a      	ldr	r2, [r3, #8]
 8002ac0:	69fb      	ldr	r3, [r7, #28]
 8002ac2:	005b      	lsls	r3, r3, #1
 8002ac4:	fa02 f303 	lsl.w	r3, r2, r3
 8002ac8:	69ba      	ldr	r2, [r7, #24]
 8002aca:	4313      	orrs	r3, r2
 8002acc:	61bb      	str	r3, [r7, #24]
        GPIOx->PUPDR = temp;
 8002ace:	687b      	ldr	r3, [r7, #4]
 8002ad0:	69ba      	ldr	r2, [r7, #24]
 8002ad2:	60da      	str	r2, [r3, #12]
      }

      /* In case of Alternate function mode selection */
      if((GPIO_Init->Mode & GPIO_MODE) == MODE_AF)
 8002ad4:	683b      	ldr	r3, [r7, #0]
 8002ad6:	685b      	ldr	r3, [r3, #4]
 8002ad8:	f003 0303 	and.w	r3, r3, #3
 8002adc:	2b02      	cmp	r3, #2
 8002ade:	d123      	bne.n	8002b28 <HAL_GPIO_Init+0x144>
      {
        /* Check the Alternate function parameter */
        assert_param(IS_GPIO_AF(GPIO_Init->Alternate));
        /* Configure Alternate function mapped with the current IO */
        temp = GPIOx->AFR[position >> 3U];
 8002ae0:	69fb      	ldr	r3, [r7, #28]
 8002ae2:	08da      	lsrs	r2, r3, #3
 8002ae4:	687b      	ldr	r3, [r7, #4]
 8002ae6:	3208      	adds	r2, #8
 8002ae8:	f853 3022 	ldr.w	r3, [r3, r2, lsl #2]
 8002aec:	61bb      	str	r3, [r7, #24]
        temp &= ~(0xFU << ((uint32_t)(position & 0x07U) * 4U)) ;
 8002aee:	69fb      	ldr	r3, [r7, #28]
 8002af0:	f003 0307 	and.w	r3, r3, #7
 8002af4:	009b      	lsls	r3, r3, #2
 8002af6:	220f      	movs	r2, #15
 8002af8:	fa02 f303 	lsl.w	r3, r2, r3
 8002afc:	43db      	mvns	r3, r3
 8002afe:	69ba      	ldr	r2, [r7, #24]
 8002b00:	4013      	ands	r3, r2
 8002b02:	61bb      	str	r3, [r7, #24]
        temp |= ((uint32_t)(GPIO_Init->Alternate) << (((uint32_t)position & 0x07U) * 4U));
 8002b04:	683b      	ldr	r3, [r7, #0]
 8002b06:	691a      	ldr	r2, [r3, #16]
 8002b08:	69fb      	ldr	r3, [r7, #28]
 8002b0a:	f003 0307 	and.w	r3, r3, #7
 8002b0e:	009b      	lsls	r3, r3, #2
 8002b10:	fa02 f303 	lsl.w	r3, r2, r3
 8002b14:	69ba      	ldr	r2, [r7, #24]
 8002b16:	4313      	orrs	r3, r2
 8002b18:	61bb      	str	r3, [r7, #24]
        GPIOx->AFR[position >> 3U] = temp;
 8002b1a:	69fb      	ldr	r3, [r7, #28]
 8002b1c:	08da      	lsrs	r2, r3, #3
 8002b1e:	687b      	ldr	r3, [r7, #4]
 8002b20:	3208      	adds	r2, #8
 8002b22:	69b9      	ldr	r1, [r7, #24]
 8002b24:	f843 1022 	str.w	r1, [r3, r2, lsl #2]
      }

      /* Configure IO Direction mode (Input, Output, Alternate or Analog) */
      temp = GPIOx->MODER;
 8002b28:	687b      	ldr	r3, [r7, #4]
 8002b2a:	681b      	ldr	r3, [r3, #0]
 8002b2c:	61bb      	str	r3, [r7, #24]
      temp &= ~(GPIO_MODER_MODER0 << (position * 2U));
 8002b2e:	69fb      	ldr	r3, [r7, #28]
 8002b30:	005b      	lsls	r3, r3, #1
 8002b32:	2203      	movs	r2, #3
 8002b34:	fa02 f303 	lsl.w	r3, r2, r3
 8002b38:	43db      	mvns	r3, r3
 8002b3a:	69ba      	ldr	r2, [r7, #24]
 8002b3c:	4013      	ands	r3, r2
 8002b3e:	61bb      	str	r3, [r7, #24]
      temp |= ((GPIO_Init->Mode & GPIO_MODE) << (position * 2U));
 8002b40:	683b      	ldr	r3, [r7, #0]
 8002b42:	685b      	ldr	r3, [r3, #4]
 8002b44:	f003 0203 	and.w	r2, r3, #3
 8002b48:	69fb      	ldr	r3, [r7, #28]
 8002b4a:	005b      	lsls	r3, r3, #1
 8002b4c:	fa02 f303 	lsl.w	r3, r2, r3
 8002b50:	69ba      	ldr	r2, [r7, #24]
 8002b52:	4313      	orrs	r3, r2
 8002b54:	61bb      	str	r3, [r7, #24]
      GPIOx->MODER = temp;
 8002b56:	687b      	ldr	r3, [r7, #4]
 8002b58:	69ba      	ldr	r2, [r7, #24]
 8002b5a:	601a      	str	r2, [r3, #0]

      /*--------------------- EXTI Mode Configuration ------------------------*/
      /* Configure the External Interrupt or event for the current IO */
      if((GPIO_Init->Mode & EXTI_MODE) != 0x00U)
 8002b5c:	683b      	ldr	r3, [r7, #0]
 8002b5e:	685b      	ldr	r3, [r3, #4]
 8002b60:	f403 3340 	and.w	r3, r3, #196608	@ 0x30000
 8002b64:	2b00      	cmp	r3, #0
 8002b66:	f000 80b4 	beq.w	8002cd2 <HAL_GPIO_Init+0x2ee>
      {
        /* Enable SYSCFG Clock */
        __HAL_RCC_SYSCFG_CLK_ENABLE();
 8002b6a:	2300      	movs	r3, #0
 8002b6c:	60fb      	str	r3, [r7, #12]
 8002b6e:	4b60      	ldr	r3, [pc, #384]	@ (8002cf0 <HAL_GPIO_Init+0x30c>)
 8002b70:	6c5b      	ldr	r3, [r3, #68]	@ 0x44
 8002b72:	4a5f      	ldr	r2, [pc, #380]	@ (8002cf0 <HAL_GPIO_Init+0x30c>)
 8002b74:	f443 4380 	orr.w	r3, r3, #16384	@ 0x4000
 8002b78:	6453      	str	r3, [r2, #68]	@ 0x44
 8002b7a:	4b5d      	ldr	r3, [pc, #372]	@ (8002cf0 <HAL_GPIO_Init+0x30c>)
 8002b7c:	6c5b      	ldr	r3, [r3, #68]	@ 0x44
 8002b7e:	f403 4380 	and.w	r3, r3, #16384	@ 0x4000
 8002b82:	60fb      	str	r3, [r7, #12]
 8002b84:	68fb      	ldr	r3, [r7, #12]

        temp = SYSCFG->EXTICR[position >> 2U];
 8002b86:	4a5b      	ldr	r2, [pc, #364]	@ (8002cf4 <HAL_GPIO_Init+0x310>)
 8002b88:	69fb      	ldr	r3, [r7, #28]
 8002b8a:	089b      	lsrs	r3, r3, #2
 8002b8c:	3302      	adds	r3, #2
 8002b8e:	f852 3023 	ldr.w	r3, [r2, r3, lsl #2]
 8002b92:	61bb      	str	r3, [r7, #24]
        temp &= ~(0x0FU << (4U * (position & 0x03U)));
 8002b94:	69fb      	ldr	r3, [r7, #28]
 8002b96:	f003 0303 	and.w	r3, r3, #3
 8002b9a:	009b      	lsls	r3, r3, #2
 8002b9c:	220f      	movs	r2, #15
 8002b9e:	fa02 f303 	lsl.w	r3, r2, r3
 8002ba2:	43db      	mvns	r3, r3
 8002ba4:	69ba      	ldr	r2, [r7, #24]
 8002ba6:	4013      	ands	r3, r2
 8002ba8:	61bb      	str	r3, [r7, #24]
        temp |= ((uint32_t)(GPIO_GET_INDEX(GPIOx)) << (4U * (position & 0x03U)));
 8002baa:	687b      	ldr	r3, [r7, #4]
 8002bac:	4a52      	ldr	r2, [pc, #328]	@ (8002cf8 <HAL_GPIO_Init+0x314>)
 8002bae:	4293      	cmp	r3, r2
 8002bb0:	d02b      	beq.n	8002c0a <HAL_GPIO_Init+0x226>
 8002bb2:	687b      	ldr	r3, [r7, #4]
 8002bb4:	4a51      	ldr	r2, [pc, #324]	@ (8002cfc <HAL_GPIO_Init+0x318>)
 8002bb6:	4293      	cmp	r3, r2
 8002bb8:	d025      	beq.n	8002c06 <HAL_GPIO_Init+0x222>
 8002bba:	687b      	ldr	r3, [r7, #4]
 8002bbc:	4a50      	ldr	r2, [pc, #320]	@ (8002d00 <HAL_GPIO_Init+0x31c>)
 8002bbe:	4293      	cmp	r3, r2
 8002bc0:	d01f      	beq.n	8002c02 <HAL_GPIO_Init+0x21e>
 8002bc2:	687b      	ldr	r3, [r7, #4]
 8002bc4:	4a4f      	ldr	r2, [pc, #316]	@ (8002d04 <HAL_GPIO_Init+0x320>)
 8002bc6:	4293      	cmp	r3, r2
 8002bc8:	d019      	beq.n	8002bfe <HAL_GPIO_Init+0x21a>
 8002bca:	687b      	ldr	r3, [r7, #4]
 8002bcc:	4a4e      	ldr	r2, [pc, #312]	@ (8002d08 <HAL_GPIO_Init+0x324>)
 8002bce:	4293      	cmp	r3, r2
 8002bd0:	d013      	beq.n	8002bfa <HAL_GPIO_Init+0x216>
 8002bd2:	687b      	ldr	r3, [r7, #4]
 8002bd4:	4a4d      	ldr	r2, [pc, #308]	@ (8002d0c <HAL_GPIO_Init+0x328>)
 8002bd6:	4293      	cmp	r3, r2
 8002bd8:	d00d      	beq.n	8002bf6 <HAL_GPIO_Init+0x212>
 8002bda:	687b      	ldr	r3, [r7, #4]
 8002bdc:	4a4c      	ldr	r2, [pc, #304]	@ (8002d10 <HAL_GPIO_Init+0x32c>)
 8002bde:	4293      	cmp	r3, r2
 8002be0:	d007      	beq.n	8002bf2 <HAL_GPIO_Init+0x20e>
 8002be2:	687b      	ldr	r3, [r7, #4]
 8002be4:	4a4b      	ldr	r2, [pc, #300]	@ (8002d14 <HAL_GPIO_Init+0x330>)
 8002be6:	4293      	cmp	r3, r2
 8002be8:	d101      	bne.n	8002bee <HAL_GPIO_Init+0x20a>
 8002bea:	2307      	movs	r3, #7
 8002bec:	e00e      	b.n	8002c0c <HAL_GPIO_Init+0x228>
 8002bee:	2308      	movs	r3, #8
 8002bf0:	e00c      	b.n	8002c0c <HAL_GPIO_Init+0x228>
 8002bf2:	2306      	movs	r3, #6
 8002bf4:	e00a      	b.n	8002c0c <HAL_GPIO_Init+0x228>
 8002bf6:	2305      	movs	r3, #5
 8002bf8:	e008      	b.n	8002c0c <HAL_GPIO_Init+0x228>
 8002bfa:	2304      	movs	r3, #4
 8002bfc:	e006      	b.n	8002c0c <HAL_GPIO_Init+0x228>
 8002bfe:	2303      	movs	r3, #3
 8002c00:	e004      	b.n	8002c0c <HAL_GPIO_Init+0x228>
 8002c02:	2302      	movs	r3, #2
 8002c04:	e002      	b.n	8002c0c <HAL_GPIO_Init+0x228>
 8002c06:	2301      	movs	r3, #1
 8002c08:	e000      	b.n	8002c0c <HAL_GPIO_Init+0x228>
 8002c0a:	2300      	movs	r3, #0
 8002c0c:	69fa      	ldr	r2, [r7, #28]
 8002c0e:	f002 0203 	and.w	r2, r2, #3
 8002c12:	0092      	lsls	r2, r2, #2
 8002c14:	4093      	lsls	r3, r2
 8002c16:	69ba      	ldr	r2, [r7, #24]
 8002c18:	4313      	orrs	r3, r2
 8002c1a:	61bb      	str	r3, [r7, #24]
        SYSCFG->EXTICR[position >> 2U] = temp;
 8002c1c:	4935      	ldr	r1, [pc, #212]	@ (8002cf4 <HAL_GPIO_Init+0x310>)
 8002c1e:	69fb      	ldr	r3, [r7, #28]
 8002c20:	089b      	lsrs	r3, r3, #2
 8002c22:	3302      	adds	r3, #2
 8002c24:	69ba      	ldr	r2, [r7, #24]
 8002c26:	f841 2023 	str.w	r2, [r1, r3, lsl #2]

        /* Clear Rising Falling edge configuration */
        temp = EXTI->RTSR;
 8002c2a:	4b3b      	ldr	r3, [pc, #236]	@ (8002d18 <HAL_GPIO_Init+0x334>)
 8002c2c:	689b      	ldr	r3, [r3, #8]
 8002c2e:	61bb      	str	r3, [r7, #24]
        temp &= ~((uint32_t)iocurrent);
 8002c30:	693b      	ldr	r3, [r7, #16]
 8002c32:	43db      	mvns	r3, r3
 8002c34:	69ba      	ldr	r2, [r7, #24]
 8002c36:	4013      	ands	r3, r2
 8002c38:	61bb      	str	r3, [r7, #24]
        if((GPIO_Init->Mode & TRIGGER_RISING) != 0x00U)
 8002c3a:	683b      	ldr	r3, [r7, #0]
 8002c3c:	685b      	ldr	r3, [r3, #4]
 8002c3e:	f403 1380 	and.w	r3, r3, #1048576	@ 0x100000
 8002c42:	2b00      	cmp	r3, #0
 8002c44:	d003      	beq.n	8002c4e <HAL_GPIO_Init+0x26a>
        {
          temp |= iocurrent;
 8002c46:	69ba      	ldr	r2, [r7, #24]
 8002c48:	693b      	ldr	r3, [r7, #16]
 8002c4a:	4313      	orrs	r3, r2
 8002c4c:	61bb      	str	r3, [r7, #24]
        }
        EXTI->RTSR = temp;
 8002c4e:	4a32      	ldr	r2, [pc, #200]	@ (8002d18 <HAL_GPIO_Init+0x334>)
 8002c50:	69bb      	ldr	r3, [r7, #24]
 8002c52:	6093      	str	r3, [r2, #8]

        temp = EXTI->FTSR;
 8002c54:	4b30      	ldr	r3, [pc, #192]	@ (8002d18 <HAL_GPIO_Init+0x334>)
 8002c56:	68db      	ldr	r3, [r3, #12]
 8002c58:	61bb      	str	r3, [r7, #24]
        temp &= ~((uint32_t)iocurrent);
 8002c5a:	693b      	ldr	r3, [r7, #16]
 8002c5c:	43db      	mvns	r3, r3
 8002c5e:	69ba      	ldr	r2, [r7, #24]
 8002c60:	4013      	ands	r3, r2
 8002c62:	61bb      	str	r3, [r7, #24]
        if((GPIO_Init->Mode & TRIGGER_FALLING) != 0x00U)
 8002c64:	683b      	ldr	r3, [r7, #0]
 8002c66:	685b      	ldr	r3, [r3, #4]
 8002c68:	f403 1300 	and.w	r3, r3, #2097152	@ 0x200000
 8002c6c:	2b00      	cmp	r3, #0
 8002c6e:	d003      	beq.n	8002c78 <HAL_GPIO_Init+0x294>
        {
          temp |= iocurrent;
 8002c70:	69ba      	ldr	r2, [r7, #24]
 8002c72:	693b      	ldr	r3, [r7, #16]
 8002c74:	4313      	orrs	r3, r2
 8002c76:	61bb      	str	r3, [r7, #24]
        }
        EXTI->FTSR = temp;
 8002c78:	4a27      	ldr	r2, [pc, #156]	@ (8002d18 <HAL_GPIO_Init+0x334>)
 8002c7a:	69bb      	ldr	r3, [r7, #24]
 8002c7c:	60d3      	str	r3, [r2, #12]

        temp = EXTI->EMR;
 8002c7e:	4b26      	ldr	r3, [pc, #152]	@ (8002d18 <HAL_GPIO_Init+0x334>)
 8002c80:	685b      	ldr	r3, [r3, #4]
 8002c82:	61bb      	str	r3, [r7, #24]
        temp &= ~((uint32_t)iocurrent);
 8002c84:	693b      	ldr	r3, [r7, #16]
 8002c86:	43db      	mvns	r3, r3
 8002c88:	69ba      	ldr	r2, [r7, #24]
 8002c8a:	4013      	ands	r3, r2
 8002c8c:	61bb      	str	r3, [r7, #24]
        if((GPIO_Init->Mode & EXTI_EVT) != 0x00U)
 8002c8e:	683b      	ldr	r3, [r7, #0]
 8002c90:	685b      	ldr	r3, [r3, #4]
 8002c92:	f403 3300 	and.w	r3, r3, #131072	@ 0x20000
 8002c96:	2b00      	cmp	r3, #0
 8002c98:	d003      	beq.n	8002ca2 <HAL_GPIO_Init+0x2be>
        {
          temp |= iocurrent;
 8002c9a:	69ba      	ldr	r2, [r7, #24]
 8002c9c:	693b      	ldr	r3, [r7, #16]
 8002c9e:	4313      	orrs	r3, r2
 8002ca0:	61bb      	str	r3, [r7, #24]
        }
        EXTI->EMR = temp;
 8002ca2:	4a1d      	ldr	r2, [pc, #116]	@ (8002d18 <HAL_GPIO_Init+0x334>)
 8002ca4:	69bb      	ldr	r3, [r7, #24]
 8002ca6:	6053      	str	r3, [r2, #4]

        /* Clear EXTI line configuration */
        temp = EXTI->IMR;
 8002ca8:	4b1b      	ldr	r3, [pc, #108]	@ (8002d18 <HAL_GPIO_Init+0x334>)
 8002caa:	681b      	ldr	r3, [r3, #0]
 8002cac:	61bb      	str	r3, [r7, #24]
        temp &= ~((uint32_t)iocurrent);
 8002cae:	693b      	ldr	r3, [r7, #16]
 8002cb0:	43db      	mvns	r3, r3
 8002cb2:	69ba      	ldr	r2, [r7, #24]
 8002cb4:	4013      	ands	r3, r2
 8002cb6:	61bb      	str	r3, [r7, #24]
        if((GPIO_Init->Mode & EXTI_IT) != 0x00U)
 8002cb8:	683b      	ldr	r3, [r7, #0]
 8002cba:	685b      	ldr	r3, [r3, #4]
 8002cbc:	f403 3380 	and.w	r3, r3, #65536	@ 0x10000
 8002cc0:	2b00      	cmp	r3, #0
 8002cc2:	d003      	beq.n	8002ccc <HAL_GPIO_Init+0x2e8>
        {
          temp |= iocurrent;
 8002cc4:	69ba      	ldr	r2, [r7, #24]
 8002cc6:	693b      	ldr	r3, [r7, #16]
 8002cc8:	4313      	orrs	r3, r2
 8002cca:	61bb      	str	r3, [r7, #24]
        }
        EXTI->IMR = temp;
 8002ccc:	4a12      	ldr	r2, [pc, #72]	@ (8002d18 <HAL_GPIO_Init+0x334>)
 8002cce:	69bb      	ldr	r3, [r7, #24]
 8002cd0:	6013      	str	r3, [r2, #0]
  for(position = 0U; position < GPIO_NUMBER; position++)
 8002cd2:	69fb      	ldr	r3, [r7, #28]
 8002cd4:	3301      	adds	r3, #1
 8002cd6:	61fb      	str	r3, [r7, #28]
 8002cd8:	69fb      	ldr	r3, [r7, #28]
 8002cda:	2b0f      	cmp	r3, #15
 8002cdc:	f67f ae90 	bls.w	8002a00 <HAL_GPIO_Init+0x1c>
      }
    }
  }
}
 8002ce0:	bf00      	nop
 8002ce2:	bf00      	nop
 8002ce4:	3724      	adds	r7, #36	@ 0x24
 8002ce6:	46bd      	mov	sp, r7
 8002ce8:	f85d 7b04 	ldr.w	r7, [sp], #4
 8002cec:	4770      	bx	lr
 8002cee:	bf00      	nop
 8002cf0:	40023800 	.word	0x40023800
 8002cf4:	40013800 	.word	0x40013800
 8002cf8:	40020000 	.word	0x40020000
 8002cfc:	40020400 	.word	0x40020400
 8002d00:	40020800 	.word	0x40020800
 8002d04:	40020c00 	.word	0x40020c00
 8002d08:	40021000 	.word	0x40021000
 8002d0c:	40021400 	.word	0x40021400
 8002d10:	40021800 	.word	0x40021800
 8002d14:	40021c00 	.word	0x40021c00
 8002d18:	40013c00 	.word	0x40013c00

08002d1c <HAL_GPIO_WritePin>:
  *            @arg GPIO_PIN_RESET: to clear the port pin
  *            @arg GPIO_PIN_SET: to set the port pin
  * @retval None
  */
void HAL_GPIO_WritePin(GPIO_TypeDef* GPIOx, uint16_t GPIO_Pin, GPIO_PinState PinState)
{
 8002d1c:	b480      	push	{r7}
 8002d1e:	b083      	sub	sp, #12
 8002d20:	af00      	add	r7, sp, #0
 8002d22:	6078      	str	r0, [r7, #4]
 8002d24:	460b      	mov	r3, r1
 8002d26:	807b      	strh	r3, [r7, #2]
 8002d28:	4613      	mov	r3, r2
 8002d2a:	707b      	strb	r3, [r7, #1]
  /* Check the parameters */
  assert_param(IS_GPIO_PIN(GPIO_Pin));
  assert_param(IS_GPIO_PIN_ACTION(PinState));

  if(PinState != GPIO_PIN_RESET)
 8002d2c:	787b      	ldrb	r3, [r7, #1]
 8002d2e:	2b00      	cmp	r3, #0
 8002d30:	d003      	beq.n	8002d3a <HAL_GPIO_WritePin+0x1e>
  {
    GPIOx->BSRR = GPIO_Pin;
 8002d32:	887a      	ldrh	r2, [r7, #2]
 8002d34:	687b      	ldr	r3, [r7, #4]
 8002d36:	619a      	str	r2, [r3, #24]
  }
  else
  {
    GPIOx->BSRR = (uint32_t)GPIO_Pin << 16U;
  }
}
 8002d38:	e003      	b.n	8002d42 <HAL_GPIO_WritePin+0x26>
    GPIOx->BSRR = (uint32_t)GPIO_Pin << 16U;
 8002d3a:	887b      	ldrh	r3, [r7, #2]
 8002d3c:	041a      	lsls	r2, r3, #16
 8002d3e:	687b      	ldr	r3, [r7, #4]
 8002d40:	619a      	str	r2, [r3, #24]
}
 8002d42:	bf00      	nop
 8002d44:	370c      	adds	r7, #12
 8002d46:	46bd      	mov	sp, r7
 8002d48:	f85d 7b04 	ldr.w	r7, [sp], #4
 8002d4c:	4770      	bx	lr
	...

08002d50 <HAL_GPIO_EXTI_IRQHandler>:
  * @brief  This function handles EXTI interrupt request.
  * @param  GPIO_Pin Specifies the pins connected EXTI line
  * @retval None
  */
void HAL_GPIO_EXTI_IRQHandler(uint16_t GPIO_Pin)
{
 8002d50:	b580      	push	{r7, lr}
 8002d52:	b082      	sub	sp, #8
 8002d54:	af00      	add	r7, sp, #0
 8002d56:	4603      	mov	r3, r0
 8002d58:	80fb      	strh	r3, [r7, #6]
  /* EXTI line interrupt detected */
  if(__HAL_GPIO_EXTI_GET_IT(GPIO_Pin) != RESET)
 8002d5a:	4b08      	ldr	r3, [pc, #32]	@ (8002d7c <HAL_GPIO_EXTI_IRQHandler+0x2c>)
 8002d5c:	695a      	ldr	r2, [r3, #20]
 8002d5e:	88fb      	ldrh	r3, [r7, #6]
 8002d60:	4013      	ands	r3, r2
 8002d62:	2b00      	cmp	r3, #0
 8002d64:	d006      	beq.n	8002d74 <HAL_GPIO_EXTI_IRQHandler+0x24>
  {
    __HAL_GPIO_EXTI_CLEAR_IT(GPIO_Pin);
 8002d66:	4a05      	ldr	r2, [pc, #20]	@ (8002d7c <HAL_GPIO_EXTI_IRQHandler+0x2c>)
 8002d68:	88fb      	ldrh	r3, [r7, #6]
 8002d6a:	6153      	str	r3, [r2, #20]
    HAL_GPIO_EXTI_Callback(GPIO_Pin);
 8002d6c:	88fb      	ldrh	r3, [r7, #6]
 8002d6e:	4618      	mov	r0, r3
 8002d70:	f000 f806 	bl	8002d80 <HAL_GPIO_EXTI_Callback>
  }
}
 8002d74:	bf00      	nop
 8002d76:	3708      	adds	r7, #8
 8002d78:	46bd      	mov	sp, r7
 8002d7a:	bd80      	pop	{r7, pc}
 8002d7c:	40013c00 	.word	0x40013c00

08002d80 <HAL_GPIO_EXTI_Callback>:
  * @brief  EXTI line detection callbacks.
  * @param  GPIO_Pin Specifies the pins connected EXTI line
  * @retval None
  */
__weak void HAL_GPIO_EXTI_Callback(uint16_t GPIO_Pin)
{
 8002d80:	b480      	push	{r7}
 8002d82:	b083      	sub	sp, #12
 8002d84:	af00      	add	r7, sp, #0
 8002d86:	4603      	mov	r3, r0
 8002d88:	80fb      	strh	r3, [r7, #6]
  /* Prevent unused argument(s) compilation warning */
  UNUSED(GPIO_Pin);
  /* NOTE: This function Should not be modified, when the callback is needed,
           the HAL_GPIO_EXTI_Callback could be implemented in the user file
   */
}
 8002d8a:	bf00      	nop
 8002d8c:	370c      	adds	r7, #12
 8002d8e:	46bd      	mov	sp, r7
 8002d90:	f85d 7b04 	ldr.w	r7, [sp], #4
 8002d94:	4770      	bx	lr
	...

08002d98 <HAL_I2C_Init>:
  * @param  hi2c Pointer to a I2C_HandleTypeDef structure that contains
  *                the configuration information for the specified I2C.
  * @retval HAL status
  */
HAL_StatusTypeDef HAL_I2C_Init(I2C_HandleTypeDef *hi2c)
{
 8002d98:	b580      	push	{r7, lr}
 8002d9a:	b084      	sub	sp, #16
 8002d9c:	af00      	add	r7, sp, #0
 8002d9e:	6078      	str	r0, [r7, #4]
  uint32_t freqrange;
  uint32_t pclk1;

  /* Check the I2C handle allocation */
  if (hi2c == NULL)
 8002da0:	687b      	ldr	r3, [r7, #4]
 8002da2:	2b00      	cmp	r3, #0
 8002da4:	d101      	bne.n	8002daa <HAL_I2C_Init+0x12>
  {
    return HAL_ERROR;
 8002da6:	2301      	movs	r3, #1
 8002da8:	e12b      	b.n	8003002 <HAL_I2C_Init+0x26a>
  assert_param(IS_I2C_DUAL_ADDRESS(hi2c->Init.DualAddressMode));
  assert_param(IS_I2C_OWN_ADDRESS2(hi2c->Init.OwnAddress2));
  assert_param(IS_I2C_GENERAL_CALL(hi2c->Init.GeneralCallMode));
  assert_param(IS_I2C_NO_STRETCH(hi2c->Init.NoStretchMode));

  if (hi2c->State == HAL_I2C_STATE_RESET)
 8002daa:	687b      	ldr	r3, [r7, #4]
 8002dac:	f893 303d 	ldrb.w	r3, [r3, #61]	@ 0x3d
 8002db0:	b2db      	uxtb	r3, r3
 8002db2:	2b00      	cmp	r3, #0
 8002db4:	d106      	bne.n	8002dc4 <HAL_I2C_Init+0x2c>
  {
    /* Allocate lock resource and initialize it */
    hi2c->Lock = HAL_UNLOCKED;
 8002db6:	687b      	ldr	r3, [r7, #4]
 8002db8:	2200      	movs	r2, #0
 8002dba:	f883 203c 	strb.w	r2, [r3, #60]	@ 0x3c

    /* Init the low level hardware : GPIO, CLOCK, NVIC */
    hi2c->MspInitCallback(hi2c);
#else
    /* Init the low level hardware : GPIO, CLOCK, NVIC */
    HAL_I2C_MspInit(hi2c);
 8002dbe:	6878      	ldr	r0, [r7, #4]
 8002dc0:	f7fe fba8 	bl	8001514 <HAL_I2C_MspInit>
#endif /* USE_HAL_I2C_REGISTER_CALLBACKS */
  }

  hi2c->State = HAL_I2C_STATE_BUSY;
 8002dc4:	687b      	ldr	r3, [r7, #4]
 8002dc6:	2224      	movs	r2, #36	@ 0x24
 8002dc8:	f883 203d 	strb.w	r2, [r3, #61]	@ 0x3d

  /* Disable the selected I2C peripheral */
  __HAL_I2C_DISABLE(hi2c);
 8002dcc:	687b      	ldr	r3, [r7, #4]
 8002dce:	681b      	ldr	r3, [r3, #0]
 8002dd0:	681a      	ldr	r2, [r3, #0]
 8002dd2:	687b      	ldr	r3, [r7, #4]
 8002dd4:	681b      	ldr	r3, [r3, #0]
 8002dd6:	f022 0201 	bic.w	r2, r2, #1
 8002dda:	601a      	str	r2, [r3, #0]

  /*Reset I2C*/
  hi2c->Instance->CR1 |= I2C_CR1_SWRST;
 8002ddc:	687b      	ldr	r3, [r7, #4]
 8002dde:	681b      	ldr	r3, [r3, #0]
 8002de0:	681a      	ldr	r2, [r3, #0]
 8002de2:	687b      	ldr	r3, [r7, #4]
 8002de4:	681b      	ldr	r3, [r3, #0]
 8002de6:	f442 4200 	orr.w	r2, r2, #32768	@ 0x8000
 8002dea:	601a      	str	r2, [r3, #0]
  hi2c->Instance->CR1 &= ~I2C_CR1_SWRST;
 8002dec:	687b      	ldr	r3, [r7, #4]
 8002dee:	681b      	ldr	r3, [r3, #0]
 8002df0:	681a      	ldr	r2, [r3, #0]
 8002df2:	687b      	ldr	r3, [r7, #4]
 8002df4:	681b      	ldr	r3, [r3, #0]
 8002df6:	f422 4200 	bic.w	r2, r2, #32768	@ 0x8000
 8002dfa:	601a      	str	r2, [r3, #0]

  /* Get PCLK1 frequency */
  pclk1 = HAL_RCC_GetPCLK1Freq();
 8002dfc:	f000 fd40 	bl	8003880 <HAL_RCC_GetPCLK1Freq>
 8002e00:	60f8      	str	r0, [r7, #12]

  /* Check the minimum allowed PCLK1 frequency */
  if (I2C_MIN_PCLK_FREQ(pclk1, hi2c->Init.ClockSpeed) == 1U)
 8002e02:	687b      	ldr	r3, [r7, #4]
 8002e04:	685b      	ldr	r3, [r3, #4]
 8002e06:	4a81      	ldr	r2, [pc, #516]	@ (800300c <HAL_I2C_Init+0x274>)
 8002e08:	4293      	cmp	r3, r2
 8002e0a:	d807      	bhi.n	8002e1c <HAL_I2C_Init+0x84>
 8002e0c:	68fb      	ldr	r3, [r7, #12]
 8002e0e:	4a80      	ldr	r2, [pc, #512]	@ (8003010 <HAL_I2C_Init+0x278>)
 8002e10:	4293      	cmp	r3, r2
 8002e12:	bf94      	ite	ls
 8002e14:	2301      	movls	r3, #1
 8002e16:	2300      	movhi	r3, #0
 8002e18:	b2db      	uxtb	r3, r3
 8002e1a:	e006      	b.n	8002e2a <HAL_I2C_Init+0x92>
 8002e1c:	68fb      	ldr	r3, [r7, #12]
 8002e1e:	4a7d      	ldr	r2, [pc, #500]	@ (8003014 <HAL_I2C_Init+0x27c>)
 8002e20:	4293      	cmp	r3, r2
 8002e22:	bf94      	ite	ls
 8002e24:	2301      	movls	r3, #1
 8002e26:	2300      	movhi	r3, #0
 8002e28:	b2db      	uxtb	r3, r3
 8002e2a:	2b00      	cmp	r3, #0
 8002e2c:	d001      	beq.n	8002e32 <HAL_I2C_Init+0x9a>
  {
    return HAL_ERROR;
 8002e2e:	2301      	movs	r3, #1
 8002e30:	e0e7      	b.n	8003002 <HAL_I2C_Init+0x26a>
  }

  /* Calculate frequency range */
  freqrange = I2C_FREQRANGE(pclk1);
 8002e32:	68fb      	ldr	r3, [r7, #12]
 8002e34:	4a78      	ldr	r2, [pc, #480]	@ (8003018 <HAL_I2C_Init+0x280>)
 8002e36:	fba2 2303 	umull	r2, r3, r2, r3
 8002e3a:	0c9b      	lsrs	r3, r3, #18
 8002e3c:	60bb      	str	r3, [r7, #8]

  /*---------------------------- I2Cx CR2 Configuration ----------------------*/
  /* Configure I2Cx: Frequency range */
  MODIFY_REG(hi2c->Instance->CR2, I2C_CR2_FREQ, freqrange);
 8002e3e:	687b      	ldr	r3, [r7, #4]
 8002e40:	681b      	ldr	r3, [r3, #0]
 8002e42:	685b      	ldr	r3, [r3, #4]
 8002e44:	f023 013f 	bic.w	r1, r3, #63	@ 0x3f
 8002e48:	687b      	ldr	r3, [r7, #4]
 8002e4a:	681b      	ldr	r3, [r3, #0]
 8002e4c:	68ba      	ldr	r2, [r7, #8]
 8002e4e:	430a      	orrs	r2, r1
 8002e50:	605a      	str	r2, [r3, #4]

  /*---------------------------- I2Cx TRISE Configuration --------------------*/
  /* Configure I2Cx: Rise Time */
  MODIFY_REG(hi2c->Instance->TRISE, I2C_TRISE_TRISE, I2C_RISE_TIME(freqrange, hi2c->Init.ClockSpeed));
 8002e52:	687b      	ldr	r3, [r7, #4]
 8002e54:	681b      	ldr	r3, [r3, #0]
 8002e56:	6a1b      	ldr	r3, [r3, #32]
 8002e58:	f023 013f 	bic.w	r1, r3, #63	@ 0x3f
 8002e5c:	687b      	ldr	r3, [r7, #4]
 8002e5e:	685b      	ldr	r3, [r3, #4]
 8002e60:	4a6a      	ldr	r2, [pc, #424]	@ (800300c <HAL_I2C_Init+0x274>)
 8002e62:	4293      	cmp	r3, r2
 8002e64:	d802      	bhi.n	8002e6c <HAL_I2C_Init+0xd4>
 8002e66:	68bb      	ldr	r3, [r7, #8]
 8002e68:	3301      	adds	r3, #1
 8002e6a:	e009      	b.n	8002e80 <HAL_I2C_Init+0xe8>
 8002e6c:	68bb      	ldr	r3, [r7, #8]
 8002e6e:	f44f 7296 	mov.w	r2, #300	@ 0x12c
 8002e72:	fb02 f303 	mul.w	r3, r2, r3
 8002e76:	4a69      	ldr	r2, [pc, #420]	@ (800301c <HAL_I2C_Init+0x284>)
 8002e78:	fba2 2303 	umull	r2, r3, r2, r3
 8002e7c:	099b      	lsrs	r3, r3, #6
 8002e7e:	3301      	adds	r3, #1
 8002e80:	687a      	ldr	r2, [r7, #4]
 8002e82:	6812      	ldr	r2, [r2, #0]
 8002e84:	430b      	orrs	r3, r1
 8002e86:	6213      	str	r3, [r2, #32]

  /*---------------------------- I2Cx CCR Configuration ----------------------*/
  /* Configure I2Cx: Speed */
  MODIFY_REG(hi2c->Instance->CCR, (I2C_CCR_FS | I2C_CCR_DUTY | I2C_CCR_CCR), I2C_SPEED(pclk1, hi2c->Init.ClockSpeed, hi2c->Init.DutyCycle));
 8002e88:	687b      	ldr	r3, [r7, #4]
 8002e8a:	681b      	ldr	r3, [r3, #0]
 8002e8c:	69db      	ldr	r3, [r3, #28]
 8002e8e:	f423 424f 	bic.w	r2, r3, #52992	@ 0xcf00
 8002e92:	f022 02ff 	bic.w	r2, r2, #255	@ 0xff
 8002e96:	687b      	ldr	r3, [r7, #4]
 8002e98:	685b      	ldr	r3, [r3, #4]
 8002e9a:	495c      	ldr	r1, [pc, #368]	@ (800300c <HAL_I2C_Init+0x274>)
 8002e9c:	428b      	cmp	r3, r1
 8002e9e:	d819      	bhi.n	8002ed4 <HAL_I2C_Init+0x13c>
 8002ea0:	68fb      	ldr	r3, [r7, #12]
 8002ea2:	1e59      	subs	r1, r3, #1
 8002ea4:	687b      	ldr	r3, [r7, #4]
 8002ea6:	685b      	ldr	r3, [r3, #4]
 8002ea8:	005b      	lsls	r3, r3, #1
 8002eaa:	fbb1 f3f3 	udiv	r3, r1, r3
 8002eae:	1c59      	adds	r1, r3, #1
 8002eb0:	f640 73fc 	movw	r3, #4092	@ 0xffc
 8002eb4:	400b      	ands	r3, r1
 8002eb6:	2b00      	cmp	r3, #0
 8002eb8:	d00a      	beq.n	8002ed0 <HAL_I2C_Init+0x138>
 8002eba:	68fb      	ldr	r3, [r7, #12]
 8002ebc:	1e59      	subs	r1, r3, #1
 8002ebe:	687b      	ldr	r3, [r7, #4]
 8002ec0:	685b      	ldr	r3, [r3, #4]
 8002ec2:	005b      	lsls	r3, r3, #1
 8002ec4:	fbb1 f3f3 	udiv	r3, r1, r3
 8002ec8:	3301      	adds	r3, #1
 8002eca:	f3c3 030b 	ubfx	r3, r3, #0, #12
 8002ece:	e051      	b.n	8002f74 <HAL_I2C_Init+0x1dc>
 8002ed0:	2304      	movs	r3, #4
 8002ed2:	e04f      	b.n	8002f74 <HAL_I2C_Init+0x1dc>
 8002ed4:	687b      	ldr	r3, [r7, #4]
 8002ed6:	689b      	ldr	r3, [r3, #8]
 8002ed8:	2b00      	cmp	r3, #0
 8002eda:	d111      	bne.n	8002f00 <HAL_I2C_Init+0x168>
 8002edc:	68fb      	ldr	r3, [r7, #12]
 8002ede:	1e58      	subs	r0, r3, #1
 8002ee0:	687b      	ldr	r3, [r7, #4]
 8002ee2:	6859      	ldr	r1, [r3, #4]
 8002ee4:	460b      	mov	r3, r1
 8002ee6:	005b      	lsls	r3, r3, #1
 8002ee8:	440b      	add	r3, r1
 8002eea:	fbb0 f3f3 	udiv	r3, r0, r3
 8002eee:	3301      	adds	r3, #1
 8002ef0:	f3c3 030b 	ubfx	r3, r3, #0, #12
 8002ef4:	2b00      	cmp	r3, #0
 8002ef6:	bf0c      	ite	eq
 8002ef8:	2301      	moveq	r3, #1
 8002efa:	2300      	movne	r3, #0
 8002efc:	b2db      	uxtb	r3, r3
 8002efe:	e012      	b.n	8002f26 <HAL_I2C_Init+0x18e>
 8002f00:	68fb      	ldr	r3, [r7, #12]
 8002f02:	1e58      	subs	r0, r3, #1
 8002f04:	687b      	ldr	r3, [r7, #4]
 8002f06:	6859      	ldr	r1, [r3, #4]
 8002f08:	460b      	mov	r3, r1
 8002f0a:	009b      	lsls	r3, r3, #2
 8002f0c:	440b      	add	r3, r1
 8002f0e:	0099      	lsls	r1, r3, #2
 8002f10:	440b      	add	r3, r1
 8002f12:	fbb0 f3f3 	udiv	r3, r0, r3
 8002f16:	3301      	adds	r3, #1
 8002f18:	f3c3 030b 	ubfx	r3, r3, #0, #12
 8002f1c:	2b00      	cmp	r3, #0
 8002f1e:	bf0c      	ite	eq
 8002f20:	2301      	moveq	r3, #1
 8002f22:	2300      	movne	r3, #0
 8002f24:	b2db      	uxtb	r3, r3
 8002f26:	2b00      	cmp	r3, #0
 8002f28:	d001      	beq.n	8002f2e <HAL_I2C_Init+0x196>
 8002f2a:	2301      	movs	r3, #1
 8002f2c:	e022      	b.n	8002f74 <HAL_I2C_Init+0x1dc>
 8002f2e:	687b      	ldr	r3, [r7, #4]
 8002f30:	689b      	ldr	r3, [r3, #8]
 8002f32:	2b00      	cmp	r3, #0
 8002f34:	d10e      	bne.n	8002f54 <HAL_I2C_Init+0x1bc>
 8002f36:	68fb      	ldr	r3, [r7, #12]
 8002f38:	1e58      	subs	r0, r3, #1
 8002f3a:	687b      	ldr	r3, [r7, #4]
 8002f3c:	6859      	ldr	r1, [r3, #4]
 8002f3e:	460b      	mov	r3, r1
 8002f40:	005b      	lsls	r3, r3, #1
 8002f42:	440b      	add	r3, r1
 8002f44:	fbb0 f3f3 	udiv	r3, r0, r3
 8002f48:	3301      	adds	r3, #1
 8002f4a:	f3c3 030b 	ubfx	r3, r3, #0, #12
 8002f4e:	f443 4300 	orr.w	r3, r3, #32768	@ 0x8000
 8002f52:	e00f      	b.n	8002f74 <HAL_I2C_Init+0x1dc>
 8002f54:	68fb      	ldr	r3, [r7, #12]
 8002f56:	1e58      	subs	r0, r3, #1
 8002f58:	687b      	ldr	r3, [r7, #4]
 8002f5a:	6859      	ldr	r1, [r3, #4]
 8002f5c:	460b      	mov	r3, r1
 8002f5e:	009b      	lsls	r3, r3, #2
 8002f60:	440b      	add	r3, r1
 8002f62:	0099      	lsls	r1, r3, #2
 8002f64:	440b      	add	r3, r1
 8002f66:	fbb0 f3f3 	udiv	r3, r0, r3
 8002f6a:	3301      	adds	r3, #1
 8002f6c:	f3c3 030b 	ubfx	r3, r3, #0, #12
 8002f70:	f443 4340 	orr.w	r3, r3, #49152	@ 0xc000
 8002f74:	6879      	ldr	r1, [r7, #4]
 8002f76:	6809      	ldr	r1, [r1, #0]
 8002f78:	4313      	orrs	r3, r2
 8002f7a:	61cb      	str	r3, [r1, #28]

  /*---------------------------- I2Cx CR1 Configuration ----------------------*/
  /* Configure I2Cx: Generalcall and NoStretch mode */
  MODIFY_REG(hi2c->Instance->CR1, (I2C_CR1_ENGC | I2C_CR1_NOSTRETCH), (hi2c->Init.GeneralCallMode | hi2c->Init.NoStretchMode));
 8002f7c:	687b      	ldr	r3, [r7, #4]
 8002f7e:	681b      	ldr	r3, [r3, #0]
 8002f80:	681b      	ldr	r3, [r3, #0]
 8002f82:	f023 01c0 	bic.w	r1, r3, #192	@ 0xc0
 8002f86:	687b      	ldr	r3, [r7, #4]
 8002f88:	69da      	ldr	r2, [r3, #28]
 8002f8a:	687b      	ldr	r3, [r7, #4]
 8002f8c:	6a1b      	ldr	r3, [r3, #32]
 8002f8e:	431a      	orrs	r2, r3
 8002f90:	687b      	ldr	r3, [r7, #4]
 8002f92:	681b      	ldr	r3, [r3, #0]
 8002f94:	430a      	orrs	r2, r1
 8002f96:	601a      	str	r2, [r3, #0]

  /*---------------------------- I2Cx OAR1 Configuration ---------------------*/
  /* Configure I2Cx: Own Address1 and addressing mode */
  MODIFY_REG(hi2c->Instance->OAR1, (I2C_OAR1_ADDMODE | I2C_OAR1_ADD8_9 | I2C_OAR1_ADD1_7 | I2C_OAR1_ADD0), (hi2c->Init.AddressingMode | hi2c->Init.OwnAddress1));
 8002f98:	687b      	ldr	r3, [r7, #4]
 8002f9a:	681b      	ldr	r3, [r3, #0]
 8002f9c:	689b      	ldr	r3, [r3, #8]
 8002f9e:	f423 4303 	bic.w	r3, r3, #33536	@ 0x8300
 8002fa2:	f023 03ff 	bic.w	r3, r3, #255	@ 0xff
 8002fa6:	687a      	ldr	r2, [r7, #4]
 8002fa8:	6911      	ldr	r1, [r2, #16]
 8002faa:	687a      	ldr	r2, [r7, #4]
 8002fac:	68d2      	ldr	r2, [r2, #12]
 8002fae:	4311      	orrs	r1, r2
 8002fb0:	687a      	ldr	r2, [r7, #4]
 8002fb2:	6812      	ldr	r2, [r2, #0]
 8002fb4:	430b      	orrs	r3, r1
 8002fb6:	6093      	str	r3, [r2, #8]

  /*---------------------------- I2Cx OAR2 Configuration ---------------------*/
  /* Configure I2Cx: Dual mode and Own Address2 */
  MODIFY_REG(hi2c->Instance->OAR2, (I2C_OAR2_ENDUAL | I2C_OAR2_ADD2), (hi2c->Init.DualAddressMode | hi2c->Init.OwnAddress2));
 8002fb8:	687b      	ldr	r3, [r7, #4]
 8002fba:	681b      	ldr	r3, [r3, #0]
 8002fbc:	68db      	ldr	r3, [r3, #12]
 8002fbe:	f023 01ff 	bic.w	r1, r3, #255	@ 0xff
 8002fc2:	687b      	ldr	r3, [r7, #4]
 8002fc4:	695a      	ldr	r2, [r3, #20]
 8002fc6:	687b      	ldr	r3, [r7, #4]
 8002fc8:	699b      	ldr	r3, [r3, #24]
 8002fca:	431a      	orrs	r2, r3
 8002fcc:	687b      	ldr	r3, [r7, #4]
 8002fce:	681b      	ldr	r3, [r3, #0]
 8002fd0:	430a      	orrs	r2, r1
 8002fd2:	60da      	str	r2, [r3, #12]

  /* Enable the selected I2C peripheral */
  __HAL_I2C_ENABLE(hi2c);
 8002fd4:	687b      	ldr	r3, [r7, #4]
 8002fd6:	681b      	ldr	r3, [r3, #0]
 8002fd8:	681a      	ldr	r2, [r3, #0]
 8002fda:	687b      	ldr	r3, [r7, #4]
 8002fdc:	681b      	ldr	r3, [r3, #0]
 8002fde:	f042 0201 	orr.w	r2, r2, #1
 8002fe2:	601a      	str	r2, [r3, #0]

  hi2c->ErrorCode = HAL_I2C_ERROR_NONE;
 8002fe4:	687b      	ldr	r3, [r7, #4]
 8002fe6:	2200      	movs	r2, #0
 8002fe8:	641a      	str	r2, [r3, #64]	@ 0x40
  hi2c->State = HAL_I2C_STATE_READY;
 8002fea:	687b      	ldr	r3, [r7, #4]
 8002fec:	2220      	movs	r2, #32
 8002fee:	f883 203d 	strb.w	r2, [r3, #61]	@ 0x3d
  hi2c->PreviousState = I2C_STATE_NONE;
 8002ff2:	687b      	ldr	r3, [r7, #4]
 8002ff4:	2200      	movs	r2, #0
 8002ff6:	631a      	str	r2, [r3, #48]	@ 0x30
  hi2c->Mode = HAL_I2C_MODE_NONE;
 8002ff8:	687b      	ldr	r3, [r7, #4]
 8002ffa:	2200      	movs	r2, #0
 8002ffc:	f883 203e 	strb.w	r2, [r3, #62]	@ 0x3e

  return HAL_OK;
 8003000:	2300      	movs	r3, #0
}
 8003002:	4618      	mov	r0, r3
 8003004:	3710      	adds	r7, #16
 8003006:	46bd      	mov	sp, r7
 8003008:	bd80      	pop	{r7, pc}
 800300a:	bf00      	nop
 800300c:	000186a0 	.word	0x000186a0
 8003010:	001e847f 	.word	0x001e847f
 8003014:	003d08ff 	.word	0x003d08ff
 8003018:	431bde83 	.word	0x431bde83
 800301c:	10624dd3 	.word	0x10624dd3

08003020 <HAL_RCC_OscConfig>:
  *         supported by this API. User should request a transition to HSE Off
  *         first and then HSE On or HSE Bypass.
  * @retval HAL status
  */
__weak HAL_StatusTypeDef HAL_RCC_OscConfig(RCC_OscInitTypeDef  *RCC_OscInitStruct)
{
 8003020:	b580      	push	{r7, lr}
 8003022:	b086      	sub	sp, #24
 8003024:	af00      	add	r7, sp, #0
 8003026:	6078      	str	r0, [r7, #4]
  uint32_t tickstart, pll_config;

  /* Check Null pointer */
  if(RCC_OscInitStruct == NULL)
 8003028:	687b      	ldr	r3, [r7, #4]
 800302a:	2b00      	cmp	r3, #0
 800302c:	d101      	bne.n	8003032 <HAL_RCC_OscConfig+0x12>
  {
    return HAL_ERROR;
 800302e:	2301      	movs	r3, #1
 8003030:	e267      	b.n	8003502 <HAL_RCC_OscConfig+0x4e2>
  }

  /* Check the parameters */
  assert_param(IS_RCC_OSCILLATORTYPE(RCC_OscInitStruct->OscillatorType));
  /*------------------------------- HSE Configuration ------------------------*/
  if(((RCC_OscInitStruct->OscillatorType) & RCC_OSCILLATORTYPE_HSE) == RCC_OSCILLATORTYPE_HSE)
 8003032:	687b      	ldr	r3, [r7, #4]
 8003034:	681b      	ldr	r3, [r3, #0]
 8003036:	f003 0301 	and.w	r3, r3, #1
 800303a:	2b00      	cmp	r3, #0
 800303c:	d075      	beq.n	800312a <HAL_RCC_OscConfig+0x10a>
  {
    /* Check the parameters */
    assert_param(IS_RCC_HSE(RCC_OscInitStruct->HSEState));
    /* When the HSE is used as system clock or clock source for PLL in these cases HSE will not disabled */
    if((__HAL_RCC_GET_SYSCLK_SOURCE() == RCC_CFGR_SWS_HSE) ||\
 800303e:	4b88      	ldr	r3, [pc, #544]	@ (8003260 <HAL_RCC_OscConfig+0x240>)
 8003040:	689b      	ldr	r3, [r3, #8]
 8003042:	f003 030c 	and.w	r3, r3, #12
 8003046:	2b04      	cmp	r3, #4
 8003048:	d00c      	beq.n	8003064 <HAL_RCC_OscConfig+0x44>
      ((__HAL_RCC_GET_SYSCLK_SOURCE() == RCC_CFGR_SWS_PLL) && ((RCC->PLLCFGR & RCC_PLLCFGR_PLLSRC) == RCC_PLLCFGR_PLLSRC_HSE)))
 800304a:	4b85      	ldr	r3, [pc, #532]	@ (8003260 <HAL_RCC_OscConfig+0x240>)
 800304c:	689b      	ldr	r3, [r3, #8]
 800304e:	f003 030c 	and.w	r3, r3, #12
    if((__HAL_RCC_GET_SYSCLK_SOURCE() == RCC_CFGR_SWS_HSE) ||\
 8003052:	2b08      	cmp	r3, #8
 8003054:	d112      	bne.n	800307c <HAL_RCC_OscConfig+0x5c>
      ((__HAL_RCC_GET_SYSCLK_SOURCE() == RCC_CFGR_SWS_PLL) && ((RCC->PLLCFGR & RCC_PLLCFGR_PLLSRC) == RCC_PLLCFGR_PLLSRC_HSE)))
 8003056:	4b82      	ldr	r3, [pc, #520]	@ (8003260 <HAL_RCC_OscConfig+0x240>)
 8003058:	685b      	ldr	r3, [r3, #4]
 800305a:	f403 0380 	and.w	r3, r3, #4194304	@ 0x400000
 800305e:	f5b3 0f80 	cmp.w	r3, #4194304	@ 0x400000
 8003062:	d10b      	bne.n	800307c <HAL_RCC_OscConfig+0x5c>
    {
      if((__HAL_RCC_GET_FLAG(RCC_FLAG_HSERDY) != RESET) && (RCC_OscInitStruct->HSEState == RCC_HSE_OFF))
 8003064:	4b7e      	ldr	r3, [pc, #504]	@ (8003260 <HAL_RCC_OscConfig+0x240>)
 8003066:	681b      	ldr	r3, [r3, #0]
 8003068:	f403 3300 	and.w	r3, r3, #131072	@ 0x20000
 800306c:	2b00      	cmp	r3, #0
 800306e:	d05b      	beq.n	8003128 <HAL_RCC_OscConfig+0x108>
 8003070:	687b      	ldr	r3, [r7, #4]
 8003072:	685b      	ldr	r3, [r3, #4]
 8003074:	2b00      	cmp	r3, #0
 8003076:	d157      	bne.n	8003128 <HAL_RCC_OscConfig+0x108>
      {
        return HAL_ERROR;
 8003078:	2301      	movs	r3, #1
 800307a:	e242      	b.n	8003502 <HAL_RCC_OscConfig+0x4e2>
      }
    }
    else
    {
      /* Set the new HSE configuration ---------------------------------------*/
      __HAL_RCC_HSE_CONFIG(RCC_OscInitStruct->HSEState);
 800307c:	687b      	ldr	r3, [r7, #4]
 800307e:	685b      	ldr	r3, [r3, #4]
 8003080:	f5b3 3f80 	cmp.w	r3, #65536	@ 0x10000
 8003084:	d106      	bne.n	8003094 <HAL_RCC_OscConfig+0x74>
 8003086:	4b76      	ldr	r3, [pc, #472]	@ (8003260 <HAL_RCC_OscConfig+0x240>)
 8003088:	681b      	ldr	r3, [r3, #0]
 800308a:	4a75      	ldr	r2, [pc, #468]	@ (8003260 <HAL_RCC_OscConfig+0x240>)
 800308c:	f443 3380 	orr.w	r3, r3, #65536	@ 0x10000
 8003090:	6013      	str	r3, [r2, #0]
 8003092:	e01d      	b.n	80030d0 <HAL_RCC_OscConfig+0xb0>
 8003094:	687b      	ldr	r3, [r7, #4]
 8003096:	685b      	ldr	r3, [r3, #4]
 8003098:	f5b3 2fa0 	cmp.w	r3, #327680	@ 0x50000
 800309c:	d10c      	bne.n	80030b8 <HAL_RCC_OscConfig+0x98>
 800309e:	4b70      	ldr	r3, [pc, #448]	@ (8003260 <HAL_RCC_OscConfig+0x240>)
 80030a0:	681b      	ldr	r3, [r3, #0]
 80030a2:	4a6f      	ldr	r2, [pc, #444]	@ (8003260 <HAL_RCC_OscConfig+0x240>)
 80030a4:	f443 2380 	orr.w	r3, r3, #262144	@ 0x40000
 80030a8:	6013      	str	r3, [r2, #0]
 80030aa:	4b6d      	ldr	r3, [pc, #436]	@ (8003260 <HAL_RCC_OscConfig+0x240>)
 80030ac:	681b      	ldr	r3, [r3, #0]
 80030ae:	4a6c      	ldr	r2, [pc, #432]	@ (8003260 <HAL_RCC_OscConfig+0x240>)
 80030b0:	f443 3380 	orr.w	r3, r3, #65536	@ 0x10000
 80030b4:	6013      	str	r3, [r2, #0]
 80030b6:	e00b      	b.n	80030d0 <HAL_RCC_OscConfig+0xb0>
 80030b8:	4b69      	ldr	r3, [pc, #420]	@ (8003260 <HAL_RCC_OscConfig+0x240>)
 80030ba:	681b      	ldr	r3, [r3, #0]
 80030bc:	4a68      	ldr	r2, [pc, #416]	@ (8003260 <HAL_RCC_OscConfig+0x240>)
 80030be:	f423 3380 	bic.w	r3, r3, #65536	@ 0x10000
 80030c2:	6013      	str	r3, [r2, #0]
 80030c4:	4b66      	ldr	r3, [pc, #408]	@ (8003260 <HAL_RCC_OscConfig+0x240>)
 80030c6:	681b      	ldr	r3, [r3, #0]
 80030c8:	4a65      	ldr	r2, [pc, #404]	@ (8003260 <HAL_RCC_OscConfig+0x240>)
 80030ca:	f423 2380 	bic.w	r3, r3, #262144	@ 0x40000
 80030ce:	6013      	str	r3, [r2, #0]

      /* Check the HSE State */
      if((RCC_OscInitStruct->HSEState) != RCC_HSE_OFF)
 80030d0:	687b      	ldr	r3, [r7, #4]
 80030d2:	685b      	ldr	r3, [r3, #4]
 80030d4:	2b00      	cmp	r3, #0
 80030d6:	d013      	beq.n	8003100 <HAL_RCC_OscConfig+0xe0>
      {
        /* Get Start Tick */
        tickstart = HAL_GetTick();
 80030d8:	f7ff f84e 	bl	8002178 <HAL_GetTick>
 80030dc:	6138      	str	r0, [r7, #16]

        /* Wait till HSE is ready */
        while(__HAL_RCC_GET_FLAG(RCC_FLAG_HSERDY) == RESET)
 80030de:	e008      	b.n	80030f2 <HAL_RCC_OscConfig+0xd2>
        {
          if((HAL_GetTick() - tickstart ) > HSE_TIMEOUT_VALUE)
 80030e0:	f7ff f84a 	bl	8002178 <HAL_GetTick>
 80030e4:	4602      	mov	r2, r0
 80030e6:	693b      	ldr	r3, [r7, #16]
 80030e8:	1ad3      	subs	r3, r2, r3
 80030ea:	2b64      	cmp	r3, #100	@ 0x64
 80030ec:	d901      	bls.n	80030f2 <HAL_RCC_OscConfig+0xd2>
          {
            return HAL_TIMEOUT;
 80030ee:	2303      	movs	r3, #3
 80030f0:	e207      	b.n	8003502 <HAL_RCC_OscConfig+0x4e2>
        while(__HAL_RCC_GET_FLAG(RCC_FLAG_HSERDY) == RESET)
 80030f2:	4b5b      	ldr	r3, [pc, #364]	@ (8003260 <HAL_RCC_OscConfig+0x240>)
 80030f4:	681b      	ldr	r3, [r3, #0]
 80030f6:	f403 3300 	and.w	r3, r3, #131072	@ 0x20000
 80030fa:	2b00      	cmp	r3, #0
 80030fc:	d0f0      	beq.n	80030e0 <HAL_RCC_OscConfig+0xc0>
 80030fe:	e014      	b.n	800312a <HAL_RCC_OscConfig+0x10a>
        }
      }
      else
      {
        /* Get Start Tick */
        tickstart = HAL_GetTick();
 8003100:	f7ff f83a 	bl	8002178 <HAL_GetTick>
 8003104:	6138      	str	r0, [r7, #16]

        /* Wait till HSE is bypassed or disabled */
        while(__HAL_RCC_GET_FLAG(RCC_FLAG_HSERDY) != RESET)
 8003106:	e008      	b.n	800311a <HAL_RCC_OscConfig+0xfa>
        {
          if((HAL_GetTick() - tickstart ) > HSE_TIMEOUT_VALUE)
 8003108:	f7ff f836 	bl	8002178 <HAL_GetTick>
 800310c:	4602      	mov	r2, r0
 800310e:	693b      	ldr	r3, [r7, #16]
 8003110:	1ad3      	subs	r3, r2, r3
 8003112:	2b64      	cmp	r3, #100	@ 0x64
 8003114:	d901      	bls.n	800311a <HAL_RCC_OscConfig+0xfa>
          {
            return HAL_TIMEOUT;
 8003116:	2303      	movs	r3, #3
 8003118:	e1f3      	b.n	8003502 <HAL_RCC_OscConfig+0x4e2>
        while(__HAL_RCC_GET_FLAG(RCC_FLAG_HSERDY) != RESET)
 800311a:	4b51      	ldr	r3, [pc, #324]	@ (8003260 <HAL_RCC_OscConfig+0x240>)
 800311c:	681b      	ldr	r3, [r3, #0]
 800311e:	f403 3300 	and.w	r3, r3, #131072	@ 0x20000
 8003122:	2b00      	cmp	r3, #0
 8003124:	d1f0      	bne.n	8003108 <HAL_RCC_OscConfig+0xe8>
 8003126:	e000      	b.n	800312a <HAL_RCC_OscConfig+0x10a>
      if((__HAL_RCC_GET_FLAG(RCC_FLAG_HSERDY) != RESET) && (RCC_OscInitStruct->HSEState == RCC_HSE_OFF))
 8003128:	bf00      	nop
        }
      }
    }
  }
  /*----------------------------- HSI Configuration --------------------------*/
  if(((RCC_OscInitStruct->OscillatorType) & RCC_OSCILLATORTYPE_HSI) == RCC_OSCILLATORTYPE_HSI)
 800312a:	687b      	ldr	r3, [r7, #4]
 800312c:	681b      	ldr	r3, [r3, #0]
 800312e:	f003 0302 	and.w	r3, r3, #2
 8003132:	2b00      	cmp	r3, #0
 8003134:	d063      	beq.n	80031fe <HAL_RCC_OscConfig+0x1de>
    /* Check the parameters */
    assert_param(IS_RCC_HSI(RCC_OscInitStruct->HSIState));
    assert_param(IS_RCC_CALIBRATION_VALUE(RCC_OscInitStruct->HSICalibrationValue));

    /* Check if HSI is used as system clock or as PLL source when PLL is selected as system clock */
    if((__HAL_RCC_GET_SYSCLK_SOURCE() == RCC_CFGR_SWS_HSI) ||\
 8003136:	4b4a      	ldr	r3, [pc, #296]	@ (8003260 <HAL_RCC_OscConfig+0x240>)
 8003138:	689b      	ldr	r3, [r3, #8]
 800313a:	f003 030c 	and.w	r3, r3, #12
 800313e:	2b00      	cmp	r3, #0
 8003140:	d00b      	beq.n	800315a <HAL_RCC_OscConfig+0x13a>
      ((__HAL_RCC_GET_SYSCLK_SOURCE() == RCC_CFGR_SWS_PLL) && ((RCC->PLLCFGR & RCC_PLLCFGR_PLLSRC) == RCC_PLLCFGR_PLLSRC_HSI)))
 8003142:	4b47      	ldr	r3, [pc, #284]	@ (8003260 <HAL_RCC_OscConfig+0x240>)
 8003144:	689b      	ldr	r3, [r3, #8]
 8003146:	f003 030c 	and.w	r3, r3, #12
    if((__HAL_RCC_GET_SYSCLK_SOURCE() == RCC_CFGR_SWS_HSI) ||\
 800314a:	2b08      	cmp	r3, #8
 800314c:	d11c      	bne.n	8003188 <HAL_RCC_OscConfig+0x168>
      ((__HAL_RCC_GET_SYSCLK_SOURCE() == RCC_CFGR_SWS_PLL) && ((RCC->PLLCFGR & RCC_PLLCFGR_PLLSRC) == RCC_PLLCFGR_PLLSRC_HSI)))
 800314e:	4b44      	ldr	r3, [pc, #272]	@ (8003260 <HAL_RCC_OscConfig+0x240>)
 8003150:	685b      	ldr	r3, [r3, #4]
 8003152:	f403 0380 	and.w	r3, r3, #4194304	@ 0x400000
 8003156:	2b00      	cmp	r3, #0
 8003158:	d116      	bne.n	8003188 <HAL_RCC_OscConfig+0x168>
    {
      /* When HSI is used as system clock it will not disabled */
      if((__HAL_RCC_GET_FLAG(RCC_FLAG_HSIRDY) != RESET) && (RCC_OscInitStruct->HSIState != RCC_HSI_ON))
 800315a:	4b41      	ldr	r3, [pc, #260]	@ (8003260 <HAL_RCC_OscConfig+0x240>)
 800315c:	681b      	ldr	r3, [r3, #0]
 800315e:	f003 0302 	and.w	r3, r3, #2
 8003162:	2b00      	cmp	r3, #0
 8003164:	d005      	beq.n	8003172 <HAL_RCC_OscConfig+0x152>
 8003166:	687b      	ldr	r3, [r7, #4]
 8003168:	68db      	ldr	r3, [r3, #12]
 800316a:	2b01      	cmp	r3, #1
 800316c:	d001      	beq.n	8003172 <HAL_RCC_OscConfig+0x152>
      {
        return HAL_ERROR;
 800316e:	2301      	movs	r3, #1
 8003170:	e1c7      	b.n	8003502 <HAL_RCC_OscConfig+0x4e2>
      }
      /* Otherwise, just the calibration is allowed */
      else
      {
        /* Adjusts the Internal High Speed oscillator (HSI) calibration value.*/
        __HAL_RCC_HSI_CALIBRATIONVALUE_ADJUST(RCC_OscInitStruct->HSICalibrationValue);
 8003172:	4b3b      	ldr	r3, [pc, #236]	@ (8003260 <HAL_RCC_OscConfig+0x240>)
 8003174:	681b      	ldr	r3, [r3, #0]
 8003176:	f023 02f8 	bic.w	r2, r3, #248	@ 0xf8
 800317a:	687b      	ldr	r3, [r7, #4]
 800317c:	691b      	ldr	r3, [r3, #16]
 800317e:	00db      	lsls	r3, r3, #3
 8003180:	4937      	ldr	r1, [pc, #220]	@ (8003260 <HAL_RCC_OscConfig+0x240>)
 8003182:	4313      	orrs	r3, r2
 8003184:	600b      	str	r3, [r1, #0]
      if((__HAL_RCC_GET_FLAG(RCC_FLAG_HSIRDY) != RESET) && (RCC_OscInitStruct->HSIState != RCC_HSI_ON))
 8003186:	e03a      	b.n	80031fe <HAL_RCC_OscConfig+0x1de>
      }
    }
    else
    {
      /* Check the HSI State */
      if((RCC_OscInitStruct->HSIState)!= RCC_HSI_OFF)
 8003188:	687b      	ldr	r3, [r7, #4]
 800318a:	68db      	ldr	r3, [r3, #12]
 800318c:	2b00      	cmp	r3, #0
 800318e:	d020      	beq.n	80031d2 <HAL_RCC_OscConfig+0x1b2>
      {
        /* Enable the Internal High Speed oscillator (HSI). */
        __HAL_RCC_HSI_ENABLE();
 8003190:	4b34      	ldr	r3, [pc, #208]	@ (8003264 <HAL_RCC_OscConfig+0x244>)
 8003192:	2201      	movs	r2, #1
 8003194:	601a      	str	r2, [r3, #0]

        /* Get Start Tick*/
        tickstart = HAL_GetTick();
 8003196:	f7fe ffef 	bl	8002178 <HAL_GetTick>
 800319a:	6138      	str	r0, [r7, #16]

        /* Wait till HSI is ready */
        while(__HAL_RCC_GET_FLAG(RCC_FLAG_HSIRDY) == RESET)
 800319c:	e008      	b.n	80031b0 <HAL_RCC_OscConfig+0x190>
        {
          if((HAL_GetTick() - tickstart ) > HSI_TIMEOUT_VALUE)
 800319e:	f7fe ffeb 	bl	8002178 <HAL_GetTick>
 80031a2:	4602      	mov	r2, r0
 80031a4:	693b      	ldr	r3, [r7, #16]
 80031a6:	1ad3      	subs	r3, r2, r3
 80031a8:	2b02      	cmp	r3, #2
 80031aa:	d901      	bls.n	80031b0 <HAL_RCC_OscConfig+0x190>
          {
            return HAL_TIMEOUT;
 80031ac:	2303      	movs	r3, #3
 80031ae:	e1a8      	b.n	8003502 <HAL_RCC_OscConfig+0x4e2>
        while(__HAL_RCC_GET_FLAG(RCC_FLAG_HSIRDY) == RESET)
 80031b0:	4b2b      	ldr	r3, [pc, #172]	@ (8003260 <HAL_RCC_OscConfig+0x240>)
 80031b2:	681b      	ldr	r3, [r3, #0]
 80031b4:	f003 0302 	and.w	r3, r3, #2
 80031b8:	2b00      	cmp	r3, #0
 80031ba:	d0f0      	beq.n	800319e <HAL_RCC_OscConfig+0x17e>
          }
        }

        /* Adjusts the Internal High Speed oscillator (HSI) calibration value. */
        __HAL_RCC_HSI_CALIBRATIONVALUE_ADJUST(RCC_OscInitStruct->HSICalibrationValue);
 80031bc:	4b28      	ldr	r3, [pc, #160]	@ (8003260 <HAL_RCC_OscConfig+0x240>)
 80031be:	681b      	ldr	r3, [r3, #0]
 80031c0:	f023 02f8 	bic.w	r2, r3, #248	@ 0xf8
 80031c4:	687b      	ldr	r3, [r7, #4]
 80031c6:	691b      	ldr	r3, [r3, #16]
 80031c8:	00db      	lsls	r3, r3, #3
 80031ca:	4925      	ldr	r1, [pc, #148]	@ (8003260 <HAL_RCC_OscConfig+0x240>)
 80031cc:	4313      	orrs	r3, r2
 80031ce:	600b      	str	r3, [r1, #0]
 80031d0:	e015      	b.n	80031fe <HAL_RCC_OscConfig+0x1de>
      }
      else
      {
        /* Disable the Internal High Speed oscillator (HSI). */
        __HAL_RCC_HSI_DISABLE();
 80031d2:	4b24      	ldr	r3, [pc, #144]	@ (8003264 <HAL_RCC_OscConfig+0x244>)
 80031d4:	2200      	movs	r2, #0
 80031d6:	601a      	str	r2, [r3, #0]

        /* Get Start Tick*/
        tickstart = HAL_GetTick();
 80031d8:	f7fe ffce 	bl	8002178 <HAL_GetTick>
 80031dc:	6138      	str	r0, [r7, #16]

        /* Wait till HSI is ready */
        while(__HAL_RCC_GET_FLAG(RCC_FLAG_HSIRDY) != RESET)
 80031de:	e008      	b.n	80031f2 <HAL_RCC_OscConfig+0x1d2>
        {
          if((HAL_GetTick() - tickstart ) > HSI_TIMEOUT_VALUE)
 80031e0:	f7fe ffca 	bl	8002178 <HAL_GetTick>
 80031e4:	4602      	mov	r2, r0
 80031e6:	693b      	ldr	r3, [r7, #16]
 80031e8:	1ad3      	subs	r3, r2, r3
 80031ea:	2b02      	cmp	r3, #2
 80031ec:	d901      	bls.n	80031f2 <HAL_RCC_OscConfig+0x1d2>
          {
            return HAL_TIMEOUT;
 80031ee:	2303      	movs	r3, #3
 80031f0:	e187      	b.n	8003502 <HAL_RCC_OscConfig+0x4e2>
        while(__HAL_RCC_GET_FLAG(RCC_FLAG_HSIRDY) != RESET)
 80031f2:	4b1b      	ldr	r3, [pc, #108]	@ (8003260 <HAL_RCC_OscConfig+0x240>)
 80031f4:	681b      	ldr	r3, [r3, #0]
 80031f6:	f003 0302 	and.w	r3, r3, #2
 80031fa:	2b00      	cmp	r3, #0
 80031fc:	d1f0      	bne.n	80031e0 <HAL_RCC_OscConfig+0x1c0>
        }
      }
    }
  }
  /*------------------------------ LSI Configuration -------------------------*/
  if(((RCC_OscInitStruct->OscillatorType) & RCC_OSCILLATORTYPE_LSI) == RCC_OSCILLATORTYPE_LSI)
 80031fe:	687b      	ldr	r3, [r7, #4]
 8003200:	681b      	ldr	r3, [r3, #0]
 8003202:	f003 0308 	and.w	r3, r3, #8
 8003206:	2b00      	cmp	r3, #0
 8003208:	d036      	beq.n	8003278 <HAL_RCC_OscConfig+0x258>
  {
    /* Check the parameters */
    assert_param(IS_RCC_LSI(RCC_OscInitStruct->LSIState));

    /* Check the LSI State */
    if((RCC_OscInitStruct->LSIState)!= RCC_LSI_OFF)
 800320a:	687b      	ldr	r3, [r7, #4]
 800320c:	695b      	ldr	r3, [r3, #20]
 800320e:	2b00      	cmp	r3, #0
 8003210:	d016      	beq.n	8003240 <HAL_RCC_OscConfig+0x220>
    {
      /* Enable the Internal Low Speed oscillator (LSI). */
      __HAL_RCC_LSI_ENABLE();
 8003212:	4b15      	ldr	r3, [pc, #84]	@ (8003268 <HAL_RCC_OscConfig+0x248>)
 8003214:	2201      	movs	r2, #1
 8003216:	601a      	str	r2, [r3, #0]

      /* Get Start Tick*/
      tickstart = HAL_GetTick();
 8003218:	f7fe ffae 	bl	8002178 <HAL_GetTick>
 800321c:	6138      	str	r0, [r7, #16]

      /* Wait till LSI is ready */
      while(__HAL_RCC_GET_FLAG(RCC_FLAG_LSIRDY) == RESET)
 800321e:	e008      	b.n	8003232 <HAL_RCC_OscConfig+0x212>
      {
        if((HAL_GetTick() - tickstart ) > LSI_TIMEOUT_VALUE)
 8003220:	f7fe ffaa 	bl	8002178 <HAL_GetTick>
 8003224:	4602      	mov	r2, r0
 8003226:	693b      	ldr	r3, [r7, #16]
 8003228:	1ad3      	subs	r3, r2, r3
 800322a:	2b02      	cmp	r3, #2
 800322c:	d901      	bls.n	8003232 <HAL_RCC_OscConfig+0x212>
        {
          return HAL_TIMEOUT;
 800322e:	2303      	movs	r3, #3
 8003230:	e167      	b.n	8003502 <HAL_RCC_OscConfig+0x4e2>
      while(__HAL_RCC_GET_FLAG(RCC_FLAG_LSIRDY) == RESET)
 8003232:	4b0b      	ldr	r3, [pc, #44]	@ (8003260 <HAL_RCC_OscConfig+0x240>)
 8003234:	6f5b      	ldr	r3, [r3, #116]	@ 0x74
 8003236:	f003 0302 	and.w	r3, r3, #2
 800323a:	2b00      	cmp	r3, #0
 800323c:	d0f0      	beq.n	8003220 <HAL_RCC_OscConfig+0x200>
 800323e:	e01b      	b.n	8003278 <HAL_RCC_OscConfig+0x258>
      }
    }
    else
    {
      /* Disable the Internal Low Speed oscillator (LSI). */
      __HAL_RCC_LSI_DISABLE();
 8003240:	4b09      	ldr	r3, [pc, #36]	@ (8003268 <HAL_RCC_OscConfig+0x248>)
 8003242:	2200      	movs	r2, #0
 8003244:	601a      	str	r2, [r3, #0]

      /* Get Start Tick */
      tickstart = HAL_GetTick();
 8003246:	f7fe ff97 	bl	8002178 <HAL_GetTick>
 800324a:	6138      	str	r0, [r7, #16]

      /* Wait till LSI is ready */
      while(__HAL_RCC_GET_FLAG(RCC_FLAG_LSIRDY) != RESET)
 800324c:	e00e      	b.n	800326c <HAL_RCC_OscConfig+0x24c>
      {
        if((HAL_GetTick() - tickstart ) > LSI_TIMEOUT_VALUE)
 800324e:	f7fe ff93 	bl	8002178 <HAL_GetTick>
 8003252:	4602      	mov	r2, r0
 8003254:	693b      	ldr	r3, [r7, #16]
 8003256:	1ad3      	subs	r3, r2, r3
 8003258:	2b02      	cmp	r3, #2
 800325a:	d907      	bls.n	800326c <HAL_RCC_OscConfig+0x24c>
        {
          return HAL_TIMEOUT;
 800325c:	2303      	movs	r3, #3
 800325e:	e150      	b.n	8003502 <HAL_RCC_OscConfig+0x4e2>
 8003260:	40023800 	.word	0x40023800
 8003264:	42470000 	.word	0x42470000
 8003268:	42470e80 	.word	0x42470e80
      while(__HAL_RCC_GET_FLAG(RCC_FLAG_LSIRDY) != RESET)
 800326c:	4b88      	ldr	r3, [pc, #544]	@ (8003490 <HAL_RCC_OscConfig+0x470>)
 800326e:	6f5b      	ldr	r3, [r3, #116]	@ 0x74
 8003270:	f003 0302 	and.w	r3, r3, #2
 8003274:	2b00      	cmp	r3, #0
 8003276:	d1ea      	bne.n	800324e <HAL_RCC_OscConfig+0x22e>
        }
      }
    }
  }
  /*------------------------------ LSE Configuration -------------------------*/
  if(((RCC_OscInitStruct->OscillatorType) & RCC_OSCILLATORTYPE_LSE) == RCC_OSCILLATORTYPE_LSE)
 8003278:	687b      	ldr	r3, [r7, #4]
 800327a:	681b      	ldr	r3, [r3, #0]
 800327c:	f003 0304 	and.w	r3, r3, #4
 8003280:	2b00      	cmp	r3, #0
 8003282:	f000 8097 	beq.w	80033b4 <HAL_RCC_OscConfig+0x394>
  {
    FlagStatus       pwrclkchanged = RESET;
 8003286:	2300      	movs	r3, #0
 8003288:	75fb      	strb	r3, [r7, #23]
    /* Check the parameters */
    assert_param(IS_RCC_LSE(RCC_OscInitStruct->LSEState));

    /* Update LSE configuration in Backup Domain control register    */
    /* Requires to enable write access to Backup Domain of necessary */
    if(__HAL_RCC_PWR_IS_CLK_DISABLED())
 800328a:	4b81      	ldr	r3, [pc, #516]	@ (8003490 <HAL_RCC_OscConfig+0x470>)
 800328c:	6c1b      	ldr	r3, [r3, #64]	@ 0x40
 800328e:	f003 5380 	and.w	r3, r3, #268435456	@ 0x10000000
 8003292:	2b00      	cmp	r3, #0
 8003294:	d10f      	bne.n	80032b6 <HAL_RCC_OscConfig+0x296>
    {
      __HAL_RCC_PWR_CLK_ENABLE();
 8003296:	2300      	movs	r3, #0
 8003298:	60bb      	str	r3, [r7, #8]
 800329a:	4b7d      	ldr	r3, [pc, #500]	@ (8003490 <HAL_RCC_OscConfig+0x470>)
 800329c:	6c1b      	ldr	r3, [r3, #64]	@ 0x40
 800329e:	4a7c      	ldr	r2, [pc, #496]	@ (8003490 <HAL_RCC_OscConfig+0x470>)
 80032a0:	f043 5380 	orr.w	r3, r3, #268435456	@ 0x10000000
 80032a4:	6413      	str	r3, [r2, #64]	@ 0x40
 80032a6:	4b7a      	ldr	r3, [pc, #488]	@ (8003490 <HAL_RCC_OscConfig+0x470>)
 80032a8:	6c1b      	ldr	r3, [r3, #64]	@ 0x40
 80032aa:	f003 5380 	and.w	r3, r3, #268435456	@ 0x10000000
 80032ae:	60bb      	str	r3, [r7, #8]
 80032b0:	68bb      	ldr	r3, [r7, #8]
      pwrclkchanged = SET;
 80032b2:	2301      	movs	r3, #1
 80032b4:	75fb      	strb	r3, [r7, #23]
    }

    if(HAL_IS_BIT_CLR(PWR->CR, PWR_CR_DBP))
 80032b6:	4b77      	ldr	r3, [pc, #476]	@ (8003494 <HAL_RCC_OscConfig+0x474>)
 80032b8:	681b      	ldr	r3, [r3, #0]
 80032ba:	f403 7380 	and.w	r3, r3, #256	@ 0x100
 80032be:	2b00      	cmp	r3, #0
 80032c0:	d118      	bne.n	80032f4 <HAL_RCC_OscConfig+0x2d4>
    {
      /* Enable write access to Backup domain */
      SET_BIT(PWR->CR, PWR_CR_DBP);
 80032c2:	4b74      	ldr	r3, [pc, #464]	@ (8003494 <HAL_RCC_OscConfig+0x474>)
 80032c4:	681b      	ldr	r3, [r3, #0]
 80032c6:	4a73      	ldr	r2, [pc, #460]	@ (8003494 <HAL_RCC_OscConfig+0x474>)
 80032c8:	f443 7380 	orr.w	r3, r3, #256	@ 0x100
 80032cc:	6013      	str	r3, [r2, #0]

      /* Wait for Backup domain Write protection disable */
      tickstart = HAL_GetTick();
 80032ce:	f7fe ff53 	bl	8002178 <HAL_GetTick>
 80032d2:	6138      	str	r0, [r7, #16]

      while(HAL_IS_BIT_CLR(PWR->CR, PWR_CR_DBP))
 80032d4:	e008      	b.n	80032e8 <HAL_RCC_OscConfig+0x2c8>
      {
        if((HAL_GetTick() - tickstart) > RCC_DBP_TIMEOUT_VALUE)
 80032d6:	f7fe ff4f 	bl	8002178 <HAL_GetTick>
 80032da:	4602      	mov	r2, r0
 80032dc:	693b      	ldr	r3, [r7, #16]
 80032de:	1ad3      	subs	r3, r2, r3
 80032e0:	2b02      	cmp	r3, #2
 80032e2:	d901      	bls.n	80032e8 <HAL_RCC_OscConfig+0x2c8>
        {
          return HAL_TIMEOUT;
 80032e4:	2303      	movs	r3, #3
 80032e6:	e10c      	b.n	8003502 <HAL_RCC_OscConfig+0x4e2>
      while(HAL_IS_BIT_CLR(PWR->CR, PWR_CR_DBP))
 80032e8:	4b6a      	ldr	r3, [pc, #424]	@ (8003494 <HAL_RCC_OscConfig+0x474>)
 80032ea:	681b      	ldr	r3, [r3, #0]
 80032ec:	f403 7380 	and.w	r3, r3, #256	@ 0x100
 80032f0:	2b00      	cmp	r3, #0
 80032f2:	d0f0      	beq.n	80032d6 <HAL_RCC_OscConfig+0x2b6>
        }
      }
    }

    /* Set the new LSE configuration -----------------------------------------*/
    __HAL_RCC_LSE_CONFIG(RCC_OscInitStruct->LSEState);
 80032f4:	687b      	ldr	r3, [r7, #4]
 80032f6:	689b      	ldr	r3, [r3, #8]
 80032f8:	2b01      	cmp	r3, #1
 80032fa:	d106      	bne.n	800330a <HAL_RCC_OscConfig+0x2ea>
 80032fc:	4b64      	ldr	r3, [pc, #400]	@ (8003490 <HAL_RCC_OscConfig+0x470>)
 80032fe:	6f1b      	ldr	r3, [r3, #112]	@ 0x70
 8003300:	4a63      	ldr	r2, [pc, #396]	@ (8003490 <HAL_RCC_OscConfig+0x470>)
 8003302:	f043 0301 	orr.w	r3, r3, #1
 8003306:	6713      	str	r3, [r2, #112]	@ 0x70
 8003308:	e01c      	b.n	8003344 <HAL_RCC_OscConfig+0x324>
 800330a:	687b      	ldr	r3, [r7, #4]
 800330c:	689b      	ldr	r3, [r3, #8]
 800330e:	2b05      	cmp	r3, #5
 8003310:	d10c      	bne.n	800332c <HAL_RCC_OscConfig+0x30c>
 8003312:	4b5f      	ldr	r3, [pc, #380]	@ (8003490 <HAL_RCC_OscConfig+0x470>)
 8003314:	6f1b      	ldr	r3, [r3, #112]	@ 0x70
 8003316:	4a5e      	ldr	r2, [pc, #376]	@ (8003490 <HAL_RCC_OscConfig+0x470>)
 8003318:	f043 0304 	orr.w	r3, r3, #4
 800331c:	6713      	str	r3, [r2, #112]	@ 0x70
 800331e:	4b5c      	ldr	r3, [pc, #368]	@ (8003490 <HAL_RCC_OscConfig+0x470>)
 8003320:	6f1b      	ldr	r3, [r3, #112]	@ 0x70
 8003322:	4a5b      	ldr	r2, [pc, #364]	@ (8003490 <HAL_RCC_OscConfig+0x470>)
 8003324:	f043 0301 	orr.w	r3, r3, #1
 8003328:	6713      	str	r3, [r2, #112]	@ 0x70
 800332a:	e00b      	b.n	8003344 <HAL_RCC_OscConfig+0x324>
 800332c:	4b58      	ldr	r3, [pc, #352]	@ (8003490 <HAL_RCC_OscConfig+0x470>)
 800332e:	6f1b      	ldr	r3, [r3, #112]	@ 0x70
 8003330:	4a57      	ldr	r2, [pc, #348]	@ (8003490 <HAL_RCC_OscConfig+0x470>)
 8003332:	f023 0301 	bic.w	r3, r3, #1
 8003336:	6713      	str	r3, [r2, #112]	@ 0x70
 8003338:	4b55      	ldr	r3, [pc, #340]	@ (8003490 <HAL_RCC_OscConfig+0x470>)
 800333a:	6f1b      	ldr	r3, [r3, #112]	@ 0x70
 800333c:	4a54      	ldr	r2, [pc, #336]	@ (8003490 <HAL_RCC_OscConfig+0x470>)
 800333e:	f023 0304 	bic.w	r3, r3, #4
 8003342:	6713      	str	r3, [r2, #112]	@ 0x70
    /* Check the LSE State */
    if((RCC_OscInitStruct->LSEState) != RCC_LSE_OFF)
 8003344:	687b      	ldr	r3, [r7, #4]
 8003346:	689b      	ldr	r3, [r3, #8]
 8003348:	2b00      	cmp	r3, #0
 800334a:	d015      	beq.n	8003378 <HAL_RCC_OscConfig+0x358>
    {
      /* Get Start Tick*/
      tickstart = HAL_GetTick();
 800334c:	f7fe ff14 	bl	8002178 <HAL_GetTick>
 8003350:	6138      	str	r0, [r7, #16]

      /* Wait till LSE is ready */
      while(__HAL_RCC_GET_FLAG(RCC_FLAG_LSERDY) == RESET)
 8003352:	e00a      	b.n	800336a <HAL_RCC_OscConfig+0x34a>
      {
        if((HAL_GetTick() - tickstart ) > RCC_LSE_TIMEOUT_VALUE)
 8003354:	f7fe ff10 	bl	8002178 <HAL_GetTick>
 8003358:	4602      	mov	r2, r0
 800335a:	693b      	ldr	r3, [r7, #16]
 800335c:	1ad3      	subs	r3, r2, r3
 800335e:	f241 3288 	movw	r2, #5000	@ 0x1388
 8003362:	4293      	cmp	r3, r2
 8003364:	d901      	bls.n	800336a <HAL_RCC_OscConfig+0x34a>
        {
          return HAL_TIMEOUT;
 8003366:	2303      	movs	r3, #3
 8003368:	e0cb      	b.n	8003502 <HAL_RCC_OscConfig+0x4e2>
      while(__HAL_RCC_GET_FLAG(RCC_FLAG_LSERDY) == RESET)
 800336a:	4b49      	ldr	r3, [pc, #292]	@ (8003490 <HAL_RCC_OscConfig+0x470>)
 800336c:	6f1b      	ldr	r3, [r3, #112]	@ 0x70
 800336e:	f003 0302 	and.w	r3, r3, #2
 8003372:	2b00      	cmp	r3, #0
 8003374:	d0ee      	beq.n	8003354 <HAL_RCC_OscConfig+0x334>
 8003376:	e014      	b.n	80033a2 <HAL_RCC_OscConfig+0x382>
      }
    }
    else
    {
      /* Get Start Tick */
      tickstart = HAL_GetTick();
 8003378:	f7fe fefe 	bl	8002178 <HAL_GetTick>
 800337c:	6138      	str	r0, [r7, #16]

      /* Wait till LSE is ready */
      while(__HAL_RCC_GET_FLAG(RCC_FLAG_LSERDY) != RESET)
 800337e:	e00a      	b.n	8003396 <HAL_RCC_OscConfig+0x376>
      {
        if((HAL_GetTick() - tickstart ) > RCC_LSE_TIMEOUT_VALUE)
 8003380:	f7fe fefa 	bl	8002178 <HAL_GetTick>
 8003384:	4602      	mov	r2, r0
 8003386:	693b      	ldr	r3, [r7, #16]
 8003388:	1ad3      	subs	r3, r2, r3
 800338a:	f241 3288 	movw	r2, #5000	@ 0x1388
 800338e:	4293      	cmp	r3, r2
 8003390:	d901      	bls.n	8003396 <HAL_RCC_OscConfig+0x376>
        {
          return HAL_TIMEOUT;
 8003392:	2303      	movs	r3, #3
 8003394:	e0b5      	b.n	8003502 <HAL_RCC_OscConfig+0x4e2>
      while(__HAL_RCC_GET_FLAG(RCC_FLAG_LSERDY) != RESET)
 8003396:	4b3e      	ldr	r3, [pc, #248]	@ (8003490 <HAL_RCC_OscConfig+0x470>)
 8003398:	6f1b      	ldr	r3, [r3, #112]	@ 0x70
 800339a:	f003 0302 	and.w	r3, r3, #2
 800339e:	2b00      	cmp	r3, #0
 80033a0:	d1ee      	bne.n	8003380 <HAL_RCC_OscConfig+0x360>
        }
      }
    }

    /* Restore clock configuration if changed */
    if(pwrclkchanged == SET)
 80033a2:	7dfb      	ldrb	r3, [r7, #23]
 80033a4:	2b01      	cmp	r3, #1
 80033a6:	d105      	bne.n	80033b4 <HAL_RCC_OscConfig+0x394>
    {
      __HAL_RCC_PWR_CLK_DISABLE();
 80033a8:	4b39      	ldr	r3, [pc, #228]	@ (8003490 <HAL_RCC_OscConfig+0x470>)
 80033aa:	6c1b      	ldr	r3, [r3, #64]	@ 0x40
 80033ac:	4a38      	ldr	r2, [pc, #224]	@ (8003490 <HAL_RCC_OscConfig+0x470>)
 80033ae:	f023 5380 	bic.w	r3, r3, #268435456	@ 0x10000000
 80033b2:	6413      	str	r3, [r2, #64]	@ 0x40
    }
  }
  /*-------------------------------- PLL Configuration -----------------------*/
  /* Check the parameters */
  assert_param(IS_RCC_PLL(RCC_OscInitStruct->PLL.PLLState));
  if ((RCC_OscInitStruct->PLL.PLLState) != RCC_PLL_NONE)
 80033b4:	687b      	ldr	r3, [r7, #4]
 80033b6:	699b      	ldr	r3, [r3, #24]
 80033b8:	2b00      	cmp	r3, #0
 80033ba:	f000 80a1 	beq.w	8003500 <HAL_RCC_OscConfig+0x4e0>
  {
    /* Check if the PLL is used as system clock or not */
    if(__HAL_RCC_GET_SYSCLK_SOURCE() != RCC_CFGR_SWS_PLL)
 80033be:	4b34      	ldr	r3, [pc, #208]	@ (8003490 <HAL_RCC_OscConfig+0x470>)
 80033c0:	689b      	ldr	r3, [r3, #8]
 80033c2:	f003 030c 	and.w	r3, r3, #12
 80033c6:	2b08      	cmp	r3, #8
 80033c8:	d05c      	beq.n	8003484 <HAL_RCC_OscConfig+0x464>
    {
      if((RCC_OscInitStruct->PLL.PLLState) == RCC_PLL_ON)
 80033ca:	687b      	ldr	r3, [r7, #4]
 80033cc:	699b      	ldr	r3, [r3, #24]
 80033ce:	2b02      	cmp	r3, #2
 80033d0:	d141      	bne.n	8003456 <HAL_RCC_OscConfig+0x436>
        assert_param(IS_RCC_PLLN_VALUE(RCC_OscInitStruct->PLL.PLLN));
        assert_param(IS_RCC_PLLP_VALUE(RCC_OscInitStruct->PLL.PLLP));
        assert_param(IS_RCC_PLLQ_VALUE(RCC_OscInitStruct->PLL.PLLQ));

        /* Disable the main PLL. */
        __HAL_RCC_PLL_DISABLE();
 80033d2:	4b31      	ldr	r3, [pc, #196]	@ (8003498 <HAL_RCC_OscConfig+0x478>)
 80033d4:	2200      	movs	r2, #0
 80033d6:	601a      	str	r2, [r3, #0]

        /* Get Start Tick */
        tickstart = HAL_GetTick();
 80033d8:	f7fe fece 	bl	8002178 <HAL_GetTick>
 80033dc:	6138      	str	r0, [r7, #16]

        /* Wait till PLL is disabled */
        while(__HAL_RCC_GET_FLAG(RCC_FLAG_PLLRDY) != RESET)
 80033de:	e008      	b.n	80033f2 <HAL_RCC_OscConfig+0x3d2>
        {
          if((HAL_GetTick() - tickstart ) > PLL_TIMEOUT_VALUE)
 80033e0:	f7fe feca 	bl	8002178 <HAL_GetTick>
 80033e4:	4602      	mov	r2, r0
 80033e6:	693b      	ldr	r3, [r7, #16]
 80033e8:	1ad3      	subs	r3, r2, r3
 80033ea:	2b02      	cmp	r3, #2
 80033ec:	d901      	bls.n	80033f2 <HAL_RCC_OscConfig+0x3d2>
          {
            return HAL_TIMEOUT;
 80033ee:	2303      	movs	r3, #3
 80033f0:	e087      	b.n	8003502 <HAL_RCC_OscConfig+0x4e2>
        while(__HAL_RCC_GET_FLAG(RCC_FLAG_PLLRDY) != RESET)
 80033f2:	4b27      	ldr	r3, [pc, #156]	@ (8003490 <HAL_RCC_OscConfig+0x470>)
 80033f4:	681b      	ldr	r3, [r3, #0]
 80033f6:	f003 7300 	and.w	r3, r3, #33554432	@ 0x2000000
 80033fa:	2b00      	cmp	r3, #0
 80033fc:	d1f0      	bne.n	80033e0 <HAL_RCC_OscConfig+0x3c0>
          }
        }

        /* Configure the main PLL clock source, multiplication and division factors. */
        WRITE_REG(RCC->PLLCFGR, (RCC_OscInitStruct->PLL.PLLSource                                            | \
 80033fe:	687b      	ldr	r3, [r7, #4]
 8003400:	69da      	ldr	r2, [r3, #28]
 8003402:	687b      	ldr	r3, [r7, #4]
 8003404:	6a1b      	ldr	r3, [r3, #32]
 8003406:	431a      	orrs	r2, r3
 8003408:	687b      	ldr	r3, [r7, #4]
 800340a:	6a5b      	ldr	r3, [r3, #36]	@ 0x24
 800340c:	019b      	lsls	r3, r3, #6
 800340e:	431a      	orrs	r2, r3
 8003410:	687b      	ldr	r3, [r7, #4]
 8003412:	6a9b      	ldr	r3, [r3, #40]	@ 0x28
 8003414:	085b      	lsrs	r3, r3, #1
 8003416:	3b01      	subs	r3, #1
 8003418:	041b      	lsls	r3, r3, #16
 800341a:	431a      	orrs	r2, r3
 800341c:	687b      	ldr	r3, [r7, #4]
 800341e:	6adb      	ldr	r3, [r3, #44]	@ 0x2c
 8003420:	061b      	lsls	r3, r3, #24
 8003422:	491b      	ldr	r1, [pc, #108]	@ (8003490 <HAL_RCC_OscConfig+0x470>)
 8003424:	4313      	orrs	r3, r2
 8003426:	604b      	str	r3, [r1, #4]
                                 RCC_OscInitStruct->PLL.PLLM                                                 | \
                                 (RCC_OscInitStruct->PLL.PLLN << RCC_PLLCFGR_PLLN_Pos)             | \
                                 (((RCC_OscInitStruct->PLL.PLLP >> 1U) - 1U) << RCC_PLLCFGR_PLLP_Pos) | \
                                 (RCC_OscInitStruct->PLL.PLLQ << RCC_PLLCFGR_PLLQ_Pos)));
        /* Enable the main PLL. */
        __HAL_RCC_PLL_ENABLE();
 8003428:	4b1b      	ldr	r3, [pc, #108]	@ (8003498 <HAL_RCC_OscConfig+0x478>)
 800342a:	2201      	movs	r2, #1
 800342c:	601a      	str	r2, [r3, #0]

        /* Get Start Tick */
        tickstart = HAL_GetTick();
 800342e:	f7fe fea3 	bl	8002178 <HAL_GetTick>
 8003432:	6138      	str	r0, [r7, #16]

        /* Wait till PLL is ready */
        while(__HAL_RCC_GET_FLAG(RCC_FLAG_PLLRDY) == RESET)
 8003434:	e008      	b.n	8003448 <HAL_RCC_OscConfig+0x428>
        {
          if((HAL_GetTick() - tickstart ) > PLL_TIMEOUT_VALUE)
 8003436:	f7fe fe9f 	bl	8002178 <HAL_GetTick>
 800343a:	4602      	mov	r2, r0
 800343c:	693b      	ldr	r3, [r7, #16]
 800343e:	1ad3      	subs	r3, r2, r3
 8003440:	2b02      	cmp	r3, #2
 8003442:	d901      	bls.n	8003448 <HAL_RCC_OscConfig+0x428>
          {
            return HAL_TIMEOUT;
 8003444:	2303      	movs	r3, #3
 8003446:	e05c      	b.n	8003502 <HAL_RCC_OscConfig+0x4e2>
        while(__HAL_RCC_GET_FLAG(RCC_FLAG_PLLRDY) == RESET)
 8003448:	4b11      	ldr	r3, [pc, #68]	@ (8003490 <HAL_RCC_OscConfig+0x470>)
 800344a:	681b      	ldr	r3, [r3, #0]
 800344c:	f003 7300 	and.w	r3, r3, #33554432	@ 0x2000000
 8003450:	2b00      	cmp	r3, #0
 8003452:	d0f0      	beq.n	8003436 <HAL_RCC_OscConfig+0x416>
 8003454:	e054      	b.n	8003500 <HAL_RCC_OscConfig+0x4e0>
        }
      }
      else
      {
        /* Disable the main PLL. */
        __HAL_RCC_PLL_DISABLE();
 8003456:	4b10      	ldr	r3, [pc, #64]	@ (8003498 <HAL_RCC_OscConfig+0x478>)
 8003458:	2200      	movs	r2, #0
 800345a:	601a      	str	r2, [r3, #0]

        /* Get Start Tick */
        tickstart = HAL_GetTick();
 800345c:	f7fe fe8c 	bl	8002178 <HAL_GetTick>
 8003460:	6138      	str	r0, [r7, #16]

        /* Wait till PLL is disabled */
        while(__HAL_RCC_GET_FLAG(RCC_FLAG_PLLRDY) != RESET)
 8003462:	e008      	b.n	8003476 <HAL_RCC_OscConfig+0x456>
        {
          if((HAL_GetTick() - tickstart ) > PLL_TIMEOUT_VALUE)
 8003464:	f7fe fe88 	bl	8002178 <HAL_GetTick>
 8003468:	4602      	mov	r2, r0
 800346a:	693b      	ldr	r3, [r7, #16]
 800346c:	1ad3      	subs	r3, r2, r3
 800346e:	2b02      	cmp	r3, #2
 8003470:	d901      	bls.n	8003476 <HAL_RCC_OscConfig+0x456>
          {
            return HAL_TIMEOUT;
 8003472:	2303      	movs	r3, #3
 8003474:	e045      	b.n	8003502 <HAL_RCC_OscConfig+0x4e2>
        while(__HAL_RCC_GET_FLAG(RCC_FLAG_PLLRDY) != RESET)
 8003476:	4b06      	ldr	r3, [pc, #24]	@ (8003490 <HAL_RCC_OscConfig+0x470>)
 8003478:	681b      	ldr	r3, [r3, #0]
 800347a:	f003 7300 	and.w	r3, r3, #33554432	@ 0x2000000
 800347e:	2b00      	cmp	r3, #0
 8003480:	d1f0      	bne.n	8003464 <HAL_RCC_OscConfig+0x444>
 8003482:	e03d      	b.n	8003500 <HAL_RCC_OscConfig+0x4e0>
      }
    }
    else
    {
      /* Check if there is a request to disable the PLL used as System clock source */
      if((RCC_OscInitStruct->PLL.PLLState) == RCC_PLL_OFF)
 8003484:	687b      	ldr	r3, [r7, #4]
 8003486:	699b      	ldr	r3, [r3, #24]
 8003488:	2b01      	cmp	r3, #1
 800348a:	d107      	bne.n	800349c <HAL_RCC_OscConfig+0x47c>
      {
        return HAL_ERROR;
 800348c:	2301      	movs	r3, #1
 800348e:	e038      	b.n	8003502 <HAL_RCC_OscConfig+0x4e2>
 8003490:	40023800 	.word	0x40023800
 8003494:	40007000 	.word	0x40007000
 8003498:	42470060 	.word	0x42470060
      }
      else
      {
        /* Do not return HAL_ERROR if request repeats the current configuration */
        pll_config = RCC->PLLCFGR;
 800349c:	4b1b      	ldr	r3, [pc, #108]	@ (800350c <HAL_RCC_OscConfig+0x4ec>)
 800349e:	685b      	ldr	r3, [r3, #4]
 80034a0:	60fb      	str	r3, [r7, #12]
            (READ_BIT(pll_config, RCC_PLLCFGR_PLLN) != (RCC_OscInitStruct->PLL.PLLN) << RCC_PLLCFGR_PLLN_Pos) ||
            (READ_BIT(pll_config, RCC_PLLCFGR_PLLP) != (((RCC_OscInitStruct->PLL.PLLP >> 1U) - 1U)) << RCC_PLLCFGR_PLLP_Pos) ||
            (READ_BIT(pll_config, RCC_PLLCFGR_PLLQ) != (RCC_OscInitStruct->PLL.PLLQ << RCC_PLLCFGR_PLLQ_Pos)) ||
            (READ_BIT(pll_config, RCC_PLLCFGR_PLLR) != (RCC_OscInitStruct->PLL.PLLR << RCC_PLLCFGR_PLLR_Pos)))
#else
        if (((RCC_OscInitStruct->PLL.PLLState) == RCC_PLL_OFF) ||
 80034a2:	687b      	ldr	r3, [r7, #4]
 80034a4:	699b      	ldr	r3, [r3, #24]
 80034a6:	2b01      	cmp	r3, #1
 80034a8:	d028      	beq.n	80034fc <HAL_RCC_OscConfig+0x4dc>
            (READ_BIT(pll_config, RCC_PLLCFGR_PLLSRC) != RCC_OscInitStruct->PLL.PLLSource) ||
 80034aa:	68fb      	ldr	r3, [r7, #12]
 80034ac:	f403 0280 	and.w	r2, r3, #4194304	@ 0x400000
 80034b0:	687b      	ldr	r3, [r7, #4]
 80034b2:	69db      	ldr	r3, [r3, #28]
        if (((RCC_OscInitStruct->PLL.PLLState) == RCC_PLL_OFF) ||
 80034b4:	429a      	cmp	r2, r3
 80034b6:	d121      	bne.n	80034fc <HAL_RCC_OscConfig+0x4dc>
            (READ_BIT(pll_config, RCC_PLLCFGR_PLLM) != (RCC_OscInitStruct->PLL.PLLM) << RCC_PLLCFGR_PLLM_Pos) ||
 80034b8:	68fb      	ldr	r3, [r7, #12]
 80034ba:	f003 023f 	and.w	r2, r3, #63	@ 0x3f
 80034be:	687b      	ldr	r3, [r7, #4]
 80034c0:	6a1b      	ldr	r3, [r3, #32]
            (READ_BIT(pll_config, RCC_PLLCFGR_PLLSRC) != RCC_OscInitStruct->PLL.PLLSource) ||
 80034c2:	429a      	cmp	r2, r3
 80034c4:	d11a      	bne.n	80034fc <HAL_RCC_OscConfig+0x4dc>
            (READ_BIT(pll_config, RCC_PLLCFGR_PLLN) != (RCC_OscInitStruct->PLL.PLLN) << RCC_PLLCFGR_PLLN_Pos) ||
 80034c6:	68fa      	ldr	r2, [r7, #12]
 80034c8:	f647 73c0 	movw	r3, #32704	@ 0x7fc0
 80034cc:	4013      	ands	r3, r2
 80034ce:	687a      	ldr	r2, [r7, #4]
 80034d0:	6a52      	ldr	r2, [r2, #36]	@ 0x24
 80034d2:	0192      	lsls	r2, r2, #6
            (READ_BIT(pll_config, RCC_PLLCFGR_PLLM) != (RCC_OscInitStruct->PLL.PLLM) << RCC_PLLCFGR_PLLM_Pos) ||
 80034d4:	4293      	cmp	r3, r2
 80034d6:	d111      	bne.n	80034fc <HAL_RCC_OscConfig+0x4dc>
            (READ_BIT(pll_config, RCC_PLLCFGR_PLLP) != (((RCC_OscInitStruct->PLL.PLLP >> 1U) - 1U)) << RCC_PLLCFGR_PLLP_Pos) ||
 80034d8:	68fb      	ldr	r3, [r7, #12]
 80034da:	f403 3240 	and.w	r2, r3, #196608	@ 0x30000
 80034de:	687b      	ldr	r3, [r7, #4]
 80034e0:	6a9b      	ldr	r3, [r3, #40]	@ 0x28
 80034e2:	085b      	lsrs	r3, r3, #1
 80034e4:	3b01      	subs	r3, #1
 80034e6:	041b      	lsls	r3, r3, #16
            (READ_BIT(pll_config, RCC_PLLCFGR_PLLN) != (RCC_OscInitStruct->PLL.PLLN) << RCC_PLLCFGR_PLLN_Pos) ||
 80034e8:	429a      	cmp	r2, r3
 80034ea:	d107      	bne.n	80034fc <HAL_RCC_OscConfig+0x4dc>
            (READ_BIT(pll_config, RCC_PLLCFGR_PLLQ) != (RCC_OscInitStruct->PLL.PLLQ << RCC_PLLCFGR_PLLQ_Pos)))
 80034ec:	68fb      	ldr	r3, [r7, #12]
 80034ee:	f003 6270 	and.w	r2, r3, #251658240	@ 0xf000000
 80034f2:	687b      	ldr	r3, [r7, #4]
 80034f4:	6adb      	ldr	r3, [r3, #44]	@ 0x2c
 80034f6:	061b      	lsls	r3, r3, #24
            (READ_BIT(pll_config, RCC_PLLCFGR_PLLP) != (((RCC_OscInitStruct->PLL.PLLP >> 1U) - 1U)) << RCC_PLLCFGR_PLLP_Pos) ||
 80034f8:	429a      	cmp	r2, r3
 80034fa:	d001      	beq.n	8003500 <HAL_RCC_OscConfig+0x4e0>
#endif
        {
          return HAL_ERROR;
 80034fc:	2301      	movs	r3, #1
 80034fe:	e000      	b.n	8003502 <HAL_RCC_OscConfig+0x4e2>
        }
      }
    }
  }
  return HAL_OK;
 8003500:	2300      	movs	r3, #0
}
 8003502:	4618      	mov	r0, r3
 8003504:	3718      	adds	r7, #24
 8003506:	46bd      	mov	sp, r7
 8003508:	bd80      	pop	{r7, pc}
 800350a:	bf00      	nop
 800350c:	40023800 	.word	0x40023800

08003510 <HAL_RCC_ClockConfig>:
  *         HPRE[3:0] bits to ensure that HCLK not exceed the maximum allowed frequency
  *         (for more details refer to section above "Initialization/de-initialization functions")
  * @retval None
  */
HAL_StatusTypeDef HAL_RCC_ClockConfig(RCC_ClkInitTypeDef  *RCC_ClkInitStruct, uint32_t FLatency)
{
 8003510:	b580      	push	{r7, lr}
 8003512:	b084      	sub	sp, #16
 8003514:	af00      	add	r7, sp, #0
 8003516:	6078      	str	r0, [r7, #4]
 8003518:	6039      	str	r1, [r7, #0]
  uint32_t tickstart;

  /* Check Null pointer */
  if(RCC_ClkInitStruct == NULL)
 800351a:	687b      	ldr	r3, [r7, #4]
 800351c:	2b00      	cmp	r3, #0
 800351e:	d101      	bne.n	8003524 <HAL_RCC_ClockConfig+0x14>
  {
    return HAL_ERROR;
 8003520:	2301      	movs	r3, #1
 8003522:	e0cc      	b.n	80036be <HAL_RCC_ClockConfig+0x1ae>
  /* To correctly read data from FLASH memory, the number of wait states (LATENCY)
    must be correctly programmed according to the frequency of the CPU clock
    (HCLK) and the supply voltage of the device. */

  /* Increasing the number of wait states because of higher CPU frequency */
  if(FLatency > __HAL_FLASH_GET_LATENCY())
 8003524:	4b68      	ldr	r3, [pc, #416]	@ (80036c8 <HAL_RCC_ClockConfig+0x1b8>)
 8003526:	681b      	ldr	r3, [r3, #0]
 8003528:	f003 0307 	and.w	r3, r3, #7
 800352c:	683a      	ldr	r2, [r7, #0]
 800352e:	429a      	cmp	r2, r3
 8003530:	d90c      	bls.n	800354c <HAL_RCC_ClockConfig+0x3c>
  {
    /* Program the new number of wait states to the LATENCY bits in the FLASH_ACR register */
    __HAL_FLASH_SET_LATENCY(FLatency);
 8003532:	4b65      	ldr	r3, [pc, #404]	@ (80036c8 <HAL_RCC_ClockConfig+0x1b8>)
 8003534:	683a      	ldr	r2, [r7, #0]
 8003536:	b2d2      	uxtb	r2, r2
 8003538:	701a      	strb	r2, [r3, #0]

    /* Check that the new number of wait states is taken into account to access the Flash
    memory by reading the FLASH_ACR register */
    if(__HAL_FLASH_GET_LATENCY() != FLatency)
 800353a:	4b63      	ldr	r3, [pc, #396]	@ (80036c8 <HAL_RCC_ClockConfig+0x1b8>)
 800353c:	681b      	ldr	r3, [r3, #0]
 800353e:	f003 0307 	and.w	r3, r3, #7
 8003542:	683a      	ldr	r2, [r7, #0]
 8003544:	429a      	cmp	r2, r3
 8003546:	d001      	beq.n	800354c <HAL_RCC_ClockConfig+0x3c>
    {
      return HAL_ERROR;
 8003548:	2301      	movs	r3, #1
 800354a:	e0b8      	b.n	80036be <HAL_RCC_ClockConfig+0x1ae>
    }
  }

  /*-------------------------- HCLK Configuration --------------------------*/
  if(((RCC_ClkInitStruct->ClockType) & RCC_CLOCKTYPE_HCLK) == RCC_CLOCKTYPE_HCLK)
 800354c:	687b      	ldr	r3, [r7, #4]
 800354e:	681b      	ldr	r3, [r3, #0]
 8003550:	f003 0302 	and.w	r3, r3, #2
 8003554:	2b00      	cmp	r3, #0
 8003556:	d020      	beq.n	800359a <HAL_RCC_ClockConfig+0x8a>
  {
    /* Set the highest APBx dividers in order to ensure that we do not go through
       a non-spec phase whatever we decrease or increase HCLK. */
    if(((RCC_ClkInitStruct->ClockType) & RCC_CLOCKTYPE_PCLK1) == RCC_CLOCKTYPE_PCLK1)
 8003558:	687b      	ldr	r3, [r7, #4]
 800355a:	681b      	ldr	r3, [r3, #0]
 800355c:	f003 0304 	and.w	r3, r3, #4
 8003560:	2b00      	cmp	r3, #0
 8003562:	d005      	beq.n	8003570 <HAL_RCC_ClockConfig+0x60>
    {
      MODIFY_REG(RCC->CFGR, RCC_CFGR_PPRE1, RCC_HCLK_DIV16);
 8003564:	4b59      	ldr	r3, [pc, #356]	@ (80036cc <HAL_RCC_ClockConfig+0x1bc>)
 8003566:	689b      	ldr	r3, [r3, #8]
 8003568:	4a58      	ldr	r2, [pc, #352]	@ (80036cc <HAL_RCC_ClockConfig+0x1bc>)
 800356a:	f443 53e0 	orr.w	r3, r3, #7168	@ 0x1c00
 800356e:	6093      	str	r3, [r2, #8]
    }

    if(((RCC_ClkInitStruct->ClockType) & RCC_CLOCKTYPE_PCLK2) == RCC_CLOCKTYPE_PCLK2)
 8003570:	687b      	ldr	r3, [r7, #4]
 8003572:	681b      	ldr	r3, [r3, #0]
 8003574:	f003 0308 	and.w	r3, r3, #8
 8003578:	2b00      	cmp	r3, #0
 800357a:	d005      	beq.n	8003588 <HAL_RCC_ClockConfig+0x78>
    {
      MODIFY_REG(RCC->CFGR, RCC_CFGR_PPRE2, (RCC_HCLK_DIV16 << 3));
 800357c:	4b53      	ldr	r3, [pc, #332]	@ (80036cc <HAL_RCC_ClockConfig+0x1bc>)
 800357e:	689b      	ldr	r3, [r3, #8]
 8003580:	4a52      	ldr	r2, [pc, #328]	@ (80036cc <HAL_RCC_ClockConfig+0x1bc>)
 8003582:	f443 4360 	orr.w	r3, r3, #57344	@ 0xe000
 8003586:	6093      	str	r3, [r2, #8]
    }

    assert_param(IS_RCC_HCLK(RCC_ClkInitStruct->AHBCLKDivider));
    MODIFY_REG(RCC->CFGR, RCC_CFGR_HPRE, RCC_ClkInitStruct->AHBCLKDivider);
 8003588:	4b50      	ldr	r3, [pc, #320]	@ (80036cc <HAL_RCC_ClockConfig+0x1bc>)
 800358a:	689b      	ldr	r3, [r3, #8]
 800358c:	f023 02f0 	bic.w	r2, r3, #240	@ 0xf0
 8003590:	687b      	ldr	r3, [r7, #4]
 8003592:	689b      	ldr	r3, [r3, #8]
 8003594:	494d      	ldr	r1, [pc, #308]	@ (80036cc <HAL_RCC_ClockConfig+0x1bc>)
 8003596:	4313      	orrs	r3, r2
 8003598:	608b      	str	r3, [r1, #8]
  }

  /*------------------------- SYSCLK Configuration ---------------------------*/
  if(((RCC_ClkInitStruct->ClockType) & RCC_CLOCKTYPE_SYSCLK) == RCC_CLOCKTYPE_SYSCLK)
 800359a:	687b      	ldr	r3, [r7, #4]
 800359c:	681b      	ldr	r3, [r3, #0]
 800359e:	f003 0301 	and.w	r3, r3, #1
 80035a2:	2b00      	cmp	r3, #0
 80035a4:	d044      	beq.n	8003630 <HAL_RCC_ClockConfig+0x120>
  {
    assert_param(IS_RCC_SYSCLKSOURCE(RCC_ClkInitStruct->SYSCLKSource));

    /* HSE is selected as System Clock Source */
    if(RCC_ClkInitStruct->SYSCLKSource == RCC_SYSCLKSOURCE_HSE)
 80035a6:	687b      	ldr	r3, [r7, #4]
 80035a8:	685b      	ldr	r3, [r3, #4]
 80035aa:	2b01      	cmp	r3, #1
 80035ac:	d107      	bne.n	80035be <HAL_RCC_ClockConfig+0xae>
    {
      /* Check the HSE ready flag */
      if(__HAL_RCC_GET_FLAG(RCC_FLAG_HSERDY) == RESET)
 80035ae:	4b47      	ldr	r3, [pc, #284]	@ (80036cc <HAL_RCC_ClockConfig+0x1bc>)
 80035b0:	681b      	ldr	r3, [r3, #0]
 80035b2:	f403 3300 	and.w	r3, r3, #131072	@ 0x20000
 80035b6:	2b00      	cmp	r3, #0
 80035b8:	d119      	bne.n	80035ee <HAL_RCC_ClockConfig+0xde>
      {
        return HAL_ERROR;
 80035ba:	2301      	movs	r3, #1
 80035bc:	e07f      	b.n	80036be <HAL_RCC_ClockConfig+0x1ae>
      }
    }
    /* PLL is selected as System Clock Source */
    else if((RCC_ClkInitStruct->SYSCLKSource == RCC_SYSCLKSOURCE_PLLCLK)   ||
 80035be:	687b      	ldr	r3, [r7, #4]
 80035c0:	685b      	ldr	r3, [r3, #4]
 80035c2:	2b02      	cmp	r3, #2
 80035c4:	d003      	beq.n	80035ce <HAL_RCC_ClockConfig+0xbe>
            (RCC_ClkInitStruct->SYSCLKSource == RCC_SYSCLKSOURCE_PLLRCLK))
 80035c6:	687b      	ldr	r3, [r7, #4]
 80035c8:	685b      	ldr	r3, [r3, #4]
    else if((RCC_ClkInitStruct->SYSCLKSource == RCC_SYSCLKSOURCE_PLLCLK)   ||
 80035ca:	2b03      	cmp	r3, #3
 80035cc:	d107      	bne.n	80035de <HAL_RCC_ClockConfig+0xce>
    {
      /* Check the PLL ready flag */
      if(__HAL_RCC_GET_FLAG(RCC_FLAG_PLLRDY) == RESET)
 80035ce:	4b3f      	ldr	r3, [pc, #252]	@ (80036cc <HAL_RCC_ClockConfig+0x1bc>)
 80035d0:	681b      	ldr	r3, [r3, #0]
 80035d2:	f003 7300 	and.w	r3, r3, #33554432	@ 0x2000000
 80035d6:	2b00      	cmp	r3, #0
 80035d8:	d109      	bne.n	80035ee <HAL_RCC_ClockConfig+0xde>
      {
        return HAL_ERROR;
 80035da:	2301      	movs	r3, #1
 80035dc:	e06f      	b.n	80036be <HAL_RCC_ClockConfig+0x1ae>
    }
    /* HSI is selected as System Clock Source */
    else
    {
      /* Check the HSI ready flag */
      if(__HAL_RCC_GET_FLAG(RCC_FLAG_HSIRDY) == RESET)
 80035de:	4b3b      	ldr	r3, [pc, #236]	@ (80036cc <HAL_RCC_ClockConfig+0x1bc>)
 80035e0:	681b      	ldr	r3, [r3, #0]
 80035e2:	f003 0302 	and.w	r3, r3, #2
 80035e6:	2b00      	cmp	r3, #0
 80035e8:	d101      	bne.n	80035ee <HAL_RCC_ClockConfig+0xde>
      {
        return HAL_ERROR;
 80035ea:	2301      	movs	r3, #1
 80035ec:	e067      	b.n	80036be <HAL_RCC_ClockConfig+0x1ae>
      }
    }

    __HAL_RCC_SYSCLK_CONFIG(RCC_ClkInitStruct->SYSCLKSource);
 80035ee:	4b37      	ldr	r3, [pc, #220]	@ (80036cc <HAL_RCC_ClockConfig+0x1bc>)
 80035f0:	689b      	ldr	r3, [r3, #8]
 80035f2:	f023 0203 	bic.w	r2, r3, #3
 80035f6:	687b      	ldr	r3, [r7, #4]
 80035f8:	685b      	ldr	r3, [r3, #4]
 80035fa:	4934      	ldr	r1, [pc, #208]	@ (80036cc <HAL_RCC_ClockConfig+0x1bc>)
 80035fc:	4313      	orrs	r3, r2
 80035fe:	608b      	str	r3, [r1, #8]

    /* Get Start Tick */
    tickstart = HAL_GetTick();
 8003600:	f7fe fdba 	bl	8002178 <HAL_GetTick>
 8003604:	60f8      	str	r0, [r7, #12]

    while (__HAL_RCC_GET_SYSCLK_SOURCE() != (RCC_ClkInitStruct->SYSCLKSource << RCC_CFGR_SWS_Pos))
 8003606:	e00a      	b.n	800361e <HAL_RCC_ClockConfig+0x10e>
    {
      if ((HAL_GetTick() - tickstart) > CLOCKSWITCH_TIMEOUT_VALUE)
 8003608:	f7fe fdb6 	bl	8002178 <HAL_GetTick>
 800360c:	4602      	mov	r2, r0
 800360e:	68fb      	ldr	r3, [r7, #12]
 8003610:	1ad3      	subs	r3, r2, r3
 8003612:	f241 3288 	movw	r2, #5000	@ 0x1388
 8003616:	4293      	cmp	r3, r2
 8003618:	d901      	bls.n	800361e <HAL_RCC_ClockConfig+0x10e>
      {
        return HAL_TIMEOUT;
 800361a:	2303      	movs	r3, #3
 800361c:	e04f      	b.n	80036be <HAL_RCC_ClockConfig+0x1ae>
    while (__HAL_RCC_GET_SYSCLK_SOURCE() != (RCC_ClkInitStruct->SYSCLKSource << RCC_CFGR_SWS_Pos))
 800361e:	4b2b      	ldr	r3, [pc, #172]	@ (80036cc <HAL_RCC_ClockConfig+0x1bc>)
 8003620:	689b      	ldr	r3, [r3, #8]
 8003622:	f003 020c 	and.w	r2, r3, #12
 8003626:	687b      	ldr	r3, [r7, #4]
 8003628:	685b      	ldr	r3, [r3, #4]
 800362a:	009b      	lsls	r3, r3, #2
 800362c:	429a      	cmp	r2, r3
 800362e:	d1eb      	bne.n	8003608 <HAL_RCC_ClockConfig+0xf8>
      }
    }
  }

  /* Decreasing the number of wait states because of lower CPU frequency */
  if(FLatency < __HAL_FLASH_GET_LATENCY())
 8003630:	4b25      	ldr	r3, [pc, #148]	@ (80036c8 <HAL_RCC_ClockConfig+0x1b8>)
 8003632:	681b      	ldr	r3, [r3, #0]
 8003634:	f003 0307 	and.w	r3, r3, #7
 8003638:	683a      	ldr	r2, [r7, #0]
 800363a:	429a      	cmp	r2, r3
 800363c:	d20c      	bcs.n	8003658 <HAL_RCC_ClockConfig+0x148>
  {
     /* Program the new number of wait states to the LATENCY bits in the FLASH_ACR register */
    __HAL_FLASH_SET_LATENCY(FLatency);
 800363e:	4b22      	ldr	r3, [pc, #136]	@ (80036c8 <HAL_RCC_ClockConfig+0x1b8>)
 8003640:	683a      	ldr	r2, [r7, #0]
 8003642:	b2d2      	uxtb	r2, r2
 8003644:	701a      	strb	r2, [r3, #0]

    /* Check that the new number of wait states is taken into account to access the Flash
    memory by reading the FLASH_ACR register */
    if(__HAL_FLASH_GET_LATENCY() != FLatency)
 8003646:	4b20      	ldr	r3, [pc, #128]	@ (80036c8 <HAL_RCC_ClockConfig+0x1b8>)
 8003648:	681b      	ldr	r3, [r3, #0]
 800364a:	f003 0307 	and.w	r3, r3, #7
 800364e:	683a      	ldr	r2, [r7, #0]
 8003650:	429a      	cmp	r2, r3
 8003652:	d001      	beq.n	8003658 <HAL_RCC_ClockConfig+0x148>
    {
      return HAL_ERROR;
 8003654:	2301      	movs	r3, #1
 8003656:	e032      	b.n	80036be <HAL_RCC_ClockConfig+0x1ae>
    }
  }

  /*-------------------------- PCLK1 Configuration ---------------------------*/
  if(((RCC_ClkInitStruct->ClockType) & RCC_CLOCKTYPE_PCLK1) == RCC_CLOCKTYPE_PCLK1)
 8003658:	687b      	ldr	r3, [r7, #4]
 800365a:	681b      	ldr	r3, [r3, #0]
 800365c:	f003 0304 	and.w	r3, r3, #4
 8003660:	2b00      	cmp	r3, #0
 8003662:	d008      	beq.n	8003676 <HAL_RCC_ClockConfig+0x166>
  {
    assert_param(IS_RCC_PCLK(RCC_ClkInitStruct->APB1CLKDivider));
    MODIFY_REG(RCC->CFGR, RCC_CFGR_PPRE1, RCC_ClkInitStruct->APB1CLKDivider);
 8003664:	4b19      	ldr	r3, [pc, #100]	@ (80036cc <HAL_RCC_ClockConfig+0x1bc>)
 8003666:	689b      	ldr	r3, [r3, #8]
 8003668:	f423 52e0 	bic.w	r2, r3, #7168	@ 0x1c00
 800366c:	687b      	ldr	r3, [r7, #4]
 800366e:	68db      	ldr	r3, [r3, #12]
 8003670:	4916      	ldr	r1, [pc, #88]	@ (80036cc <HAL_RCC_ClockConfig+0x1bc>)
 8003672:	4313      	orrs	r3, r2
 8003674:	608b      	str	r3, [r1, #8]
  }

  /*-------------------------- PCLK2 Configuration ---------------------------*/
  if(((RCC_ClkInitStruct->ClockType) & RCC_CLOCKTYPE_PCLK2) == RCC_CLOCKTYPE_PCLK2)
 8003676:	687b      	ldr	r3, [r7, #4]
 8003678:	681b      	ldr	r3, [r3, #0]
 800367a:	f003 0308 	and.w	r3, r3, #8
 800367e:	2b00      	cmp	r3, #0
 8003680:	d009      	beq.n	8003696 <HAL_RCC_ClockConfig+0x186>
  {
    assert_param(IS_RCC_PCLK(RCC_ClkInitStruct->APB2CLKDivider));
    MODIFY_REG(RCC->CFGR, RCC_CFGR_PPRE2, ((RCC_ClkInitStruct->APB2CLKDivider) << 3U));
 8003682:	4b12      	ldr	r3, [pc, #72]	@ (80036cc <HAL_RCC_ClockConfig+0x1bc>)
 8003684:	689b      	ldr	r3, [r3, #8]
 8003686:	f423 4260 	bic.w	r2, r3, #57344	@ 0xe000
 800368a:	687b      	ldr	r3, [r7, #4]
 800368c:	691b      	ldr	r3, [r3, #16]
 800368e:	00db      	lsls	r3, r3, #3
 8003690:	490e      	ldr	r1, [pc, #56]	@ (80036cc <HAL_RCC_ClockConfig+0x1bc>)
 8003692:	4313      	orrs	r3, r2
 8003694:	608b      	str	r3, [r1, #8]
  }

  /* Update the SystemCoreClock global variable */
  SystemCoreClock = HAL_RCC_GetSysClockFreq() >> AHBPrescTable[(RCC->CFGR & RCC_CFGR_HPRE)>> RCC_CFGR_HPRE_Pos];
 8003696:	f000 f821 	bl	80036dc <HAL_RCC_GetSysClockFreq>
 800369a:	4602      	mov	r2, r0
 800369c:	4b0b      	ldr	r3, [pc, #44]	@ (80036cc <HAL_RCC_ClockConfig+0x1bc>)
 800369e:	689b      	ldr	r3, [r3, #8]
 80036a0:	091b      	lsrs	r3, r3, #4
 80036a2:	f003 030f 	and.w	r3, r3, #15
 80036a6:	490a      	ldr	r1, [pc, #40]	@ (80036d0 <HAL_RCC_ClockConfig+0x1c0>)
 80036a8:	5ccb      	ldrb	r3, [r1, r3]
 80036aa:	fa22 f303 	lsr.w	r3, r2, r3
 80036ae:	4a09      	ldr	r2, [pc, #36]	@ (80036d4 <HAL_RCC_ClockConfig+0x1c4>)
 80036b0:	6013      	str	r3, [r2, #0]

  /* Configure the source of time base considering new system clocks settings */
  HAL_InitTick (uwTickPrio);
 80036b2:	4b09      	ldr	r3, [pc, #36]	@ (80036d8 <HAL_RCC_ClockConfig+0x1c8>)
 80036b4:	681b      	ldr	r3, [r3, #0]
 80036b6:	4618      	mov	r0, r3
 80036b8:	f7fe fd1a 	bl	80020f0 <HAL_InitTick>

  return HAL_OK;
 80036bc:	2300      	movs	r3, #0
}
 80036be:	4618      	mov	r0, r3
 80036c0:	3710      	adds	r7, #16
 80036c2:	46bd      	mov	sp, r7
 80036c4:	bd80      	pop	{r7, pc}
 80036c6:	bf00      	nop
 80036c8:	40023c00 	.word	0x40023c00
 80036cc:	40023800 	.word	0x40023800
 80036d0:	08005f74 	.word	0x08005f74
 80036d4:	20000000 	.word	0x20000000
 80036d8:	2000001c 	.word	0x2000001c

080036dc <HAL_RCC_GetSysClockFreq>:
  *
  *
  * @retval SYSCLK frequency
  */
__weak uint32_t HAL_RCC_GetSysClockFreq(void)
{
 80036dc:	e92d 4fb0 	stmdb	sp!, {r4, r5, r7, r8, r9, sl, fp, lr}
 80036e0:	b090      	sub	sp, #64	@ 0x40
 80036e2:	af00      	add	r7, sp, #0
  uint32_t pllm = 0U, pllvco = 0U, pllp = 0U;
 80036e4:	2300      	movs	r3, #0
 80036e6:	637b      	str	r3, [r7, #52]	@ 0x34
 80036e8:	2300      	movs	r3, #0
 80036ea:	63fb      	str	r3, [r7, #60]	@ 0x3c
 80036ec:	2300      	movs	r3, #0
 80036ee:	633b      	str	r3, [r7, #48]	@ 0x30
  uint32_t sysclockfreq = 0U;
 80036f0:	2300      	movs	r3, #0
 80036f2:	63bb      	str	r3, [r7, #56]	@ 0x38

  /* Get SYSCLK source -------------------------------------------------------*/
  switch (RCC->CFGR & RCC_CFGR_SWS)
 80036f4:	4b59      	ldr	r3, [pc, #356]	@ (800385c <HAL_RCC_GetSysClockFreq+0x180>)
 80036f6:	689b      	ldr	r3, [r3, #8]
 80036f8:	f003 030c 	and.w	r3, r3, #12
 80036fc:	2b08      	cmp	r3, #8
 80036fe:	d00d      	beq.n	800371c <HAL_RCC_GetSysClockFreq+0x40>
 8003700:	2b08      	cmp	r3, #8
 8003702:	f200 80a1 	bhi.w	8003848 <HAL_RCC_GetSysClockFreq+0x16c>
 8003706:	2b00      	cmp	r3, #0
 8003708:	d002      	beq.n	8003710 <HAL_RCC_GetSysClockFreq+0x34>
 800370a:	2b04      	cmp	r3, #4
 800370c:	d003      	beq.n	8003716 <HAL_RCC_GetSysClockFreq+0x3a>
 800370e:	e09b      	b.n	8003848 <HAL_RCC_GetSysClockFreq+0x16c>
  {
    case RCC_CFGR_SWS_HSI:  /* HSI used as system clock source */
    {
      sysclockfreq = HSI_VALUE;
 8003710:	4b53      	ldr	r3, [pc, #332]	@ (8003860 <HAL_RCC_GetSysClockFreq+0x184>)
 8003712:	63bb      	str	r3, [r7, #56]	@ 0x38
       break;
 8003714:	e09b      	b.n	800384e <HAL_RCC_GetSysClockFreq+0x172>
    }
    case RCC_CFGR_SWS_HSE:  /* HSE used as system clock  source */
    {
      sysclockfreq = HSE_VALUE;
 8003716:	4b53      	ldr	r3, [pc, #332]	@ (8003864 <HAL_RCC_GetSysClockFreq+0x188>)
 8003718:	63bb      	str	r3, [r7, #56]	@ 0x38
      break;
 800371a:	e098      	b.n	800384e <HAL_RCC_GetSysClockFreq+0x172>
    }
    case RCC_CFGR_SWS_PLL:  /* PLL used as system clock  source */
    {
      /* PLL_VCO = (HSE_VALUE or HSI_VALUE / PLLM) * PLLN
      SYSCLK = PLL_VCO / PLLP */
      pllm = RCC->PLLCFGR & RCC_PLLCFGR_PLLM;
 800371c:	4b4f      	ldr	r3, [pc, #316]	@ (800385c <HAL_RCC_GetSysClockFreq+0x180>)
 800371e:	685b      	ldr	r3, [r3, #4]
 8003720:	f003 033f 	and.w	r3, r3, #63	@ 0x3f
 8003724:	637b      	str	r3, [r7, #52]	@ 0x34
      if(__HAL_RCC_GET_PLL_OSCSOURCE() != RCC_PLLSOURCE_HSI)
 8003726:	4b4d      	ldr	r3, [pc, #308]	@ (800385c <HAL_RCC_GetSysClockFreq+0x180>)
 8003728:	685b      	ldr	r3, [r3, #4]
 800372a:	f403 0380 	and.w	r3, r3, #4194304	@ 0x400000
 800372e:	2b00      	cmp	r3, #0
 8003730:	d028      	beq.n	8003784 <HAL_RCC_GetSysClockFreq+0xa8>
      {
        /* HSE used as PLL clock source */
        pllvco = (uint32_t) ((((uint64_t) HSE_VALUE * ((uint64_t) ((RCC->PLLCFGR & RCC_PLLCFGR_PLLN) >> RCC_PLLCFGR_PLLN_Pos)))) / (uint64_t)pllm);
 8003732:	4b4a      	ldr	r3, [pc, #296]	@ (800385c <HAL_RCC_GetSysClockFreq+0x180>)
 8003734:	685b      	ldr	r3, [r3, #4]
 8003736:	099b      	lsrs	r3, r3, #6
 8003738:	2200      	movs	r2, #0
 800373a:	623b      	str	r3, [r7, #32]
 800373c:	627a      	str	r2, [r7, #36]	@ 0x24
 800373e:	6a3b      	ldr	r3, [r7, #32]
 8003740:	f3c3 0008 	ubfx	r0, r3, #0, #9
 8003744:	2100      	movs	r1, #0
 8003746:	4b47      	ldr	r3, [pc, #284]	@ (8003864 <HAL_RCC_GetSysClockFreq+0x188>)
 8003748:	fb03 f201 	mul.w	r2, r3, r1
 800374c:	2300      	movs	r3, #0
 800374e:	fb00 f303 	mul.w	r3, r0, r3
 8003752:	4413      	add	r3, r2
 8003754:	4a43      	ldr	r2, [pc, #268]	@ (8003864 <HAL_RCC_GetSysClockFreq+0x188>)
 8003756:	fba0 1202 	umull	r1, r2, r0, r2
 800375a:	62fa      	str	r2, [r7, #44]	@ 0x2c
 800375c:	460a      	mov	r2, r1
 800375e:	62ba      	str	r2, [r7, #40]	@ 0x28
 8003760:	6afa      	ldr	r2, [r7, #44]	@ 0x2c
 8003762:	4413      	add	r3, r2
 8003764:	62fb      	str	r3, [r7, #44]	@ 0x2c
 8003766:	6b7b      	ldr	r3, [r7, #52]	@ 0x34
 8003768:	2200      	movs	r2, #0
 800376a:	61bb      	str	r3, [r7, #24]
 800376c:	61fa      	str	r2, [r7, #28]
 800376e:	e9d7 2306 	ldrd	r2, r3, [r7, #24]
 8003772:	e9d7 010a 	ldrd	r0, r1, [r7, #40]	@ 0x28
 8003776:	f7fd f979 	bl	8000a6c <__aeabi_uldivmod>
 800377a:	4602      	mov	r2, r0
 800377c:	460b      	mov	r3, r1
 800377e:	4613      	mov	r3, r2
 8003780:	63fb      	str	r3, [r7, #60]	@ 0x3c
 8003782:	e053      	b.n	800382c <HAL_RCC_GetSysClockFreq+0x150>
      }
      else
      {
        /* HSI used as PLL clock source */
        pllvco = (uint32_t) ((((uint64_t) HSI_VALUE * ((uint64_t) ((RCC->PLLCFGR & RCC_PLLCFGR_PLLN) >> RCC_PLLCFGR_PLLN_Pos)))) / (uint64_t)pllm);
 8003784:	4b35      	ldr	r3, [pc, #212]	@ (800385c <HAL_RCC_GetSysClockFreq+0x180>)
 8003786:	685b      	ldr	r3, [r3, #4]
 8003788:	099b      	lsrs	r3, r3, #6
 800378a:	2200      	movs	r2, #0
 800378c:	613b      	str	r3, [r7, #16]
 800378e:	617a      	str	r2, [r7, #20]
 8003790:	693b      	ldr	r3, [r7, #16]
 8003792:	f3c3 0a08 	ubfx	sl, r3, #0, #9
 8003796:	f04f 0b00 	mov.w	fp, #0
 800379a:	4652      	mov	r2, sl
 800379c:	465b      	mov	r3, fp
 800379e:	f04f 0000 	mov.w	r0, #0
 80037a2:	f04f 0100 	mov.w	r1, #0
 80037a6:	0159      	lsls	r1, r3, #5
 80037a8:	ea41 61d2 	orr.w	r1, r1, r2, lsr #27
 80037ac:	0150      	lsls	r0, r2, #5
 80037ae:	4602      	mov	r2, r0
 80037b0:	460b      	mov	r3, r1
 80037b2:	ebb2 080a 	subs.w	r8, r2, sl
 80037b6:	eb63 090b 	sbc.w	r9, r3, fp
 80037ba:	f04f 0200 	mov.w	r2, #0
 80037be:	f04f 0300 	mov.w	r3, #0
 80037c2:	ea4f 1389 	mov.w	r3, r9, lsl #6
 80037c6:	ea43 6398 	orr.w	r3, r3, r8, lsr #26
 80037ca:	ea4f 1288 	mov.w	r2, r8, lsl #6
 80037ce:	ebb2 0408 	subs.w	r4, r2, r8
 80037d2:	eb63 0509 	sbc.w	r5, r3, r9
 80037d6:	f04f 0200 	mov.w	r2, #0
 80037da:	f04f 0300 	mov.w	r3, #0
 80037de:	00eb      	lsls	r3, r5, #3
 80037e0:	ea43 7354 	orr.w	r3, r3, r4, lsr #29
 80037e4:	00e2      	lsls	r2, r4, #3
 80037e6:	4614      	mov	r4, r2
 80037e8:	461d      	mov	r5, r3
 80037ea:	eb14 030a 	adds.w	r3, r4, sl
 80037ee:	603b      	str	r3, [r7, #0]
 80037f0:	eb45 030b 	adc.w	r3, r5, fp
 80037f4:	607b      	str	r3, [r7, #4]
 80037f6:	f04f 0200 	mov.w	r2, #0
 80037fa:	f04f 0300 	mov.w	r3, #0
 80037fe:	e9d7 4500 	ldrd	r4, r5, [r7]
 8003802:	4629      	mov	r1, r5
 8003804:	028b      	lsls	r3, r1, #10
 8003806:	4621      	mov	r1, r4
 8003808:	ea43 5391 	orr.w	r3, r3, r1, lsr #22
 800380c:	4621      	mov	r1, r4
 800380e:	028a      	lsls	r2, r1, #10
 8003810:	4610      	mov	r0, r2
 8003812:	4619      	mov	r1, r3
 8003814:	6b7b      	ldr	r3, [r7, #52]	@ 0x34
 8003816:	2200      	movs	r2, #0
 8003818:	60bb      	str	r3, [r7, #8]
 800381a:	60fa      	str	r2, [r7, #12]
 800381c:	e9d7 2302 	ldrd	r2, r3, [r7, #8]
 8003820:	f7fd f924 	bl	8000a6c <__aeabi_uldivmod>
 8003824:	4602      	mov	r2, r0
 8003826:	460b      	mov	r3, r1
 8003828:	4613      	mov	r3, r2
 800382a:	63fb      	str	r3, [r7, #60]	@ 0x3c
      }
      pllp = ((((RCC->PLLCFGR & RCC_PLLCFGR_PLLP) >> RCC_PLLCFGR_PLLP_Pos) + 1U) *2U);
 800382c:	4b0b      	ldr	r3, [pc, #44]	@ (800385c <HAL_RCC_GetSysClockFreq+0x180>)
 800382e:	685b      	ldr	r3, [r3, #4]
 8003830:	0c1b      	lsrs	r3, r3, #16
 8003832:	f003 0303 	and.w	r3, r3, #3
 8003836:	3301      	adds	r3, #1
 8003838:	005b      	lsls	r3, r3, #1
 800383a:	633b      	str	r3, [r7, #48]	@ 0x30

      sysclockfreq = pllvco/pllp;
 800383c:	6bfa      	ldr	r2, [r7, #60]	@ 0x3c
 800383e:	6b3b      	ldr	r3, [r7, #48]	@ 0x30
 8003840:	fbb2 f3f3 	udiv	r3, r2, r3
 8003844:	63bb      	str	r3, [r7, #56]	@ 0x38
      break;
 8003846:	e002      	b.n	800384e <HAL_RCC_GetSysClockFreq+0x172>
    }
    default:
    {
      sysclockfreq = HSI_VALUE;
 8003848:	4b05      	ldr	r3, [pc, #20]	@ (8003860 <HAL_RCC_GetSysClockFreq+0x184>)
 800384a:	63bb      	str	r3, [r7, #56]	@ 0x38
      break;
 800384c:	bf00      	nop
    }
  }
  return sysclockfreq;
 800384e:	6bbb      	ldr	r3, [r7, #56]	@ 0x38
}
 8003850:	4618      	mov	r0, r3
 8003852:	3740      	adds	r7, #64	@ 0x40
 8003854:	46bd      	mov	sp, r7
 8003856:	e8bd 8fb0 	ldmia.w	sp!, {r4, r5, r7, r8, r9, sl, fp, pc}
 800385a:	bf00      	nop
 800385c:	40023800 	.word	0x40023800
 8003860:	00f42400 	.word	0x00f42400
 8003864:	017d7840 	.word	0x017d7840

08003868 <HAL_RCC_GetHCLKFreq>:
  * @note   The SystemCoreClock CMSIS variable is used to store System Clock Frequency
  *         and updated within this function
  * @retval HCLK frequency
  */
uint32_t HAL_RCC_GetHCLKFreq(void)
{
 8003868:	b480      	push	{r7}
 800386a:	af00      	add	r7, sp, #0
  return SystemCoreClock;
 800386c:	4b03      	ldr	r3, [pc, #12]	@ (800387c <HAL_RCC_GetHCLKFreq+0x14>)
 800386e:	681b      	ldr	r3, [r3, #0]
}
 8003870:	4618      	mov	r0, r3
 8003872:	46bd      	mov	sp, r7
 8003874:	f85d 7b04 	ldr.w	r7, [sp], #4
 8003878:	4770      	bx	lr
 800387a:	bf00      	nop
 800387c:	20000000 	.word	0x20000000

08003880 <HAL_RCC_GetPCLK1Freq>:
  * @note   Each time PCLK1 changes, this function must be called to update the
  *         right PCLK1 value. Otherwise, any configuration based on this function will be incorrect.
  * @retval PCLK1 frequency
  */
uint32_t HAL_RCC_GetPCLK1Freq(void)
{
 8003880:	b580      	push	{r7, lr}
 8003882:	af00      	add	r7, sp, #0
  /* Get HCLK source and Compute PCLK1 frequency ---------------------------*/
  return (HAL_RCC_GetHCLKFreq() >> APBPrescTable[(RCC->CFGR & RCC_CFGR_PPRE1)>> RCC_CFGR_PPRE1_Pos]);
 8003884:	f7ff fff0 	bl	8003868 <HAL_RCC_GetHCLKFreq>
 8003888:	4602      	mov	r2, r0
 800388a:	4b05      	ldr	r3, [pc, #20]	@ (80038a0 <HAL_RCC_GetPCLK1Freq+0x20>)
 800388c:	689b      	ldr	r3, [r3, #8]
 800388e:	0a9b      	lsrs	r3, r3, #10
 8003890:	f003 0307 	and.w	r3, r3, #7
 8003894:	4903      	ldr	r1, [pc, #12]	@ (80038a4 <HAL_RCC_GetPCLK1Freq+0x24>)
 8003896:	5ccb      	ldrb	r3, [r1, r3]
 8003898:	fa22 f303 	lsr.w	r3, r2, r3
}
 800389c:	4618      	mov	r0, r3
 800389e:	bd80      	pop	{r7, pc}
 80038a0:	40023800 	.word	0x40023800
 80038a4:	08005f84 	.word	0x08005f84

080038a8 <HAL_RCC_GetPCLK2Freq>:
  * @note   Each time PCLK2 changes, this function must be called to update the
  *         right PCLK2 value. Otherwise, any configuration based on this function will be incorrect.
  * @retval PCLK2 frequency
  */
uint32_t HAL_RCC_GetPCLK2Freq(void)
{
 80038a8:	b580      	push	{r7, lr}
 80038aa:	af00      	add	r7, sp, #0
  /* Get HCLK source and Compute PCLK2 frequency ---------------------------*/
  return (HAL_RCC_GetHCLKFreq()>> APBPrescTable[(RCC->CFGR & RCC_CFGR_PPRE2)>> RCC_CFGR_PPRE2_Pos]);
 80038ac:	f7ff ffdc 	bl	8003868 <HAL_RCC_GetHCLKFreq>
 80038b0:	4602      	mov	r2, r0
 80038b2:	4b05      	ldr	r3, [pc, #20]	@ (80038c8 <HAL_RCC_GetPCLK2Freq+0x20>)
 80038b4:	689b      	ldr	r3, [r3, #8]
 80038b6:	0b5b      	lsrs	r3, r3, #13
 80038b8:	f003 0307 	and.w	r3, r3, #7
 80038bc:	4903      	ldr	r1, [pc, #12]	@ (80038cc <HAL_RCC_GetPCLK2Freq+0x24>)
 80038be:	5ccb      	ldrb	r3, [r1, r3]
 80038c0:	fa22 f303 	lsr.w	r3, r2, r3
}
 80038c4:	4618      	mov	r0, r3
 80038c6:	bd80      	pop	{r7, pc}
 80038c8:	40023800 	.word	0x40023800
 80038cc:	08005f84 	.word	0x08005f84

080038d0 <HAL_TIM_Base_Init>:
  *         Ex: call @ref HAL_TIM_Base_DeInit() before HAL_TIM_Base_Init()
  * @param  htim TIM Base handle
  * @retval HAL status
  */
HAL_StatusTypeDef HAL_TIM_Base_Init(TIM_HandleTypeDef *htim)
{
 80038d0:	b580      	push	{r7, lr}
 80038d2:	b082      	sub	sp, #8
 80038d4:	af00      	add	r7, sp, #0
 80038d6:	6078      	str	r0, [r7, #4]
  /* Check the TIM handle allocation */
  if (htim == NULL)
 80038d8:	687b      	ldr	r3, [r7, #4]
 80038da:	2b00      	cmp	r3, #0
 80038dc:	d101      	bne.n	80038e2 <HAL_TIM_Base_Init+0x12>
  {
    return HAL_ERROR;
 80038de:	2301      	movs	r3, #1
 80038e0:	e041      	b.n	8003966 <HAL_TIM_Base_Init+0x96>
  assert_param(IS_TIM_COUNTER_MODE(htim->Init.CounterMode));
  assert_param(IS_TIM_CLOCKDIVISION_DIV(htim->Init.ClockDivision));
  assert_param(IS_TIM_PERIOD(htim, htim->Init.Period));
  assert_param(IS_TIM_AUTORELOAD_PRELOAD(htim->Init.AutoReloadPreload));

  if (htim->State == HAL_TIM_STATE_RESET)
 80038e2:	687b      	ldr	r3, [r7, #4]
 80038e4:	f893 303d 	ldrb.w	r3, [r3, #61]	@ 0x3d
 80038e8:	b2db      	uxtb	r3, r3
 80038ea:	2b00      	cmp	r3, #0
 80038ec:	d106      	bne.n	80038fc <HAL_TIM_Base_Init+0x2c>
  {
    /* Allocate lock resource and initialize it */
    htim->Lock = HAL_UNLOCKED;
 80038ee:	687b      	ldr	r3, [r7, #4]
 80038f0:	2200      	movs	r2, #0
 80038f2:	f883 203c 	strb.w	r2, [r3, #60]	@ 0x3c
    }
    /* Init the low level hardware : GPIO, CLOCK, NVIC */
    htim->Base_MspInitCallback(htim);
#else
    /* Init the low level hardware : GPIO, CLOCK, NVIC */
    HAL_TIM_Base_MspInit(htim);
 80038f6:	6878      	ldr	r0, [r7, #4]
 80038f8:	f7fd fe76 	bl	80015e8 <HAL_TIM_Base_MspInit>
#endif /* USE_HAL_TIM_REGISTER_CALLBACKS */
  }

  /* Set the TIM state */
  htim->State = HAL_TIM_STATE_BUSY;
 80038fc:	687b      	ldr	r3, [r7, #4]
 80038fe:	2202      	movs	r2, #2
 8003900:	f883 203d 	strb.w	r2, [r3, #61]	@ 0x3d

  /* Set the Time Base configuration */
  TIM_Base_SetConfig(htim->Instance, &htim->Init);
 8003904:	687b      	ldr	r3, [r7, #4]
 8003906:	681a      	ldr	r2, [r3, #0]
 8003908:	687b      	ldr	r3, [r7, #4]
 800390a:	3304      	adds	r3, #4
 800390c:	4619      	mov	r1, r3
 800390e:	4610      	mov	r0, r2
 8003910:	f000 fa10 	bl	8003d34 <TIM_Base_SetConfig>

  /* Initialize the DMA burst operation state */
  htim->DMABurstState = HAL_DMA_BURST_STATE_READY;
 8003914:	687b      	ldr	r3, [r7, #4]
 8003916:	2201      	movs	r2, #1
 8003918:	f883 2046 	strb.w	r2, [r3, #70]	@ 0x46

  /* Initialize the TIM channels state */
  TIM_CHANNEL_STATE_SET_ALL(htim, HAL_TIM_CHANNEL_STATE_READY);
 800391c:	687b      	ldr	r3, [r7, #4]
 800391e:	2201      	movs	r2, #1
 8003920:	f883 203e 	strb.w	r2, [r3, #62]	@ 0x3e
 8003924:	687b      	ldr	r3, [r7, #4]
 8003926:	2201      	movs	r2, #1
 8003928:	f883 203f 	strb.w	r2, [r3, #63]	@ 0x3f
 800392c:	687b      	ldr	r3, [r7, #4]
 800392e:	2201      	movs	r2, #1
 8003930:	f883 2040 	strb.w	r2, [r3, #64]	@ 0x40
 8003934:	687b      	ldr	r3, [r7, #4]
 8003936:	2201      	movs	r2, #1
 8003938:	f883 2041 	strb.w	r2, [r3, #65]	@ 0x41
  TIM_CHANNEL_N_STATE_SET_ALL(htim, HAL_TIM_CHANNEL_STATE_READY);
 800393c:	687b      	ldr	r3, [r7, #4]
 800393e:	2201      	movs	r2, #1
 8003940:	f883 2042 	strb.w	r2, [r3, #66]	@ 0x42
 8003944:	687b      	ldr	r3, [r7, #4]
 8003946:	2201      	movs	r2, #1
 8003948:	f883 2043 	strb.w	r2, [r3, #67]	@ 0x43
 800394c:	687b      	ldr	r3, [r7, #4]
 800394e:	2201      	movs	r2, #1
 8003950:	f883 2044 	strb.w	r2, [r3, #68]	@ 0x44
 8003954:	687b      	ldr	r3, [r7, #4]
 8003956:	2201      	movs	r2, #1
 8003958:	f883 2045 	strb.w	r2, [r3, #69]	@ 0x45

  /* Initialize the TIM state*/
  htim->State = HAL_TIM_STATE_READY;
 800395c:	687b      	ldr	r3, [r7, #4]
 800395e:	2201      	movs	r2, #1
 8003960:	f883 203d 	strb.w	r2, [r3, #61]	@ 0x3d

  return HAL_OK;
 8003964:	2300      	movs	r3, #0
}
 8003966:	4618      	mov	r0, r3
 8003968:	3708      	adds	r7, #8
 800396a:	46bd      	mov	sp, r7
 800396c:	bd80      	pop	{r7, pc}

0800396e <HAL_TIM_PWM_Init>:
  *         Ex: call @ref HAL_TIM_PWM_DeInit() before HAL_TIM_PWM_Init()
  * @param  htim TIM PWM handle
  * @retval HAL status
  */
HAL_StatusTypeDef HAL_TIM_PWM_Init(TIM_HandleTypeDef *htim)
{
 800396e:	b580      	push	{r7, lr}
 8003970:	b082      	sub	sp, #8
 8003972:	af00      	add	r7, sp, #0
 8003974:	6078      	str	r0, [r7, #4]
  /* Check the TIM handle allocation */
  if (htim == NULL)
 8003976:	687b      	ldr	r3, [r7, #4]
 8003978:	2b00      	cmp	r3, #0
 800397a:	d101      	bne.n	8003980 <HAL_TIM_PWM_Init+0x12>
  {
    return HAL_ERROR;
 800397c:	2301      	movs	r3, #1
 800397e:	e041      	b.n	8003a04 <HAL_TIM_PWM_Init+0x96>
  assert_param(IS_TIM_COUNTER_MODE(htim->Init.CounterMode));
  assert_param(IS_TIM_CLOCKDIVISION_DIV(htim->Init.ClockDivision));
  assert_param(IS_TIM_PERIOD(htim, htim->Init.Period));
  assert_param(IS_TIM_AUTORELOAD_PRELOAD(htim->Init.AutoReloadPreload));

  if (htim->State == HAL_TIM_STATE_RESET)
 8003980:	687b      	ldr	r3, [r7, #4]
 8003982:	f893 303d 	ldrb.w	r3, [r3, #61]	@ 0x3d
 8003986:	b2db      	uxtb	r3, r3
 8003988:	2b00      	cmp	r3, #0
 800398a:	d106      	bne.n	800399a <HAL_TIM_PWM_Init+0x2c>
  {
    /* Allocate lock resource and initialize it */
    htim->Lock = HAL_UNLOCKED;
 800398c:	687b      	ldr	r3, [r7, #4]
 800398e:	2200      	movs	r2, #0
 8003990:	f883 203c 	strb.w	r2, [r3, #60]	@ 0x3c
    }
    /* Init the low level hardware : GPIO, CLOCK, NVIC */
    htim->PWM_MspInitCallback(htim);
#else
    /* Init the low level hardware : GPIO, CLOCK, NVIC and DMA */
    HAL_TIM_PWM_MspInit(htim);
 8003994:	6878      	ldr	r0, [r7, #4]
 8003996:	f000 f839 	bl	8003a0c <HAL_TIM_PWM_MspInit>
#endif /* USE_HAL_TIM_REGISTER_CALLBACKS */
  }

  /* Set the TIM state */
  htim->State = HAL_TIM_STATE_BUSY;
 800399a:	687b      	ldr	r3, [r7, #4]
 800399c:	2202      	movs	r2, #2
 800399e:	f883 203d 	strb.w	r2, [r3, #61]	@ 0x3d

  /* Init the base time for the PWM */
  TIM_Base_SetConfig(htim->Instance, &htim->Init);
 80039a2:	687b      	ldr	r3, [r7, #4]
 80039a4:	681a      	ldr	r2, [r3, #0]
 80039a6:	687b      	ldr	r3, [r7, #4]
 80039a8:	3304      	adds	r3, #4
 80039aa:	4619      	mov	r1, r3
 80039ac:	4610      	mov	r0, r2
 80039ae:	f000 f9c1 	bl	8003d34 <TIM_Base_SetConfig>

  /* Initialize the DMA burst operation state */
  htim->DMABurstState = HAL_DMA_BURST_STATE_READY;
 80039b2:	687b      	ldr	r3, [r7, #4]
 80039b4:	2201      	movs	r2, #1
 80039b6:	f883 2046 	strb.w	r2, [r3, #70]	@ 0x46

  /* Initialize the TIM channels state */
  TIM_CHANNEL_STATE_SET_ALL(htim, HAL_TIM_CHANNEL_STATE_READY);
 80039ba:	687b      	ldr	r3, [r7, #4]
 80039bc:	2201      	movs	r2, #1
 80039be:	f883 203e 	strb.w	r2, [r3, #62]	@ 0x3e
 80039c2:	687b      	ldr	r3, [r7, #4]
 80039c4:	2201      	movs	r2, #1
 80039c6:	f883 203f 	strb.w	r2, [r3, #63]	@ 0x3f
 80039ca:	687b      	ldr	r3, [r7, #4]
 80039cc:	2201      	movs	r2, #1
 80039ce:	f883 2040 	strb.w	r2, [r3, #64]	@ 0x40
 80039d2:	687b      	ldr	r3, [r7, #4]
 80039d4:	2201      	movs	r2, #1
 80039d6:	f883 2041 	strb.w	r2, [r3, #65]	@ 0x41
  TIM_CHANNEL_N_STATE_SET_ALL(htim, HAL_TIM_CHANNEL_STATE_READY);
 80039da:	687b      	ldr	r3, [r7, #4]
 80039dc:	2201      	movs	r2, #1
 80039de:	f883 2042 	strb.w	r2, [r3, #66]	@ 0x42
 80039e2:	687b      	ldr	r3, [r7, #4]
 80039e4:	2201      	movs	r2, #1
 80039e6:	f883 2043 	strb.w	r2, [r3, #67]	@ 0x43
 80039ea:	687b      	ldr	r3, [r7, #4]
 80039ec:	2201      	movs	r2, #1
 80039ee:	f883 2044 	strb.w	r2, [r3, #68]	@ 0x44
 80039f2:	687b      	ldr	r3, [r7, #4]
 80039f4:	2201      	movs	r2, #1
 80039f6:	f883 2045 	strb.w	r2, [r3, #69]	@ 0x45

  /* Initialize the TIM state*/
  htim->State = HAL_TIM_STATE_READY;
 80039fa:	687b      	ldr	r3, [r7, #4]
 80039fc:	2201      	movs	r2, #1
 80039fe:	f883 203d 	strb.w	r2, [r3, #61]	@ 0x3d

  return HAL_OK;
 8003a02:	2300      	movs	r3, #0
}
 8003a04:	4618      	mov	r0, r3
 8003a06:	3708      	adds	r7, #8
 8003a08:	46bd      	mov	sp, r7
 8003a0a:	bd80      	pop	{r7, pc}

08003a0c <HAL_TIM_PWM_MspInit>:
  * @brief  Initializes the TIM PWM MSP.
  * @param  htim TIM PWM handle
  * @retval None
  */
__weak void HAL_TIM_PWM_MspInit(TIM_HandleTypeDef *htim)
{
 8003a0c:	b480      	push	{r7}
 8003a0e:	b083      	sub	sp, #12
 8003a10:	af00      	add	r7, sp, #0
 8003a12:	6078      	str	r0, [r7, #4]
  UNUSED(htim);

  /* NOTE : This function should not be modified, when the callback is needed,
            the HAL_TIM_PWM_MspInit could be implemented in the user file
   */
}
 8003a14:	bf00      	nop
 8003a16:	370c      	adds	r7, #12
 8003a18:	46bd      	mov	sp, r7
 8003a1a:	f85d 7b04 	ldr.w	r7, [sp], #4
 8003a1e:	4770      	bx	lr

08003a20 <HAL_TIM_PWM_ConfigChannel>:
  * @retval HAL status
  */
HAL_StatusTypeDef HAL_TIM_PWM_ConfigChannel(TIM_HandleTypeDef *htim,
                                            const TIM_OC_InitTypeDef *sConfig,
                                            uint32_t Channel)
{
 8003a20:	b580      	push	{r7, lr}
 8003a22:	b086      	sub	sp, #24
 8003a24:	af00      	add	r7, sp, #0
 8003a26:	60f8      	str	r0, [r7, #12]
 8003a28:	60b9      	str	r1, [r7, #8]
 8003a2a:	607a      	str	r2, [r7, #4]
  HAL_StatusTypeDef status = HAL_OK;
 8003a2c:	2300      	movs	r3, #0
 8003a2e:	75fb      	strb	r3, [r7, #23]
  assert_param(IS_TIM_PWM_MODE(sConfig->OCMode));
  assert_param(IS_TIM_OC_POLARITY(sConfig->OCPolarity));
  assert_param(IS_TIM_FAST_STATE(sConfig->OCFastMode));

  /* Process Locked */
  __HAL_LOCK(htim);
 8003a30:	68fb      	ldr	r3, [r7, #12]
 8003a32:	f893 303c 	ldrb.w	r3, [r3, #60]	@ 0x3c
 8003a36:	2b01      	cmp	r3, #1
 8003a38:	d101      	bne.n	8003a3e <HAL_TIM_PWM_ConfigChannel+0x1e>
 8003a3a:	2302      	movs	r3, #2
 8003a3c:	e0ae      	b.n	8003b9c <HAL_TIM_PWM_ConfigChannel+0x17c>
 8003a3e:	68fb      	ldr	r3, [r7, #12]
 8003a40:	2201      	movs	r2, #1
 8003a42:	f883 203c 	strb.w	r2, [r3, #60]	@ 0x3c

  switch (Channel)
 8003a46:	687b      	ldr	r3, [r7, #4]
 8003a48:	2b0c      	cmp	r3, #12
 8003a4a:	f200 809f 	bhi.w	8003b8c <HAL_TIM_PWM_ConfigChannel+0x16c>
 8003a4e:	a201      	add	r2, pc, #4	@ (adr r2, 8003a54 <HAL_TIM_PWM_ConfigChannel+0x34>)
 8003a50:	f852 f023 	ldr.w	pc, [r2, r3, lsl #2]
 8003a54:	08003a89 	.word	0x08003a89
 8003a58:	08003b8d 	.word	0x08003b8d
 8003a5c:	08003b8d 	.word	0x08003b8d
 8003a60:	08003b8d 	.word	0x08003b8d
 8003a64:	08003ac9 	.word	0x08003ac9
 8003a68:	08003b8d 	.word	0x08003b8d
 8003a6c:	08003b8d 	.word	0x08003b8d
 8003a70:	08003b8d 	.word	0x08003b8d
 8003a74:	08003b0b 	.word	0x08003b0b
 8003a78:	08003b8d 	.word	0x08003b8d
 8003a7c:	08003b8d 	.word	0x08003b8d
 8003a80:	08003b8d 	.word	0x08003b8d
 8003a84:	08003b4b 	.word	0x08003b4b
    {
      /* Check the parameters */
      assert_param(IS_TIM_CC1_INSTANCE(htim->Instance));

      /* Configure the Channel 1 in PWM mode */
      TIM_OC1_SetConfig(htim->Instance, sConfig);
 8003a88:	68fb      	ldr	r3, [r7, #12]
 8003a8a:	681b      	ldr	r3, [r3, #0]
 8003a8c:	68b9      	ldr	r1, [r7, #8]
 8003a8e:	4618      	mov	r0, r3
 8003a90:	f000 f9fc 	bl	8003e8c <TIM_OC1_SetConfig>

      /* Set the Preload enable bit for channel1 */
      htim->Instance->CCMR1 |= TIM_CCMR1_OC1PE;
 8003a94:	68fb      	ldr	r3, [r7, #12]
 8003a96:	681b      	ldr	r3, [r3, #0]
 8003a98:	699a      	ldr	r2, [r3, #24]
 8003a9a:	68fb      	ldr	r3, [r7, #12]
 8003a9c:	681b      	ldr	r3, [r3, #0]
 8003a9e:	f042 0208 	orr.w	r2, r2, #8
 8003aa2:	619a      	str	r2, [r3, #24]

      /* Configure the Output Fast mode */
      htim->Instance->CCMR1 &= ~TIM_CCMR1_OC1FE;
 8003aa4:	68fb      	ldr	r3, [r7, #12]
 8003aa6:	681b      	ldr	r3, [r3, #0]
 8003aa8:	699a      	ldr	r2, [r3, #24]
 8003aaa:	68fb      	ldr	r3, [r7, #12]
 8003aac:	681b      	ldr	r3, [r3, #0]
 8003aae:	f022 0204 	bic.w	r2, r2, #4
 8003ab2:	619a      	str	r2, [r3, #24]
      htim->Instance->CCMR1 |= sConfig->OCFastMode;
 8003ab4:	68fb      	ldr	r3, [r7, #12]
 8003ab6:	681b      	ldr	r3, [r3, #0]
 8003ab8:	6999      	ldr	r1, [r3, #24]
 8003aba:	68bb      	ldr	r3, [r7, #8]
 8003abc:	691a      	ldr	r2, [r3, #16]
 8003abe:	68fb      	ldr	r3, [r7, #12]
 8003ac0:	681b      	ldr	r3, [r3, #0]
 8003ac2:	430a      	orrs	r2, r1
 8003ac4:	619a      	str	r2, [r3, #24]
      break;
 8003ac6:	e064      	b.n	8003b92 <HAL_TIM_PWM_ConfigChannel+0x172>
    {
      /* Check the parameters */
      assert_param(IS_TIM_CC2_INSTANCE(htim->Instance));

      /* Configure the Channel 2 in PWM mode */
      TIM_OC2_SetConfig(htim->Instance, sConfig);
 8003ac8:	68fb      	ldr	r3, [r7, #12]
 8003aca:	681b      	ldr	r3, [r3, #0]
 8003acc:	68b9      	ldr	r1, [r7, #8]
 8003ace:	4618      	mov	r0, r3
 8003ad0:	f000 fa4c 	bl	8003f6c <TIM_OC2_SetConfig>

      /* Set the Preload enable bit for channel2 */
      htim->Instance->CCMR1 |= TIM_CCMR1_OC2PE;
 8003ad4:	68fb      	ldr	r3, [r7, #12]
 8003ad6:	681b      	ldr	r3, [r3, #0]
 8003ad8:	699a      	ldr	r2, [r3, #24]
 8003ada:	68fb      	ldr	r3, [r7, #12]
 8003adc:	681b      	ldr	r3, [r3, #0]
 8003ade:	f442 6200 	orr.w	r2, r2, #2048	@ 0x800
 8003ae2:	619a      	str	r2, [r3, #24]

      /* Configure the Output Fast mode */
      htim->Instance->CCMR1 &= ~TIM_CCMR1_OC2FE;
 8003ae4:	68fb      	ldr	r3, [r7, #12]
 8003ae6:	681b      	ldr	r3, [r3, #0]
 8003ae8:	699a      	ldr	r2, [r3, #24]
 8003aea:	68fb      	ldr	r3, [r7, #12]
 8003aec:	681b      	ldr	r3, [r3, #0]
 8003aee:	f422 6280 	bic.w	r2, r2, #1024	@ 0x400
 8003af2:	619a      	str	r2, [r3, #24]
      htim->Instance->CCMR1 |= sConfig->OCFastMode << 8U;
 8003af4:	68fb      	ldr	r3, [r7, #12]
 8003af6:	681b      	ldr	r3, [r3, #0]
 8003af8:	6999      	ldr	r1, [r3, #24]
 8003afa:	68bb      	ldr	r3, [r7, #8]
 8003afc:	691b      	ldr	r3, [r3, #16]
 8003afe:	021a      	lsls	r2, r3, #8
 8003b00:	68fb      	ldr	r3, [r7, #12]
 8003b02:	681b      	ldr	r3, [r3, #0]
 8003b04:	430a      	orrs	r2, r1
 8003b06:	619a      	str	r2, [r3, #24]
      break;
 8003b08:	e043      	b.n	8003b92 <HAL_TIM_PWM_ConfigChannel+0x172>
    {
      /* Check the parameters */
      assert_param(IS_TIM_CC3_INSTANCE(htim->Instance));

      /* Configure the Channel 3 in PWM mode */
      TIM_OC3_SetConfig(htim->Instance, sConfig);
 8003b0a:	68fb      	ldr	r3, [r7, #12]
 8003b0c:	681b      	ldr	r3, [r3, #0]
 8003b0e:	68b9      	ldr	r1, [r7, #8]
 8003b10:	4618      	mov	r0, r3
 8003b12:	f000 faa1 	bl	8004058 <TIM_OC3_SetConfig>

      /* Set the Preload enable bit for channel3 */
      htim->Instance->CCMR2 |= TIM_CCMR2_OC3PE;
 8003b16:	68fb      	ldr	r3, [r7, #12]
 8003b18:	681b      	ldr	r3, [r3, #0]
 8003b1a:	69da      	ldr	r2, [r3, #28]
 8003b1c:	68fb      	ldr	r3, [r7, #12]
 8003b1e:	681b      	ldr	r3, [r3, #0]
 8003b20:	f042 0208 	orr.w	r2, r2, #8
 8003b24:	61da      	str	r2, [r3, #28]

      /* Configure the Output Fast mode */
      htim->Instance->CCMR2 &= ~TIM_CCMR2_OC3FE;
 8003b26:	68fb      	ldr	r3, [r7, #12]
 8003b28:	681b      	ldr	r3, [r3, #0]
 8003b2a:	69da      	ldr	r2, [r3, #28]
 8003b2c:	68fb      	ldr	r3, [r7, #12]
 8003b2e:	681b      	ldr	r3, [r3, #0]
 8003b30:	f022 0204 	bic.w	r2, r2, #4
 8003b34:	61da      	str	r2, [r3, #28]
      htim->Instance->CCMR2 |= sConfig->OCFastMode;
 8003b36:	68fb      	ldr	r3, [r7, #12]
 8003b38:	681b      	ldr	r3, [r3, #0]
 8003b3a:	69d9      	ldr	r1, [r3, #28]
 8003b3c:	68bb      	ldr	r3, [r7, #8]
 8003b3e:	691a      	ldr	r2, [r3, #16]
 8003b40:	68fb      	ldr	r3, [r7, #12]
 8003b42:	681b      	ldr	r3, [r3, #0]
 8003b44:	430a      	orrs	r2, r1
 8003b46:	61da      	str	r2, [r3, #28]
      break;
 8003b48:	e023      	b.n	8003b92 <HAL_TIM_PWM_ConfigChannel+0x172>
    {
      /* Check the parameters */
      assert_param(IS_TIM_CC4_INSTANCE(htim->Instance));

      /* Configure the Channel 4 in PWM mode */
      TIM_OC4_SetConfig(htim->Instance, sConfig);
 8003b4a:	68fb      	ldr	r3, [r7, #12]
 8003b4c:	681b      	ldr	r3, [r3, #0]
 8003b4e:	68b9      	ldr	r1, [r7, #8]
 8003b50:	4618      	mov	r0, r3
 8003b52:	f000 faf5 	bl	8004140 <TIM_OC4_SetConfig>

      /* Set the Preload enable bit for channel4 */
      htim->Instance->CCMR2 |= TIM_CCMR2_OC4PE;
 8003b56:	68fb      	ldr	r3, [r7, #12]
 8003b58:	681b      	ldr	r3, [r3, #0]
 8003b5a:	69da      	ldr	r2, [r3, #28]
 8003b5c:	68fb      	ldr	r3, [r7, #12]
 8003b5e:	681b      	ldr	r3, [r3, #0]
 8003b60:	f442 6200 	orr.w	r2, r2, #2048	@ 0x800
 8003b64:	61da      	str	r2, [r3, #28]

      /* Configure the Output Fast mode */
      htim->Instance->CCMR2 &= ~TIM_CCMR2_OC4FE;
 8003b66:	68fb      	ldr	r3, [r7, #12]
 8003b68:	681b      	ldr	r3, [r3, #0]
 8003b6a:	69da      	ldr	r2, [r3, #28]
 8003b6c:	68fb      	ldr	r3, [r7, #12]
 8003b6e:	681b      	ldr	r3, [r3, #0]
 8003b70:	f422 6280 	bic.w	r2, r2, #1024	@ 0x400
 8003b74:	61da      	str	r2, [r3, #28]
      htim->Instance->CCMR2 |= sConfig->OCFastMode << 8U;
 8003b76:	68fb      	ldr	r3, [r7, #12]
 8003b78:	681b      	ldr	r3, [r3, #0]
 8003b7a:	69d9      	ldr	r1, [r3, #28]
 8003b7c:	68bb      	ldr	r3, [r7, #8]
 8003b7e:	691b      	ldr	r3, [r3, #16]
 8003b80:	021a      	lsls	r2, r3, #8
 8003b82:	68fb      	ldr	r3, [r7, #12]
 8003b84:	681b      	ldr	r3, [r3, #0]
 8003b86:	430a      	orrs	r2, r1
 8003b88:	61da      	str	r2, [r3, #28]
      break;
 8003b8a:	e002      	b.n	8003b92 <HAL_TIM_PWM_ConfigChannel+0x172>
    }

    default:
      status = HAL_ERROR;
 8003b8c:	2301      	movs	r3, #1
 8003b8e:	75fb      	strb	r3, [r7, #23]
      break;
 8003b90:	bf00      	nop
  }

  __HAL_UNLOCK(htim);
 8003b92:	68fb      	ldr	r3, [r7, #12]
 8003b94:	2200      	movs	r2, #0
 8003b96:	f883 203c 	strb.w	r2, [r3, #60]	@ 0x3c

  return status;
 8003b9a:	7dfb      	ldrb	r3, [r7, #23]
}
 8003b9c:	4618      	mov	r0, r3
 8003b9e:	3718      	adds	r7, #24
 8003ba0:	46bd      	mov	sp, r7
 8003ba2:	bd80      	pop	{r7, pc}

08003ba4 <HAL_TIM_ConfigClockSource>:
  * @param  sClockSourceConfig pointer to a TIM_ClockConfigTypeDef structure that
  *         contains the clock source information for the TIM peripheral.
  * @retval HAL status
  */
HAL_StatusTypeDef HAL_TIM_ConfigClockSource(TIM_HandleTypeDef *htim, const TIM_ClockConfigTypeDef *sClockSourceConfig)
{
 8003ba4:	b580      	push	{r7, lr}
 8003ba6:	b084      	sub	sp, #16
 8003ba8:	af00      	add	r7, sp, #0
 8003baa:	6078      	str	r0, [r7, #4]
 8003bac:	6039      	str	r1, [r7, #0]
  HAL_StatusTypeDef status = HAL_OK;
 8003bae:	2300      	movs	r3, #0
 8003bb0:	73fb      	strb	r3, [r7, #15]
  uint32_t tmpsmcr;

  /* Process Locked */
  __HAL_LOCK(htim);
 8003bb2:	687b      	ldr	r3, [r7, #4]
 8003bb4:	f893 303c 	ldrb.w	r3, [r3, #60]	@ 0x3c
 8003bb8:	2b01      	cmp	r3, #1
 8003bba:	d101      	bne.n	8003bc0 <HAL_TIM_ConfigClockSource+0x1c>
 8003bbc:	2302      	movs	r3, #2
 8003bbe:	e0b4      	b.n	8003d2a <HAL_TIM_ConfigClockSource+0x186>
 8003bc0:	687b      	ldr	r3, [r7, #4]
 8003bc2:	2201      	movs	r2, #1
 8003bc4:	f883 203c 	strb.w	r2, [r3, #60]	@ 0x3c

  htim->State = HAL_TIM_STATE_BUSY;
 8003bc8:	687b      	ldr	r3, [r7, #4]
 8003bca:	2202      	movs	r2, #2
 8003bcc:	f883 203d 	strb.w	r2, [r3, #61]	@ 0x3d

  /* Check the parameters */
  assert_param(IS_TIM_CLOCKSOURCE(sClockSourceConfig->ClockSource));

  /* Reset the SMS, TS, ECE, ETPS and ETRF bits */
  tmpsmcr = htim->Instance->SMCR;
 8003bd0:	687b      	ldr	r3, [r7, #4]
 8003bd2:	681b      	ldr	r3, [r3, #0]
 8003bd4:	689b      	ldr	r3, [r3, #8]
 8003bd6:	60bb      	str	r3, [r7, #8]
  tmpsmcr &= ~(TIM_SMCR_SMS | TIM_SMCR_TS);
 8003bd8:	68bb      	ldr	r3, [r7, #8]
 8003bda:	f023 0377 	bic.w	r3, r3, #119	@ 0x77
 8003bde:	60bb      	str	r3, [r7, #8]
  tmpsmcr &= ~(TIM_SMCR_ETF | TIM_SMCR_ETPS | TIM_SMCR_ECE | TIM_SMCR_ETP);
 8003be0:	68bb      	ldr	r3, [r7, #8]
 8003be2:	f423 437f 	bic.w	r3, r3, #65280	@ 0xff00
 8003be6:	60bb      	str	r3, [r7, #8]
  htim->Instance->SMCR = tmpsmcr;
 8003be8:	687b      	ldr	r3, [r7, #4]
 8003bea:	681b      	ldr	r3, [r3, #0]
 8003bec:	68ba      	ldr	r2, [r7, #8]
 8003bee:	609a      	str	r2, [r3, #8]

  switch (sClockSourceConfig->ClockSource)
 8003bf0:	683b      	ldr	r3, [r7, #0]
 8003bf2:	681b      	ldr	r3, [r3, #0]
 8003bf4:	f5b3 5f00 	cmp.w	r3, #8192	@ 0x2000
 8003bf8:	d03e      	beq.n	8003c78 <HAL_TIM_ConfigClockSource+0xd4>
 8003bfa:	f5b3 5f00 	cmp.w	r3, #8192	@ 0x2000
 8003bfe:	f200 8087 	bhi.w	8003d10 <HAL_TIM_ConfigClockSource+0x16c>
 8003c02:	f5b3 5f80 	cmp.w	r3, #4096	@ 0x1000
 8003c06:	f000 8086 	beq.w	8003d16 <HAL_TIM_ConfigClockSource+0x172>
 8003c0a:	f5b3 5f80 	cmp.w	r3, #4096	@ 0x1000
 8003c0e:	d87f      	bhi.n	8003d10 <HAL_TIM_ConfigClockSource+0x16c>
 8003c10:	2b70      	cmp	r3, #112	@ 0x70
 8003c12:	d01a      	beq.n	8003c4a <HAL_TIM_ConfigClockSource+0xa6>
 8003c14:	2b70      	cmp	r3, #112	@ 0x70
 8003c16:	d87b      	bhi.n	8003d10 <HAL_TIM_ConfigClockSource+0x16c>
 8003c18:	2b60      	cmp	r3, #96	@ 0x60
 8003c1a:	d050      	beq.n	8003cbe <HAL_TIM_ConfigClockSource+0x11a>
 8003c1c:	2b60      	cmp	r3, #96	@ 0x60
 8003c1e:	d877      	bhi.n	8003d10 <HAL_TIM_ConfigClockSource+0x16c>
 8003c20:	2b50      	cmp	r3, #80	@ 0x50
 8003c22:	d03c      	beq.n	8003c9e <HAL_TIM_ConfigClockSource+0xfa>
 8003c24:	2b50      	cmp	r3, #80	@ 0x50
 8003c26:	d873      	bhi.n	8003d10 <HAL_TIM_ConfigClockSource+0x16c>
 8003c28:	2b40      	cmp	r3, #64	@ 0x40
 8003c2a:	d058      	beq.n	8003cde <HAL_TIM_ConfigClockSource+0x13a>
 8003c2c:	2b40      	cmp	r3, #64	@ 0x40
 8003c2e:	d86f      	bhi.n	8003d10 <HAL_TIM_ConfigClockSource+0x16c>
 8003c30:	2b30      	cmp	r3, #48	@ 0x30
 8003c32:	d064      	beq.n	8003cfe <HAL_TIM_ConfigClockSource+0x15a>
 8003c34:	2b30      	cmp	r3, #48	@ 0x30
 8003c36:	d86b      	bhi.n	8003d10 <HAL_TIM_ConfigClockSource+0x16c>
 8003c38:	2b20      	cmp	r3, #32
 8003c3a:	d060      	beq.n	8003cfe <HAL_TIM_ConfigClockSource+0x15a>
 8003c3c:	2b20      	cmp	r3, #32
 8003c3e:	d867      	bhi.n	8003d10 <HAL_TIM_ConfigClockSource+0x16c>
 8003c40:	2b00      	cmp	r3, #0
 8003c42:	d05c      	beq.n	8003cfe <HAL_TIM_ConfigClockSource+0x15a>
 8003c44:	2b10      	cmp	r3, #16
 8003c46:	d05a      	beq.n	8003cfe <HAL_TIM_ConfigClockSource+0x15a>
 8003c48:	e062      	b.n	8003d10 <HAL_TIM_ConfigClockSource+0x16c>
      assert_param(IS_TIM_CLOCKPRESCALER(sClockSourceConfig->ClockPrescaler));
      assert_param(IS_TIM_CLOCKPOLARITY(sClockSourceConfig->ClockPolarity));
      assert_param(IS_TIM_CLOCKFILTER(sClockSourceConfig->ClockFilter));

      /* Configure the ETR Clock source */
      TIM_ETR_SetConfig(htim->Instance,
 8003c4a:	687b      	ldr	r3, [r7, #4]
 8003c4c:	6818      	ldr	r0, [r3, #0]
                        sClockSourceConfig->ClockPrescaler,
 8003c4e:	683b      	ldr	r3, [r7, #0]
 8003c50:	6899      	ldr	r1, [r3, #8]
                        sClockSourceConfig->ClockPolarity,
 8003c52:	683b      	ldr	r3, [r7, #0]
 8003c54:	685a      	ldr	r2, [r3, #4]
                        sClockSourceConfig->ClockFilter);
 8003c56:	683b      	ldr	r3, [r7, #0]
 8003c58:	68db      	ldr	r3, [r3, #12]
      TIM_ETR_SetConfig(htim->Instance,
 8003c5a:	f000 fb41 	bl	80042e0 <TIM_ETR_SetConfig>

      /* Select the External clock mode1 and the ETRF trigger */
      tmpsmcr = htim->Instance->SMCR;
 8003c5e:	687b      	ldr	r3, [r7, #4]
 8003c60:	681b      	ldr	r3, [r3, #0]
 8003c62:	689b      	ldr	r3, [r3, #8]
 8003c64:	60bb      	str	r3, [r7, #8]
      tmpsmcr |= (TIM_SLAVEMODE_EXTERNAL1 | TIM_CLOCKSOURCE_ETRMODE1);
 8003c66:	68bb      	ldr	r3, [r7, #8]
 8003c68:	f043 0377 	orr.w	r3, r3, #119	@ 0x77
 8003c6c:	60bb      	str	r3, [r7, #8]
      /* Write to TIMx SMCR */
      htim->Instance->SMCR = tmpsmcr;
 8003c6e:	687b      	ldr	r3, [r7, #4]
 8003c70:	681b      	ldr	r3, [r3, #0]
 8003c72:	68ba      	ldr	r2, [r7, #8]
 8003c74:	609a      	str	r2, [r3, #8]
      break;
 8003c76:	e04f      	b.n	8003d18 <HAL_TIM_ConfigClockSource+0x174>
      assert_param(IS_TIM_CLOCKPRESCALER(sClockSourceConfig->ClockPrescaler));
      assert_param(IS_TIM_CLOCKPOLARITY(sClockSourceConfig->ClockPolarity));
      assert_param(IS_TIM_CLOCKFILTER(sClockSourceConfig->ClockFilter));

      /* Configure the ETR Clock source */
      TIM_ETR_SetConfig(htim->Instance,
 8003c78:	687b      	ldr	r3, [r7, #4]
 8003c7a:	6818      	ldr	r0, [r3, #0]
                        sClockSourceConfig->ClockPrescaler,
 8003c7c:	683b      	ldr	r3, [r7, #0]
 8003c7e:	6899      	ldr	r1, [r3, #8]
                        sClockSourceConfig->ClockPolarity,
 8003c80:	683b      	ldr	r3, [r7, #0]
 8003c82:	685a      	ldr	r2, [r3, #4]
                        sClockSourceConfig->ClockFilter);
 8003c84:	683b      	ldr	r3, [r7, #0]
 8003c86:	68db      	ldr	r3, [r3, #12]
      TIM_ETR_SetConfig(htim->Instance,
 8003c88:	f000 fb2a 	bl	80042e0 <TIM_ETR_SetConfig>
      /* Enable the External clock mode2 */
      htim->Instance->SMCR |= TIM_SMCR_ECE;
 8003c8c:	687b      	ldr	r3, [r7, #4]
 8003c8e:	681b      	ldr	r3, [r3, #0]
 8003c90:	689a      	ldr	r2, [r3, #8]
 8003c92:	687b      	ldr	r3, [r7, #4]
 8003c94:	681b      	ldr	r3, [r3, #0]
 8003c96:	f442 4280 	orr.w	r2, r2, #16384	@ 0x4000
 8003c9a:	609a      	str	r2, [r3, #8]
      break;
 8003c9c:	e03c      	b.n	8003d18 <HAL_TIM_ConfigClockSource+0x174>

      /* Check TI1 input conditioning related parameters */
      assert_param(IS_TIM_CLOCKPOLARITY(sClockSourceConfig->ClockPolarity));
      assert_param(IS_TIM_CLOCKFILTER(sClockSourceConfig->ClockFilter));

      TIM_TI1_ConfigInputStage(htim->Instance,
 8003c9e:	687b      	ldr	r3, [r7, #4]
 8003ca0:	6818      	ldr	r0, [r3, #0]
                               sClockSourceConfig->ClockPolarity,
 8003ca2:	683b      	ldr	r3, [r7, #0]
 8003ca4:	6859      	ldr	r1, [r3, #4]
                               sClockSourceConfig->ClockFilter);
 8003ca6:	683b      	ldr	r3, [r7, #0]
 8003ca8:	68db      	ldr	r3, [r3, #12]
      TIM_TI1_ConfigInputStage(htim->Instance,
 8003caa:	461a      	mov	r2, r3
 8003cac:	f000 fa9e 	bl	80041ec <TIM_TI1_ConfigInputStage>
      TIM_ITRx_SetConfig(htim->Instance, TIM_CLOCKSOURCE_TI1);
 8003cb0:	687b      	ldr	r3, [r7, #4]
 8003cb2:	681b      	ldr	r3, [r3, #0]
 8003cb4:	2150      	movs	r1, #80	@ 0x50
 8003cb6:	4618      	mov	r0, r3
 8003cb8:	f000 faf7 	bl	80042aa <TIM_ITRx_SetConfig>
      break;
 8003cbc:	e02c      	b.n	8003d18 <HAL_TIM_ConfigClockSource+0x174>

      /* Check TI2 input conditioning related parameters */
      assert_param(IS_TIM_CLOCKPOLARITY(sClockSourceConfig->ClockPolarity));
      assert_param(IS_TIM_CLOCKFILTER(sClockSourceConfig->ClockFilter));

      TIM_TI2_ConfigInputStage(htim->Instance,
 8003cbe:	687b      	ldr	r3, [r7, #4]
 8003cc0:	6818      	ldr	r0, [r3, #0]
                               sClockSourceConfig->ClockPolarity,
 8003cc2:	683b      	ldr	r3, [r7, #0]
 8003cc4:	6859      	ldr	r1, [r3, #4]
                               sClockSourceConfig->ClockFilter);
 8003cc6:	683b      	ldr	r3, [r7, #0]
 8003cc8:	68db      	ldr	r3, [r3, #12]
      TIM_TI2_ConfigInputStage(htim->Instance,
 8003cca:	461a      	mov	r2, r3
 8003ccc:	f000 fabd 	bl	800424a <TIM_TI2_ConfigInputStage>
      TIM_ITRx_SetConfig(htim->Instance, TIM_CLOCKSOURCE_TI2);
 8003cd0:	687b      	ldr	r3, [r7, #4]
 8003cd2:	681b      	ldr	r3, [r3, #0]
 8003cd4:	2160      	movs	r1, #96	@ 0x60
 8003cd6:	4618      	mov	r0, r3
 8003cd8:	f000 fae7 	bl	80042aa <TIM_ITRx_SetConfig>
      break;
 8003cdc:	e01c      	b.n	8003d18 <HAL_TIM_ConfigClockSource+0x174>

      /* Check TI1 input conditioning related parameters */
      assert_param(IS_TIM_CLOCKPOLARITY(sClockSourceConfig->ClockPolarity));
      assert_param(IS_TIM_CLOCKFILTER(sClockSourceConfig->ClockFilter));

      TIM_TI1_ConfigInputStage(htim->Instance,
 8003cde:	687b      	ldr	r3, [r7, #4]
 8003ce0:	6818      	ldr	r0, [r3, #0]
                               sClockSourceConfig->ClockPolarity,
 8003ce2:	683b      	ldr	r3, [r7, #0]
 8003ce4:	6859      	ldr	r1, [r3, #4]
                               sClockSourceConfig->ClockFilter);
 8003ce6:	683b      	ldr	r3, [r7, #0]
 8003ce8:	68db      	ldr	r3, [r3, #12]
      TIM_TI1_ConfigInputStage(htim->Instance,
 8003cea:	461a      	mov	r2, r3
 8003cec:	f000 fa7e 	bl	80041ec <TIM_TI1_ConfigInputStage>
      TIM_ITRx_SetConfig(htim->Instance, TIM_CLOCKSOURCE_TI1ED);
 8003cf0:	687b      	ldr	r3, [r7, #4]
 8003cf2:	681b      	ldr	r3, [r3, #0]
 8003cf4:	2140      	movs	r1, #64	@ 0x40
 8003cf6:	4618      	mov	r0, r3
 8003cf8:	f000 fad7 	bl	80042aa <TIM_ITRx_SetConfig>
      break;
 8003cfc:	e00c      	b.n	8003d18 <HAL_TIM_ConfigClockSource+0x174>
    case TIM_CLOCKSOURCE_ITR3:
    {
      /* Check whether or not the timer instance supports internal trigger input */
      assert_param(IS_TIM_CLOCKSOURCE_ITRX_INSTANCE(htim->Instance));

      TIM_ITRx_SetConfig(htim->Instance, sClockSourceConfig->ClockSource);
 8003cfe:	687b      	ldr	r3, [r7, #4]
 8003d00:	681a      	ldr	r2, [r3, #0]
 8003d02:	683b      	ldr	r3, [r7, #0]
 8003d04:	681b      	ldr	r3, [r3, #0]
 8003d06:	4619      	mov	r1, r3
 8003d08:	4610      	mov	r0, r2
 8003d0a:	f000 face 	bl	80042aa <TIM_ITRx_SetConfig>
      break;
 8003d0e:	e003      	b.n	8003d18 <HAL_TIM_ConfigClockSource+0x174>
    }

    default:
      status = HAL_ERROR;
 8003d10:	2301      	movs	r3, #1
 8003d12:	73fb      	strb	r3, [r7, #15]
      break;
 8003d14:	e000      	b.n	8003d18 <HAL_TIM_ConfigClockSource+0x174>
      break;
 8003d16:	bf00      	nop
  }
  htim->State = HAL_TIM_STATE_READY;
 8003d18:	687b      	ldr	r3, [r7, #4]
 8003d1a:	2201      	movs	r2, #1
 8003d1c:	f883 203d 	strb.w	r2, [r3, #61]	@ 0x3d

  __HAL_UNLOCK(htim);
 8003d20:	687b      	ldr	r3, [r7, #4]
 8003d22:	2200      	movs	r2, #0
 8003d24:	f883 203c 	strb.w	r2, [r3, #60]	@ 0x3c

  return status;
 8003d28:	7bfb      	ldrb	r3, [r7, #15]
}
 8003d2a:	4618      	mov	r0, r3
 8003d2c:	3710      	adds	r7, #16
 8003d2e:	46bd      	mov	sp, r7
 8003d30:	bd80      	pop	{r7, pc}
	...

08003d34 <TIM_Base_SetConfig>:
  * @param  TIMx TIM peripheral
  * @param  Structure TIM Base configuration structure
  * @retval None
  */
void TIM_Base_SetConfig(TIM_TypeDef *TIMx, const TIM_Base_InitTypeDef *Structure)
{
 8003d34:	b480      	push	{r7}
 8003d36:	b085      	sub	sp, #20
 8003d38:	af00      	add	r7, sp, #0
 8003d3a:	6078      	str	r0, [r7, #4]
 8003d3c:	6039      	str	r1, [r7, #0]
  uint32_t tmpcr1;
  tmpcr1 = TIMx->CR1;
 8003d3e:	687b      	ldr	r3, [r7, #4]
 8003d40:	681b      	ldr	r3, [r3, #0]
 8003d42:	60fb      	str	r3, [r7, #12]

  /* Set TIM Time Base Unit parameters ---------------------------------------*/
  if (IS_TIM_COUNTER_MODE_SELECT_INSTANCE(TIMx))
 8003d44:	687b      	ldr	r3, [r7, #4]
 8003d46:	4a46      	ldr	r2, [pc, #280]	@ (8003e60 <TIM_Base_SetConfig+0x12c>)
 8003d48:	4293      	cmp	r3, r2
 8003d4a:	d013      	beq.n	8003d74 <TIM_Base_SetConfig+0x40>
 8003d4c:	687b      	ldr	r3, [r7, #4]
 8003d4e:	f1b3 4f80 	cmp.w	r3, #1073741824	@ 0x40000000
 8003d52:	d00f      	beq.n	8003d74 <TIM_Base_SetConfig+0x40>
 8003d54:	687b      	ldr	r3, [r7, #4]
 8003d56:	4a43      	ldr	r2, [pc, #268]	@ (8003e64 <TIM_Base_SetConfig+0x130>)
 8003d58:	4293      	cmp	r3, r2
 8003d5a:	d00b      	beq.n	8003d74 <TIM_Base_SetConfig+0x40>
 8003d5c:	687b      	ldr	r3, [r7, #4]
 8003d5e:	4a42      	ldr	r2, [pc, #264]	@ (8003e68 <TIM_Base_SetConfig+0x134>)
 8003d60:	4293      	cmp	r3, r2
 8003d62:	d007      	beq.n	8003d74 <TIM_Base_SetConfig+0x40>
 8003d64:	687b      	ldr	r3, [r7, #4]
 8003d66:	4a41      	ldr	r2, [pc, #260]	@ (8003e6c <TIM_Base_SetConfig+0x138>)
 8003d68:	4293      	cmp	r3, r2
 8003d6a:	d003      	beq.n	8003d74 <TIM_Base_SetConfig+0x40>
 8003d6c:	687b      	ldr	r3, [r7, #4]
 8003d6e:	4a40      	ldr	r2, [pc, #256]	@ (8003e70 <TIM_Base_SetConfig+0x13c>)
 8003d70:	4293      	cmp	r3, r2
 8003d72:	d108      	bne.n	8003d86 <TIM_Base_SetConfig+0x52>
  {
    /* Select the Counter Mode */
    tmpcr1 &= ~(TIM_CR1_DIR | TIM_CR1_CMS);
 8003d74:	68fb      	ldr	r3, [r7, #12]
 8003d76:	f023 0370 	bic.w	r3, r3, #112	@ 0x70
 8003d7a:	60fb      	str	r3, [r7, #12]
    tmpcr1 |= Structure->CounterMode;
 8003d7c:	683b      	ldr	r3, [r7, #0]
 8003d7e:	685b      	ldr	r3, [r3, #4]
 8003d80:	68fa      	ldr	r2, [r7, #12]
 8003d82:	4313      	orrs	r3, r2
 8003d84:	60fb      	str	r3, [r7, #12]
  }

  if (IS_TIM_CLOCK_DIVISION_INSTANCE(TIMx))
 8003d86:	687b      	ldr	r3, [r7, #4]
 8003d88:	4a35      	ldr	r2, [pc, #212]	@ (8003e60 <TIM_Base_SetConfig+0x12c>)
 8003d8a:	4293      	cmp	r3, r2
 8003d8c:	d02b      	beq.n	8003de6 <TIM_Base_SetConfig+0xb2>
 8003d8e:	687b      	ldr	r3, [r7, #4]
 8003d90:	f1b3 4f80 	cmp.w	r3, #1073741824	@ 0x40000000
 8003d94:	d027      	beq.n	8003de6 <TIM_Base_SetConfig+0xb2>
 8003d96:	687b      	ldr	r3, [r7, #4]
 8003d98:	4a32      	ldr	r2, [pc, #200]	@ (8003e64 <TIM_Base_SetConfig+0x130>)
 8003d9a:	4293      	cmp	r3, r2
 8003d9c:	d023      	beq.n	8003de6 <TIM_Base_SetConfig+0xb2>
 8003d9e:	687b      	ldr	r3, [r7, #4]
 8003da0:	4a31      	ldr	r2, [pc, #196]	@ (8003e68 <TIM_Base_SetConfig+0x134>)
 8003da2:	4293      	cmp	r3, r2
 8003da4:	d01f      	beq.n	8003de6 <TIM_Base_SetConfig+0xb2>
 8003da6:	687b      	ldr	r3, [r7, #4]
 8003da8:	4a30      	ldr	r2, [pc, #192]	@ (8003e6c <TIM_Base_SetConfig+0x138>)
 8003daa:	4293      	cmp	r3, r2
 8003dac:	d01b      	beq.n	8003de6 <TIM_Base_SetConfig+0xb2>
 8003dae:	687b      	ldr	r3, [r7, #4]
 8003db0:	4a2f      	ldr	r2, [pc, #188]	@ (8003e70 <TIM_Base_SetConfig+0x13c>)
 8003db2:	4293      	cmp	r3, r2
 8003db4:	d017      	beq.n	8003de6 <TIM_Base_SetConfig+0xb2>
 8003db6:	687b      	ldr	r3, [r7, #4]
 8003db8:	4a2e      	ldr	r2, [pc, #184]	@ (8003e74 <TIM_Base_SetConfig+0x140>)
 8003dba:	4293      	cmp	r3, r2
 8003dbc:	d013      	beq.n	8003de6 <TIM_Base_SetConfig+0xb2>
 8003dbe:	687b      	ldr	r3, [r7, #4]
 8003dc0:	4a2d      	ldr	r2, [pc, #180]	@ (8003e78 <TIM_Base_SetConfig+0x144>)
 8003dc2:	4293      	cmp	r3, r2
 8003dc4:	d00f      	beq.n	8003de6 <TIM_Base_SetConfig+0xb2>
 8003dc6:	687b      	ldr	r3, [r7, #4]
 8003dc8:	4a2c      	ldr	r2, [pc, #176]	@ (8003e7c <TIM_Base_SetConfig+0x148>)
 8003dca:	4293      	cmp	r3, r2
 8003dcc:	d00b      	beq.n	8003de6 <TIM_Base_SetConfig+0xb2>
 8003dce:	687b      	ldr	r3, [r7, #4]
 8003dd0:	4a2b      	ldr	r2, [pc, #172]	@ (8003e80 <TIM_Base_SetConfig+0x14c>)
 8003dd2:	4293      	cmp	r3, r2
 8003dd4:	d007      	beq.n	8003de6 <TIM_Base_SetConfig+0xb2>
 8003dd6:	687b      	ldr	r3, [r7, #4]
 8003dd8:	4a2a      	ldr	r2, [pc, #168]	@ (8003e84 <TIM_Base_SetConfig+0x150>)
 8003dda:	4293      	cmp	r3, r2
 8003ddc:	d003      	beq.n	8003de6 <TIM_Base_SetConfig+0xb2>
 8003dde:	687b      	ldr	r3, [r7, #4]
 8003de0:	4a29      	ldr	r2, [pc, #164]	@ (8003e88 <TIM_Base_SetConfig+0x154>)
 8003de2:	4293      	cmp	r3, r2
 8003de4:	d108      	bne.n	8003df8 <TIM_Base_SetConfig+0xc4>
  {
    /* Set the clock division */
    tmpcr1 &= ~TIM_CR1_CKD;
 8003de6:	68fb      	ldr	r3, [r7, #12]
 8003de8:	f423 7340 	bic.w	r3, r3, #768	@ 0x300
 8003dec:	60fb      	str	r3, [r7, #12]
    tmpcr1 |= (uint32_t)Structure->ClockDivision;
 8003dee:	683b      	ldr	r3, [r7, #0]
 8003df0:	68db      	ldr	r3, [r3, #12]
 8003df2:	68fa      	ldr	r2, [r7, #12]
 8003df4:	4313      	orrs	r3, r2
 8003df6:	60fb      	str	r3, [r7, #12]
  }

  /* Set the auto-reload preload */
  MODIFY_REG(tmpcr1, TIM_CR1_ARPE, Structure->AutoReloadPreload);
 8003df8:	68fb      	ldr	r3, [r7, #12]
 8003dfa:	f023 0280 	bic.w	r2, r3, #128	@ 0x80
 8003dfe:	683b      	ldr	r3, [r7, #0]
 8003e00:	695b      	ldr	r3, [r3, #20]
 8003e02:	4313      	orrs	r3, r2
 8003e04:	60fb      	str	r3, [r7, #12]

  TIMx->CR1 = tmpcr1;
 8003e06:	687b      	ldr	r3, [r7, #4]
 8003e08:	68fa      	ldr	r2, [r7, #12]
 8003e0a:	601a      	str	r2, [r3, #0]

  /* Set the Autoreload value */
  TIMx->ARR = (uint32_t)Structure->Period ;
 8003e0c:	683b      	ldr	r3, [r7, #0]
 8003e0e:	689a      	ldr	r2, [r3, #8]
 8003e10:	687b      	ldr	r3, [r7, #4]
 8003e12:	62da      	str	r2, [r3, #44]	@ 0x2c

  /* Set the Prescaler value */
  TIMx->PSC = Structure->Prescaler;
 8003e14:	683b      	ldr	r3, [r7, #0]
 8003e16:	681a      	ldr	r2, [r3, #0]
 8003e18:	687b      	ldr	r3, [r7, #4]
 8003e1a:	629a      	str	r2, [r3, #40]	@ 0x28

  if (IS_TIM_REPETITION_COUNTER_INSTANCE(TIMx))
 8003e1c:	687b      	ldr	r3, [r7, #4]
 8003e1e:	4a10      	ldr	r2, [pc, #64]	@ (8003e60 <TIM_Base_SetConfig+0x12c>)
 8003e20:	4293      	cmp	r3, r2
 8003e22:	d003      	beq.n	8003e2c <TIM_Base_SetConfig+0xf8>
 8003e24:	687b      	ldr	r3, [r7, #4]
 8003e26:	4a12      	ldr	r2, [pc, #72]	@ (8003e70 <TIM_Base_SetConfig+0x13c>)
 8003e28:	4293      	cmp	r3, r2
 8003e2a:	d103      	bne.n	8003e34 <TIM_Base_SetConfig+0x100>
  {
    /* Set the Repetition Counter value */
    TIMx->RCR = Structure->RepetitionCounter;
 8003e2c:	683b      	ldr	r3, [r7, #0]
 8003e2e:	691a      	ldr	r2, [r3, #16]
 8003e30:	687b      	ldr	r3, [r7, #4]
 8003e32:	631a      	str	r2, [r3, #48]	@ 0x30
  }

  /* Generate an update event to reload the Prescaler
     and the repetition counter (only for advanced timer) value immediately */
  TIMx->EGR = TIM_EGR_UG;
 8003e34:	687b      	ldr	r3, [r7, #4]
 8003e36:	2201      	movs	r2, #1
 8003e38:	615a      	str	r2, [r3, #20]

  /* Check if the update flag is set after the Update Generation, if so clear the UIF flag */
  if (HAL_IS_BIT_SET(TIMx->SR, TIM_FLAG_UPDATE))
 8003e3a:	687b      	ldr	r3, [r7, #4]
 8003e3c:	691b      	ldr	r3, [r3, #16]
 8003e3e:	f003 0301 	and.w	r3, r3, #1
 8003e42:	2b01      	cmp	r3, #1
 8003e44:	d105      	bne.n	8003e52 <TIM_Base_SetConfig+0x11e>
  {
    /* Clear the update flag */
    CLEAR_BIT(TIMx->SR, TIM_FLAG_UPDATE);
 8003e46:	687b      	ldr	r3, [r7, #4]
 8003e48:	691b      	ldr	r3, [r3, #16]
 8003e4a:	f023 0201 	bic.w	r2, r3, #1
 8003e4e:	687b      	ldr	r3, [r7, #4]
 8003e50:	611a      	str	r2, [r3, #16]
  }
}
 8003e52:	bf00      	nop
 8003e54:	3714      	adds	r7, #20
 8003e56:	46bd      	mov	sp, r7
 8003e58:	f85d 7b04 	ldr.w	r7, [sp], #4
 8003e5c:	4770      	bx	lr
 8003e5e:	bf00      	nop
 8003e60:	40010000 	.word	0x40010000
 8003e64:	40000400 	.word	0x40000400
 8003e68:	40000800 	.word	0x40000800
 8003e6c:	40000c00 	.word	0x40000c00
 8003e70:	40010400 	.word	0x40010400
 8003e74:	40014000 	.word	0x40014000
 8003e78:	40014400 	.word	0x40014400
 8003e7c:	40014800 	.word	0x40014800
 8003e80:	40001800 	.word	0x40001800
 8003e84:	40001c00 	.word	0x40001c00
 8003e88:	40002000 	.word	0x40002000

08003e8c <TIM_OC1_SetConfig>:
  * @param  TIMx to select the TIM peripheral
  * @param  OC_Config The output configuration structure
  * @retval None
  */
static void TIM_OC1_SetConfig(TIM_TypeDef *TIMx, const TIM_OC_InitTypeDef *OC_Config)
{
 8003e8c:	b480      	push	{r7}
 8003e8e:	b087      	sub	sp, #28
 8003e90:	af00      	add	r7, sp, #0
 8003e92:	6078      	str	r0, [r7, #4]
 8003e94:	6039      	str	r1, [r7, #0]
  uint32_t tmpccmrx;
  uint32_t tmpccer;
  uint32_t tmpcr2;

  /* Get the TIMx CCER register value */
  tmpccer = TIMx->CCER;
 8003e96:	687b      	ldr	r3, [r7, #4]
 8003e98:	6a1b      	ldr	r3, [r3, #32]
 8003e9a:	617b      	str	r3, [r7, #20]

  /* Disable the Channel 1: Reset the CC1E Bit */
  TIMx->CCER &= ~TIM_CCER_CC1E;
 8003e9c:	687b      	ldr	r3, [r7, #4]
 8003e9e:	6a1b      	ldr	r3, [r3, #32]
 8003ea0:	f023 0201 	bic.w	r2, r3, #1
 8003ea4:	687b      	ldr	r3, [r7, #4]
 8003ea6:	621a      	str	r2, [r3, #32]

  /* Get the TIMx CR2 register value */
  tmpcr2 =  TIMx->CR2;
 8003ea8:	687b      	ldr	r3, [r7, #4]
 8003eaa:	685b      	ldr	r3, [r3, #4]
 8003eac:	613b      	str	r3, [r7, #16]

  /* Get the TIMx CCMR1 register value */
  tmpccmrx = TIMx->CCMR1;
 8003eae:	687b      	ldr	r3, [r7, #4]
 8003eb0:	699b      	ldr	r3, [r3, #24]
 8003eb2:	60fb      	str	r3, [r7, #12]

  /* Reset the Output Compare Mode Bits */
  tmpccmrx &= ~TIM_CCMR1_OC1M;
 8003eb4:	68fb      	ldr	r3, [r7, #12]
 8003eb6:	f023 0370 	bic.w	r3, r3, #112	@ 0x70
 8003eba:	60fb      	str	r3, [r7, #12]
  tmpccmrx &= ~TIM_CCMR1_CC1S;
 8003ebc:	68fb      	ldr	r3, [r7, #12]
 8003ebe:	f023 0303 	bic.w	r3, r3, #3
 8003ec2:	60fb      	str	r3, [r7, #12]
  /* Select the Output Compare Mode */
  tmpccmrx |= OC_Config->OCMode;
 8003ec4:	683b      	ldr	r3, [r7, #0]
 8003ec6:	681b      	ldr	r3, [r3, #0]
 8003ec8:	68fa      	ldr	r2, [r7, #12]
 8003eca:	4313      	orrs	r3, r2
 8003ecc:	60fb      	str	r3, [r7, #12]

  /* Reset the Output Polarity level */
  tmpccer &= ~TIM_CCER_CC1P;
 8003ece:	697b      	ldr	r3, [r7, #20]
 8003ed0:	f023 0302 	bic.w	r3, r3, #2
 8003ed4:	617b      	str	r3, [r7, #20]
  /* Set the Output Compare Polarity */
  tmpccer |= OC_Config->OCPolarity;
 8003ed6:	683b      	ldr	r3, [r7, #0]
 8003ed8:	689b      	ldr	r3, [r3, #8]
 8003eda:	697a      	ldr	r2, [r7, #20]
 8003edc:	4313      	orrs	r3, r2
 8003ede:	617b      	str	r3, [r7, #20]

  if (IS_TIM_CCXN_INSTANCE(TIMx, TIM_CHANNEL_1))
 8003ee0:	687b      	ldr	r3, [r7, #4]
 8003ee2:	4a20      	ldr	r2, [pc, #128]	@ (8003f64 <TIM_OC1_SetConfig+0xd8>)
 8003ee4:	4293      	cmp	r3, r2
 8003ee6:	d003      	beq.n	8003ef0 <TIM_OC1_SetConfig+0x64>
 8003ee8:	687b      	ldr	r3, [r7, #4]
 8003eea:	4a1f      	ldr	r2, [pc, #124]	@ (8003f68 <TIM_OC1_SetConfig+0xdc>)
 8003eec:	4293      	cmp	r3, r2
 8003eee:	d10c      	bne.n	8003f0a <TIM_OC1_SetConfig+0x7e>
  {
    /* Check parameters */
    assert_param(IS_TIM_OCN_POLARITY(OC_Config->OCNPolarity));

    /* Reset the Output N Polarity level */
    tmpccer &= ~TIM_CCER_CC1NP;
 8003ef0:	697b      	ldr	r3, [r7, #20]
 8003ef2:	f023 0308 	bic.w	r3, r3, #8
 8003ef6:	617b      	str	r3, [r7, #20]
    /* Set the Output N Polarity */
    tmpccer |= OC_Config->OCNPolarity;
 8003ef8:	683b      	ldr	r3, [r7, #0]
 8003efa:	68db      	ldr	r3, [r3, #12]
 8003efc:	697a      	ldr	r2, [r7, #20]
 8003efe:	4313      	orrs	r3, r2
 8003f00:	617b      	str	r3, [r7, #20]
    /* Reset the Output N State */
    tmpccer &= ~TIM_CCER_CC1NE;
 8003f02:	697b      	ldr	r3, [r7, #20]
 8003f04:	f023 0304 	bic.w	r3, r3, #4
 8003f08:	617b      	str	r3, [r7, #20]
  }

  if (IS_TIM_BREAK_INSTANCE(TIMx))
 8003f0a:	687b      	ldr	r3, [r7, #4]
 8003f0c:	4a15      	ldr	r2, [pc, #84]	@ (8003f64 <TIM_OC1_SetConfig+0xd8>)
 8003f0e:	4293      	cmp	r3, r2
 8003f10:	d003      	beq.n	8003f1a <TIM_OC1_SetConfig+0x8e>
 8003f12:	687b      	ldr	r3, [r7, #4]
 8003f14:	4a14      	ldr	r2, [pc, #80]	@ (8003f68 <TIM_OC1_SetConfig+0xdc>)
 8003f16:	4293      	cmp	r3, r2
 8003f18:	d111      	bne.n	8003f3e <TIM_OC1_SetConfig+0xb2>
    /* Check parameters */
    assert_param(IS_TIM_OCNIDLE_STATE(OC_Config->OCNIdleState));
    assert_param(IS_TIM_OCIDLE_STATE(OC_Config->OCIdleState));

    /* Reset the Output Compare and Output Compare N IDLE State */
    tmpcr2 &= ~TIM_CR2_OIS1;
 8003f1a:	693b      	ldr	r3, [r7, #16]
 8003f1c:	f423 7380 	bic.w	r3, r3, #256	@ 0x100
 8003f20:	613b      	str	r3, [r7, #16]
    tmpcr2 &= ~TIM_CR2_OIS1N;
 8003f22:	693b      	ldr	r3, [r7, #16]
 8003f24:	f423 7300 	bic.w	r3, r3, #512	@ 0x200
 8003f28:	613b      	str	r3, [r7, #16]
    /* Set the Output Idle state */
    tmpcr2 |= OC_Config->OCIdleState;
 8003f2a:	683b      	ldr	r3, [r7, #0]
 8003f2c:	695b      	ldr	r3, [r3, #20]
 8003f2e:	693a      	ldr	r2, [r7, #16]
 8003f30:	4313      	orrs	r3, r2
 8003f32:	613b      	str	r3, [r7, #16]
    /* Set the Output N Idle state */
    tmpcr2 |= OC_Config->OCNIdleState;
 8003f34:	683b      	ldr	r3, [r7, #0]
 8003f36:	699b      	ldr	r3, [r3, #24]
 8003f38:	693a      	ldr	r2, [r7, #16]
 8003f3a:	4313      	orrs	r3, r2
 8003f3c:	613b      	str	r3, [r7, #16]
  }

  /* Write to TIMx CR2 */
  TIMx->CR2 = tmpcr2;
 8003f3e:	687b      	ldr	r3, [r7, #4]
 8003f40:	693a      	ldr	r2, [r7, #16]
 8003f42:	605a      	str	r2, [r3, #4]

  /* Write to TIMx CCMR1 */
  TIMx->CCMR1 = tmpccmrx;
 8003f44:	687b      	ldr	r3, [r7, #4]
 8003f46:	68fa      	ldr	r2, [r7, #12]
 8003f48:	619a      	str	r2, [r3, #24]

  /* Set the Capture Compare Register value */
  TIMx->CCR1 = OC_Config->Pulse;
 8003f4a:	683b      	ldr	r3, [r7, #0]
 8003f4c:	685a      	ldr	r2, [r3, #4]
 8003f4e:	687b      	ldr	r3, [r7, #4]
 8003f50:	635a      	str	r2, [r3, #52]	@ 0x34

  /* Write to TIMx CCER */
  TIMx->CCER = tmpccer;
 8003f52:	687b      	ldr	r3, [r7, #4]
 8003f54:	697a      	ldr	r2, [r7, #20]
 8003f56:	621a      	str	r2, [r3, #32]
}
 8003f58:	bf00      	nop
 8003f5a:	371c      	adds	r7, #28
 8003f5c:	46bd      	mov	sp, r7
 8003f5e:	f85d 7b04 	ldr.w	r7, [sp], #4
 8003f62:	4770      	bx	lr
 8003f64:	40010000 	.word	0x40010000
 8003f68:	40010400 	.word	0x40010400

08003f6c <TIM_OC2_SetConfig>:
  * @param  TIMx to select the TIM peripheral
  * @param  OC_Config The output configuration structure
  * @retval None
  */
void TIM_OC2_SetConfig(TIM_TypeDef *TIMx, const TIM_OC_InitTypeDef *OC_Config)
{
 8003f6c:	b480      	push	{r7}
 8003f6e:	b087      	sub	sp, #28
 8003f70:	af00      	add	r7, sp, #0
 8003f72:	6078      	str	r0, [r7, #4]
 8003f74:	6039      	str	r1, [r7, #0]
  uint32_t tmpccmrx;
  uint32_t tmpccer;
  uint32_t tmpcr2;

  /* Get the TIMx CCER register value */
  tmpccer = TIMx->CCER;
 8003f76:	687b      	ldr	r3, [r7, #4]
 8003f78:	6a1b      	ldr	r3, [r3, #32]
 8003f7a:	617b      	str	r3, [r7, #20]

  /* Disable the Channel 2: Reset the CC2E Bit */
  TIMx->CCER &= ~TIM_CCER_CC2E;
 8003f7c:	687b      	ldr	r3, [r7, #4]
 8003f7e:	6a1b      	ldr	r3, [r3, #32]
 8003f80:	f023 0210 	bic.w	r2, r3, #16
 8003f84:	687b      	ldr	r3, [r7, #4]
 8003f86:	621a      	str	r2, [r3, #32]

  /* Get the TIMx CR2 register value */
  tmpcr2 =  TIMx->CR2;
 8003f88:	687b      	ldr	r3, [r7, #4]
 8003f8a:	685b      	ldr	r3, [r3, #4]
 8003f8c:	613b      	str	r3, [r7, #16]

  /* Get the TIMx CCMR1 register value */
  tmpccmrx = TIMx->CCMR1;
 8003f8e:	687b      	ldr	r3, [r7, #4]
 8003f90:	699b      	ldr	r3, [r3, #24]
 8003f92:	60fb      	str	r3, [r7, #12]

  /* Reset the Output Compare mode and Capture/Compare selection Bits */
  tmpccmrx &= ~TIM_CCMR1_OC2M;
 8003f94:	68fb      	ldr	r3, [r7, #12]
 8003f96:	f423 43e0 	bic.w	r3, r3, #28672	@ 0x7000
 8003f9a:	60fb      	str	r3, [r7, #12]
  tmpccmrx &= ~TIM_CCMR1_CC2S;
 8003f9c:	68fb      	ldr	r3, [r7, #12]
 8003f9e:	f423 7340 	bic.w	r3, r3, #768	@ 0x300
 8003fa2:	60fb      	str	r3, [r7, #12]

  /* Select the Output Compare Mode */
  tmpccmrx |= (OC_Config->OCMode << 8U);
 8003fa4:	683b      	ldr	r3, [r7, #0]
 8003fa6:	681b      	ldr	r3, [r3, #0]
 8003fa8:	021b      	lsls	r3, r3, #8
 8003faa:	68fa      	ldr	r2, [r7, #12]
 8003fac:	4313      	orrs	r3, r2
 8003fae:	60fb      	str	r3, [r7, #12]

  /* Reset the Output Polarity level */
  tmpccer &= ~TIM_CCER_CC2P;
 8003fb0:	697b      	ldr	r3, [r7, #20]
 8003fb2:	f023 0320 	bic.w	r3, r3, #32
 8003fb6:	617b      	str	r3, [r7, #20]
  /* Set the Output Compare Polarity */
  tmpccer |= (OC_Config->OCPolarity << 4U);
 8003fb8:	683b      	ldr	r3, [r7, #0]
 8003fba:	689b      	ldr	r3, [r3, #8]
 8003fbc:	011b      	lsls	r3, r3, #4
 8003fbe:	697a      	ldr	r2, [r7, #20]
 8003fc0:	4313      	orrs	r3, r2
 8003fc2:	617b      	str	r3, [r7, #20]

  if (IS_TIM_CCXN_INSTANCE(TIMx, TIM_CHANNEL_2))
 8003fc4:	687b      	ldr	r3, [r7, #4]
 8003fc6:	4a22      	ldr	r2, [pc, #136]	@ (8004050 <TIM_OC2_SetConfig+0xe4>)
 8003fc8:	4293      	cmp	r3, r2
 8003fca:	d003      	beq.n	8003fd4 <TIM_OC2_SetConfig+0x68>
 8003fcc:	687b      	ldr	r3, [r7, #4]
 8003fce:	4a21      	ldr	r2, [pc, #132]	@ (8004054 <TIM_OC2_SetConfig+0xe8>)
 8003fd0:	4293      	cmp	r3, r2
 8003fd2:	d10d      	bne.n	8003ff0 <TIM_OC2_SetConfig+0x84>
  {
    assert_param(IS_TIM_OCN_POLARITY(OC_Config->OCNPolarity));

    /* Reset the Output N Polarity level */
    tmpccer &= ~TIM_CCER_CC2NP;
 8003fd4:	697b      	ldr	r3, [r7, #20]
 8003fd6:	f023 0380 	bic.w	r3, r3, #128	@ 0x80
 8003fda:	617b      	str	r3, [r7, #20]
    /* Set the Output N Polarity */
    tmpccer |= (OC_Config->OCNPolarity << 4U);
 8003fdc:	683b      	ldr	r3, [r7, #0]
 8003fde:	68db      	ldr	r3, [r3, #12]
 8003fe0:	011b      	lsls	r3, r3, #4
 8003fe2:	697a      	ldr	r2, [r7, #20]
 8003fe4:	4313      	orrs	r3, r2
 8003fe6:	617b      	str	r3, [r7, #20]
    /* Reset the Output N State */
    tmpccer &= ~TIM_CCER_CC2NE;
 8003fe8:	697b      	ldr	r3, [r7, #20]
 8003fea:	f023 0340 	bic.w	r3, r3, #64	@ 0x40
 8003fee:	617b      	str	r3, [r7, #20]
  }

  if (IS_TIM_BREAK_INSTANCE(TIMx))
 8003ff0:	687b      	ldr	r3, [r7, #4]
 8003ff2:	4a17      	ldr	r2, [pc, #92]	@ (8004050 <TIM_OC2_SetConfig+0xe4>)
 8003ff4:	4293      	cmp	r3, r2
 8003ff6:	d003      	beq.n	8004000 <TIM_OC2_SetConfig+0x94>
 8003ff8:	687b      	ldr	r3, [r7, #4]
 8003ffa:	4a16      	ldr	r2, [pc, #88]	@ (8004054 <TIM_OC2_SetConfig+0xe8>)
 8003ffc:	4293      	cmp	r3, r2
 8003ffe:	d113      	bne.n	8004028 <TIM_OC2_SetConfig+0xbc>
    /* Check parameters */
    assert_param(IS_TIM_OCNIDLE_STATE(OC_Config->OCNIdleState));
    assert_param(IS_TIM_OCIDLE_STATE(OC_Config->OCIdleState));

    /* Reset the Output Compare and Output Compare N IDLE State */
    tmpcr2 &= ~TIM_CR2_OIS2;
 8004000:	693b      	ldr	r3, [r7, #16]
 8004002:	f423 6380 	bic.w	r3, r3, #1024	@ 0x400
 8004006:	613b      	str	r3, [r7, #16]
    tmpcr2 &= ~TIM_CR2_OIS2N;
 8004008:	693b      	ldr	r3, [r7, #16]
 800400a:	f423 6300 	bic.w	r3, r3, #2048	@ 0x800
 800400e:	613b      	str	r3, [r7, #16]
    /* Set the Output Idle state */
    tmpcr2 |= (OC_Config->OCIdleState << 2U);
 8004010:	683b      	ldr	r3, [r7, #0]
 8004012:	695b      	ldr	r3, [r3, #20]
 8004014:	009b      	lsls	r3, r3, #2
 8004016:	693a      	ldr	r2, [r7, #16]
 8004018:	4313      	orrs	r3, r2
 800401a:	613b      	str	r3, [r7, #16]
    /* Set the Output N Idle state */
    tmpcr2 |= (OC_Config->OCNIdleState << 2U);
 800401c:	683b      	ldr	r3, [r7, #0]
 800401e:	699b      	ldr	r3, [r3, #24]
 8004020:	009b      	lsls	r3, r3, #2
 8004022:	693a      	ldr	r2, [r7, #16]
 8004024:	4313      	orrs	r3, r2
 8004026:	613b      	str	r3, [r7, #16]
  }

  /* Write to TIMx CR2 */
  TIMx->CR2 = tmpcr2;
 8004028:	687b      	ldr	r3, [r7, #4]
 800402a:	693a      	ldr	r2, [r7, #16]
 800402c:	605a      	str	r2, [r3, #4]

  /* Write to TIMx CCMR1 */
  TIMx->CCMR1 = tmpccmrx;
 800402e:	687b      	ldr	r3, [r7, #4]
 8004030:	68fa      	ldr	r2, [r7, #12]
 8004032:	619a      	str	r2, [r3, #24]

  /* Set the Capture Compare Register value */
  TIMx->CCR2 = OC_Config->Pulse;
 8004034:	683b      	ldr	r3, [r7, #0]
 8004036:	685a      	ldr	r2, [r3, #4]
 8004038:	687b      	ldr	r3, [r7, #4]
 800403a:	639a      	str	r2, [r3, #56]	@ 0x38

  /* Write to TIMx CCER */
  TIMx->CCER = tmpccer;
 800403c:	687b      	ldr	r3, [r7, #4]
 800403e:	697a      	ldr	r2, [r7, #20]
 8004040:	621a      	str	r2, [r3, #32]
}
 8004042:	bf00      	nop
 8004044:	371c      	adds	r7, #28
 8004046:	46bd      	mov	sp, r7
 8004048:	f85d 7b04 	ldr.w	r7, [sp], #4
 800404c:	4770      	bx	lr
 800404e:	bf00      	nop
 8004050:	40010000 	.word	0x40010000
 8004054:	40010400 	.word	0x40010400

08004058 <TIM_OC3_SetConfig>:
  * @param  TIMx to select the TIM peripheral
  * @param  OC_Config The output configuration structure
  * @retval None
  */
static void TIM_OC3_SetConfig(TIM_TypeDef *TIMx, const TIM_OC_InitTypeDef *OC_Config)
{
 8004058:	b480      	push	{r7}
 800405a:	b087      	sub	sp, #28
 800405c:	af00      	add	r7, sp, #0
 800405e:	6078      	str	r0, [r7, #4]
 8004060:	6039      	str	r1, [r7, #0]
  uint32_t tmpccmrx;
  uint32_t tmpccer;
  uint32_t tmpcr2;

  /* Get the TIMx CCER register value */
  tmpccer = TIMx->CCER;
 8004062:	687b      	ldr	r3, [r7, #4]
 8004064:	6a1b      	ldr	r3, [r3, #32]
 8004066:	617b      	str	r3, [r7, #20]

  /* Disable the Channel 3: Reset the CC2E Bit */
  TIMx->CCER &= ~TIM_CCER_CC3E;
 8004068:	687b      	ldr	r3, [r7, #4]
 800406a:	6a1b      	ldr	r3, [r3, #32]
 800406c:	f423 7280 	bic.w	r2, r3, #256	@ 0x100
 8004070:	687b      	ldr	r3, [r7, #4]
 8004072:	621a      	str	r2, [r3, #32]

  /* Get the TIMx CR2 register value */
  tmpcr2 =  TIMx->CR2;
 8004074:	687b      	ldr	r3, [r7, #4]
 8004076:	685b      	ldr	r3, [r3, #4]
 8004078:	613b      	str	r3, [r7, #16]

  /* Get the TIMx CCMR2 register value */
  tmpccmrx = TIMx->CCMR2;
 800407a:	687b      	ldr	r3, [r7, #4]
 800407c:	69db      	ldr	r3, [r3, #28]
 800407e:	60fb      	str	r3, [r7, #12]

  /* Reset the Output Compare mode and Capture/Compare selection Bits */
  tmpccmrx &= ~TIM_CCMR2_OC3M;
 8004080:	68fb      	ldr	r3, [r7, #12]
 8004082:	f023 0370 	bic.w	r3, r3, #112	@ 0x70
 8004086:	60fb      	str	r3, [r7, #12]
  tmpccmrx &= ~TIM_CCMR2_CC3S;
 8004088:	68fb      	ldr	r3, [r7, #12]
 800408a:	f023 0303 	bic.w	r3, r3, #3
 800408e:	60fb      	str	r3, [r7, #12]
  /* Select the Output Compare Mode */
  tmpccmrx |= OC_Config->OCMode;
 8004090:	683b      	ldr	r3, [r7, #0]
 8004092:	681b      	ldr	r3, [r3, #0]
 8004094:	68fa      	ldr	r2, [r7, #12]
 8004096:	4313      	orrs	r3, r2
 8004098:	60fb      	str	r3, [r7, #12]

  /* Reset the Output Polarity level */
  tmpccer &= ~TIM_CCER_CC3P;
 800409a:	697b      	ldr	r3, [r7, #20]
 800409c:	f423 7300 	bic.w	r3, r3, #512	@ 0x200
 80040a0:	617b      	str	r3, [r7, #20]
  /* Set the Output Compare Polarity */
  tmpccer |= (OC_Config->OCPolarity << 8U);
 80040a2:	683b      	ldr	r3, [r7, #0]
 80040a4:	689b      	ldr	r3, [r3, #8]
 80040a6:	021b      	lsls	r3, r3, #8
 80040a8:	697a      	ldr	r2, [r7, #20]
 80040aa:	4313      	orrs	r3, r2
 80040ac:	617b      	str	r3, [r7, #20]

  if (IS_TIM_CCXN_INSTANCE(TIMx, TIM_CHANNEL_3))
 80040ae:	687b      	ldr	r3, [r7, #4]
 80040b0:	4a21      	ldr	r2, [pc, #132]	@ (8004138 <TIM_OC3_SetConfig+0xe0>)
 80040b2:	4293      	cmp	r3, r2
 80040b4:	d003      	beq.n	80040be <TIM_OC3_SetConfig+0x66>
 80040b6:	687b      	ldr	r3, [r7, #4]
 80040b8:	4a20      	ldr	r2, [pc, #128]	@ (800413c <TIM_OC3_SetConfig+0xe4>)
 80040ba:	4293      	cmp	r3, r2
 80040bc:	d10d      	bne.n	80040da <TIM_OC3_SetConfig+0x82>
  {
    assert_param(IS_TIM_OCN_POLARITY(OC_Config->OCNPolarity));

    /* Reset the Output N Polarity level */
    tmpccer &= ~TIM_CCER_CC3NP;
 80040be:	697b      	ldr	r3, [r7, #20]
 80040c0:	f423 6300 	bic.w	r3, r3, #2048	@ 0x800
 80040c4:	617b      	str	r3, [r7, #20]
    /* Set the Output N Polarity */
    tmpccer |= (OC_Config->OCNPolarity << 8U);
 80040c6:	683b      	ldr	r3, [r7, #0]
 80040c8:	68db      	ldr	r3, [r3, #12]
 80040ca:	021b      	lsls	r3, r3, #8
 80040cc:	697a      	ldr	r2, [r7, #20]
 80040ce:	4313      	orrs	r3, r2
 80040d0:	617b      	str	r3, [r7, #20]
    /* Reset the Output N State */
    tmpccer &= ~TIM_CCER_CC3NE;
 80040d2:	697b      	ldr	r3, [r7, #20]
 80040d4:	f423 6380 	bic.w	r3, r3, #1024	@ 0x400
 80040d8:	617b      	str	r3, [r7, #20]
  }

  if (IS_TIM_BREAK_INSTANCE(TIMx))
 80040da:	687b      	ldr	r3, [r7, #4]
 80040dc:	4a16      	ldr	r2, [pc, #88]	@ (8004138 <TIM_OC3_SetConfig+0xe0>)
 80040de:	4293      	cmp	r3, r2
 80040e0:	d003      	beq.n	80040ea <TIM_OC3_SetConfig+0x92>
 80040e2:	687b      	ldr	r3, [r7, #4]
 80040e4:	4a15      	ldr	r2, [pc, #84]	@ (800413c <TIM_OC3_SetConfig+0xe4>)
 80040e6:	4293      	cmp	r3, r2
 80040e8:	d113      	bne.n	8004112 <TIM_OC3_SetConfig+0xba>
    /* Check parameters */
    assert_param(IS_TIM_OCNIDLE_STATE(OC_Config->OCNIdleState));
    assert_param(IS_TIM_OCIDLE_STATE(OC_Config->OCIdleState));

    /* Reset the Output Compare and Output Compare N IDLE State */
    tmpcr2 &= ~TIM_CR2_OIS3;
 80040ea:	693b      	ldr	r3, [r7, #16]
 80040ec:	f423 5380 	bic.w	r3, r3, #4096	@ 0x1000
 80040f0:	613b      	str	r3, [r7, #16]
    tmpcr2 &= ~TIM_CR2_OIS3N;
 80040f2:	693b      	ldr	r3, [r7, #16]
 80040f4:	f423 5300 	bic.w	r3, r3, #8192	@ 0x2000
 80040f8:	613b      	str	r3, [r7, #16]
    /* Set the Output Idle state */
    tmpcr2 |= (OC_Config->OCIdleState << 4U);
 80040fa:	683b      	ldr	r3, [r7, #0]
 80040fc:	695b      	ldr	r3, [r3, #20]
 80040fe:	011b      	lsls	r3, r3, #4
 8004100:	693a      	ldr	r2, [r7, #16]
 8004102:	4313      	orrs	r3, r2
 8004104:	613b      	str	r3, [r7, #16]
    /* Set the Output N Idle state */
    tmpcr2 |= (OC_Config->OCNIdleState << 4U);
 8004106:	683b      	ldr	r3, [r7, #0]
 8004108:	699b      	ldr	r3, [r3, #24]
 800410a:	011b      	lsls	r3, r3, #4
 800410c:	693a      	ldr	r2, [r7, #16]
 800410e:	4313      	orrs	r3, r2
 8004110:	613b      	str	r3, [r7, #16]
  }

  /* Write to TIMx CR2 */
  TIMx->CR2 = tmpcr2;
 8004112:	687b      	ldr	r3, [r7, #4]
 8004114:	693a      	ldr	r2, [r7, #16]
 8004116:	605a      	str	r2, [r3, #4]

  /* Write to TIMx CCMR2 */
  TIMx->CCMR2 = tmpccmrx;
 8004118:	687b      	ldr	r3, [r7, #4]
 800411a:	68fa      	ldr	r2, [r7, #12]
 800411c:	61da      	str	r2, [r3, #28]

  /* Set the Capture Compare Register value */
  TIMx->CCR3 = OC_Config->Pulse;
 800411e:	683b      	ldr	r3, [r7, #0]
 8004120:	685a      	ldr	r2, [r3, #4]
 8004122:	687b      	ldr	r3, [r7, #4]
 8004124:	63da      	str	r2, [r3, #60]	@ 0x3c

  /* Write to TIMx CCER */
  TIMx->CCER = tmpccer;
 8004126:	687b      	ldr	r3, [r7, #4]
 8004128:	697a      	ldr	r2, [r7, #20]
 800412a:	621a      	str	r2, [r3, #32]
}
 800412c:	bf00      	nop
 800412e:	371c      	adds	r7, #28
 8004130:	46bd      	mov	sp, r7
 8004132:	f85d 7b04 	ldr.w	r7, [sp], #4
 8004136:	4770      	bx	lr
 8004138:	40010000 	.word	0x40010000
 800413c:	40010400 	.word	0x40010400

08004140 <TIM_OC4_SetConfig>:
  * @param  TIMx to select the TIM peripheral
  * @param  OC_Config The output configuration structure
  * @retval None
  */
static void TIM_OC4_SetConfig(TIM_TypeDef *TIMx, const TIM_OC_InitTypeDef *OC_Config)
{
 8004140:	b480      	push	{r7}
 8004142:	b087      	sub	sp, #28
 8004144:	af00      	add	r7, sp, #0
 8004146:	6078      	str	r0, [r7, #4]
 8004148:	6039      	str	r1, [r7, #0]
  uint32_t tmpccmrx;
  uint32_t tmpccer;
  uint32_t tmpcr2;

  /* Get the TIMx CCER register value */
  tmpccer = TIMx->CCER;
 800414a:	687b      	ldr	r3, [r7, #4]
 800414c:	6a1b      	ldr	r3, [r3, #32]
 800414e:	613b      	str	r3, [r7, #16]

  /* Disable the Channel 4: Reset the CC4E Bit */
  TIMx->CCER &= ~TIM_CCER_CC4E;
 8004150:	687b      	ldr	r3, [r7, #4]
 8004152:	6a1b      	ldr	r3, [r3, #32]
 8004154:	f423 5280 	bic.w	r2, r3, #4096	@ 0x1000
 8004158:	687b      	ldr	r3, [r7, #4]
 800415a:	621a      	str	r2, [r3, #32]

  /* Get the TIMx CR2 register value */
  tmpcr2 =  TIMx->CR2;
 800415c:	687b      	ldr	r3, [r7, #4]
 800415e:	685b      	ldr	r3, [r3, #4]
 8004160:	617b      	str	r3, [r7, #20]

  /* Get the TIMx CCMR2 register value */
  tmpccmrx = TIMx->CCMR2;
 8004162:	687b      	ldr	r3, [r7, #4]
 8004164:	69db      	ldr	r3, [r3, #28]
 8004166:	60fb      	str	r3, [r7, #12]

  /* Reset the Output Compare mode and Capture/Compare selection Bits */
  tmpccmrx &= ~TIM_CCMR2_OC4M;
 8004168:	68fb      	ldr	r3, [r7, #12]
 800416a:	f423 43e0 	bic.w	r3, r3, #28672	@ 0x7000
 800416e:	60fb      	str	r3, [r7, #12]
  tmpccmrx &= ~TIM_CCMR2_CC4S;
 8004170:	68fb      	ldr	r3, [r7, #12]
 8004172:	f423 7340 	bic.w	r3, r3, #768	@ 0x300
 8004176:	60fb      	str	r3, [r7, #12]

  /* Select the Output Compare Mode */
  tmpccmrx |= (OC_Config->OCMode << 8U);
 8004178:	683b      	ldr	r3, [r7, #0]
 800417a:	681b      	ldr	r3, [r3, #0]
 800417c:	021b      	lsls	r3, r3, #8
 800417e:	68fa      	ldr	r2, [r7, #12]
 8004180:	4313      	orrs	r3, r2
 8004182:	60fb      	str	r3, [r7, #12]

  /* Reset the Output Polarity level */
  tmpccer &= ~TIM_CCER_CC4P;
 8004184:	693b      	ldr	r3, [r7, #16]
 8004186:	f423 5300 	bic.w	r3, r3, #8192	@ 0x2000
 800418a:	613b      	str	r3, [r7, #16]
  /* Set the Output Compare Polarity */
  tmpccer |= (OC_Config->OCPolarity << 12U);
 800418c:	683b      	ldr	r3, [r7, #0]
 800418e:	689b      	ldr	r3, [r3, #8]
 8004190:	031b      	lsls	r3, r3, #12
 8004192:	693a      	ldr	r2, [r7, #16]
 8004194:	4313      	orrs	r3, r2
 8004196:	613b      	str	r3, [r7, #16]

  if (IS_TIM_BREAK_INSTANCE(TIMx))
 8004198:	687b      	ldr	r3, [r7, #4]
 800419a:	4a12      	ldr	r2, [pc, #72]	@ (80041e4 <TIM_OC4_SetConfig+0xa4>)
 800419c:	4293      	cmp	r3, r2
 800419e:	d003      	beq.n	80041a8 <TIM_OC4_SetConfig+0x68>
 80041a0:	687b      	ldr	r3, [r7, #4]
 80041a2:	4a11      	ldr	r2, [pc, #68]	@ (80041e8 <TIM_OC4_SetConfig+0xa8>)
 80041a4:	4293      	cmp	r3, r2
 80041a6:	d109      	bne.n	80041bc <TIM_OC4_SetConfig+0x7c>
  {
    /* Check parameters */
    assert_param(IS_TIM_OCIDLE_STATE(OC_Config->OCIdleState));

    /* Reset the Output Compare IDLE State */
    tmpcr2 &= ~TIM_CR2_OIS4;
 80041a8:	697b      	ldr	r3, [r7, #20]
 80041aa:	f423 4380 	bic.w	r3, r3, #16384	@ 0x4000
 80041ae:	617b      	str	r3, [r7, #20]

    /* Set the Output Idle state */
    tmpcr2 |= (OC_Config->OCIdleState << 6U);
 80041b0:	683b      	ldr	r3, [r7, #0]
 80041b2:	695b      	ldr	r3, [r3, #20]
 80041b4:	019b      	lsls	r3, r3, #6
 80041b6:	697a      	ldr	r2, [r7, #20]
 80041b8:	4313      	orrs	r3, r2
 80041ba:	617b      	str	r3, [r7, #20]
  }

  /* Write to TIMx CR2 */
  TIMx->CR2 = tmpcr2;
 80041bc:	687b      	ldr	r3, [r7, #4]
 80041be:	697a      	ldr	r2, [r7, #20]
 80041c0:	605a      	str	r2, [r3, #4]

  /* Write to TIMx CCMR2 */
  TIMx->CCMR2 = tmpccmrx;
 80041c2:	687b      	ldr	r3, [r7, #4]
 80041c4:	68fa      	ldr	r2, [r7, #12]
 80041c6:	61da      	str	r2, [r3, #28]

  /* Set the Capture Compare Register value */
  TIMx->CCR4 = OC_Config->Pulse;
 80041c8:	683b      	ldr	r3, [r7, #0]
 80041ca:	685a      	ldr	r2, [r3, #4]
 80041cc:	687b      	ldr	r3, [r7, #4]
 80041ce:	641a      	str	r2, [r3, #64]	@ 0x40

  /* Write to TIMx CCER */
  TIMx->CCER = tmpccer;
 80041d0:	687b      	ldr	r3, [r7, #4]
 80041d2:	693a      	ldr	r2, [r7, #16]
 80041d4:	621a      	str	r2, [r3, #32]
}
 80041d6:	bf00      	nop
 80041d8:	371c      	adds	r7, #28
 80041da:	46bd      	mov	sp, r7
 80041dc:	f85d 7b04 	ldr.w	r7, [sp], #4
 80041e0:	4770      	bx	lr
 80041e2:	bf00      	nop
 80041e4:	40010000 	.word	0x40010000
 80041e8:	40010400 	.word	0x40010400

080041ec <TIM_TI1_ConfigInputStage>:
  * @param  TIM_ICFilter Specifies the Input Capture Filter.
  *          This parameter must be a value between 0x00 and 0x0F.
  * @retval None
  */
static void TIM_TI1_ConfigInputStage(TIM_TypeDef *TIMx, uint32_t TIM_ICPolarity, uint32_t TIM_ICFilter)
{
 80041ec:	b480      	push	{r7}
 80041ee:	b087      	sub	sp, #28
 80041f0:	af00      	add	r7, sp, #0
 80041f2:	60f8      	str	r0, [r7, #12]
 80041f4:	60b9      	str	r1, [r7, #8]
 80041f6:	607a      	str	r2, [r7, #4]
  uint32_t tmpccmr1;
  uint32_t tmpccer;

  /* Disable the Channel 1: Reset the CC1E Bit */
  tmpccer = TIMx->CCER;
 80041f8:	68fb      	ldr	r3, [r7, #12]
 80041fa:	6a1b      	ldr	r3, [r3, #32]
 80041fc:	617b      	str	r3, [r7, #20]
  TIMx->CCER &= ~TIM_CCER_CC1E;
 80041fe:	68fb      	ldr	r3, [r7, #12]
 8004200:	6a1b      	ldr	r3, [r3, #32]
 8004202:	f023 0201 	bic.w	r2, r3, #1
 8004206:	68fb      	ldr	r3, [r7, #12]
 8004208:	621a      	str	r2, [r3, #32]
  tmpccmr1 = TIMx->CCMR1;
 800420a:	68fb      	ldr	r3, [r7, #12]
 800420c:	699b      	ldr	r3, [r3, #24]
 800420e:	613b      	str	r3, [r7, #16]

  /* Set the filter */
  tmpccmr1 &= ~TIM_CCMR1_IC1F;
 8004210:	693b      	ldr	r3, [r7, #16]
 8004212:	f023 03f0 	bic.w	r3, r3, #240	@ 0xf0
 8004216:	613b      	str	r3, [r7, #16]
  tmpccmr1 |= (TIM_ICFilter << 4U);
 8004218:	687b      	ldr	r3, [r7, #4]
 800421a:	011b      	lsls	r3, r3, #4
 800421c:	693a      	ldr	r2, [r7, #16]
 800421e:	4313      	orrs	r3, r2
 8004220:	613b      	str	r3, [r7, #16]

  /* Select the Polarity and set the CC1E Bit */
  tmpccer &= ~(TIM_CCER_CC1P | TIM_CCER_CC1NP);
 8004222:	697b      	ldr	r3, [r7, #20]
 8004224:	f023 030a 	bic.w	r3, r3, #10
 8004228:	617b      	str	r3, [r7, #20]
  tmpccer |= TIM_ICPolarity;
 800422a:	697a      	ldr	r2, [r7, #20]
 800422c:	68bb      	ldr	r3, [r7, #8]
 800422e:	4313      	orrs	r3, r2
 8004230:	617b      	str	r3, [r7, #20]

  /* Write to TIMx CCMR1 and CCER registers */
  TIMx->CCMR1 = tmpccmr1;
 8004232:	68fb      	ldr	r3, [r7, #12]
 8004234:	693a      	ldr	r2, [r7, #16]
 8004236:	619a      	str	r2, [r3, #24]
  TIMx->CCER = tmpccer;
 8004238:	68fb      	ldr	r3, [r7, #12]
 800423a:	697a      	ldr	r2, [r7, #20]
 800423c:	621a      	str	r2, [r3, #32]
}
 800423e:	bf00      	nop
 8004240:	371c      	adds	r7, #28
 8004242:	46bd      	mov	sp, r7
 8004244:	f85d 7b04 	ldr.w	r7, [sp], #4
 8004248:	4770      	bx	lr

0800424a <TIM_TI2_ConfigInputStage>:
  * @param  TIM_ICFilter Specifies the Input Capture Filter.
  *          This parameter must be a value between 0x00 and 0x0F.
  * @retval None
  */
static void TIM_TI2_ConfigInputStage(TIM_TypeDef *TIMx, uint32_t TIM_ICPolarity, uint32_t TIM_ICFilter)
{
 800424a:	b480      	push	{r7}
 800424c:	b087      	sub	sp, #28
 800424e:	af00      	add	r7, sp, #0
 8004250:	60f8      	str	r0, [r7, #12]
 8004252:	60b9      	str	r1, [r7, #8]
 8004254:	607a      	str	r2, [r7, #4]
  uint32_t tmpccmr1;
  uint32_t tmpccer;

  /* Disable the Channel 2: Reset the CC2E Bit */
  tmpccer = TIMx->CCER;
 8004256:	68fb      	ldr	r3, [r7, #12]
 8004258:	6a1b      	ldr	r3, [r3, #32]
 800425a:	617b      	str	r3, [r7, #20]
  TIMx->CCER &= ~TIM_CCER_CC2E;
 800425c:	68fb      	ldr	r3, [r7, #12]
 800425e:	6a1b      	ldr	r3, [r3, #32]
 8004260:	f023 0210 	bic.w	r2, r3, #16
 8004264:	68fb      	ldr	r3, [r7, #12]
 8004266:	621a      	str	r2, [r3, #32]
  tmpccmr1 = TIMx->CCMR1;
 8004268:	68fb      	ldr	r3, [r7, #12]
 800426a:	699b      	ldr	r3, [r3, #24]
 800426c:	613b      	str	r3, [r7, #16]

  /* Set the filter */
  tmpccmr1 &= ~TIM_CCMR1_IC2F;
 800426e:	693b      	ldr	r3, [r7, #16]
 8004270:	f423 4370 	bic.w	r3, r3, #61440	@ 0xf000
 8004274:	613b      	str	r3, [r7, #16]
  tmpccmr1 |= (TIM_ICFilter << 12U);
 8004276:	687b      	ldr	r3, [r7, #4]
 8004278:	031b      	lsls	r3, r3, #12
 800427a:	693a      	ldr	r2, [r7, #16]
 800427c:	4313      	orrs	r3, r2
 800427e:	613b      	str	r3, [r7, #16]

  /* Select the Polarity and set the CC2E Bit */
  tmpccer &= ~(TIM_CCER_CC2P | TIM_CCER_CC2NP);
 8004280:	697b      	ldr	r3, [r7, #20]
 8004282:	f023 03a0 	bic.w	r3, r3, #160	@ 0xa0
 8004286:	617b      	str	r3, [r7, #20]
  tmpccer |= (TIM_ICPolarity << 4U);
 8004288:	68bb      	ldr	r3, [r7, #8]
 800428a:	011b      	lsls	r3, r3, #4
 800428c:	697a      	ldr	r2, [r7, #20]
 800428e:	4313      	orrs	r3, r2
 8004290:	617b      	str	r3, [r7, #20]

  /* Write to TIMx CCMR1 and CCER registers */
  TIMx->CCMR1 = tmpccmr1 ;
 8004292:	68fb      	ldr	r3, [r7, #12]
 8004294:	693a      	ldr	r2, [r7, #16]
 8004296:	619a      	str	r2, [r3, #24]
  TIMx->CCER = tmpccer;
 8004298:	68fb      	ldr	r3, [r7, #12]
 800429a:	697a      	ldr	r2, [r7, #20]
 800429c:	621a      	str	r2, [r3, #32]
}
 800429e:	bf00      	nop
 80042a0:	371c      	adds	r7, #28
 80042a2:	46bd      	mov	sp, r7
 80042a4:	f85d 7b04 	ldr.w	r7, [sp], #4
 80042a8:	4770      	bx	lr

080042aa <TIM_ITRx_SetConfig>:
  *            @arg TIM_TS_TI2FP2: Filtered Timer Input 2
  *            @arg TIM_TS_ETRF: External Trigger input
  * @retval None
  */
static void TIM_ITRx_SetConfig(TIM_TypeDef *TIMx, uint32_t InputTriggerSource)
{
 80042aa:	b480      	push	{r7}
 80042ac:	b085      	sub	sp, #20
 80042ae:	af00      	add	r7, sp, #0
 80042b0:	6078      	str	r0, [r7, #4]
 80042b2:	6039      	str	r1, [r7, #0]
  uint32_t tmpsmcr;

  /* Get the TIMx SMCR register value */
  tmpsmcr = TIMx->SMCR;
 80042b4:	687b      	ldr	r3, [r7, #4]
 80042b6:	689b      	ldr	r3, [r3, #8]
 80042b8:	60fb      	str	r3, [r7, #12]
  /* Reset the TS Bits */
  tmpsmcr &= ~TIM_SMCR_TS;
 80042ba:	68fb      	ldr	r3, [r7, #12]
 80042bc:	f023 0370 	bic.w	r3, r3, #112	@ 0x70
 80042c0:	60fb      	str	r3, [r7, #12]
  /* Set the Input Trigger source and the slave mode*/
  tmpsmcr |= (InputTriggerSource | TIM_SLAVEMODE_EXTERNAL1);
 80042c2:	683a      	ldr	r2, [r7, #0]
 80042c4:	68fb      	ldr	r3, [r7, #12]
 80042c6:	4313      	orrs	r3, r2
 80042c8:	f043 0307 	orr.w	r3, r3, #7
 80042cc:	60fb      	str	r3, [r7, #12]
  /* Write to TIMx SMCR */
  TIMx->SMCR = tmpsmcr;
 80042ce:	687b      	ldr	r3, [r7, #4]
 80042d0:	68fa      	ldr	r2, [r7, #12]
 80042d2:	609a      	str	r2, [r3, #8]
}
 80042d4:	bf00      	nop
 80042d6:	3714      	adds	r7, #20
 80042d8:	46bd      	mov	sp, r7
 80042da:	f85d 7b04 	ldr.w	r7, [sp], #4
 80042de:	4770      	bx	lr

080042e0 <TIM_ETR_SetConfig>:
  *          This parameter must be a value between 0x00 and 0x0F
  * @retval None
  */
void TIM_ETR_SetConfig(TIM_TypeDef *TIMx, uint32_t TIM_ExtTRGPrescaler,
                       uint32_t TIM_ExtTRGPolarity, uint32_t ExtTRGFilter)
{
 80042e0:	b480      	push	{r7}
 80042e2:	b087      	sub	sp, #28
 80042e4:	af00      	add	r7, sp, #0
 80042e6:	60f8      	str	r0, [r7, #12]
 80042e8:	60b9      	str	r1, [r7, #8]
 80042ea:	607a      	str	r2, [r7, #4]
 80042ec:	603b      	str	r3, [r7, #0]
  uint32_t tmpsmcr;

  tmpsmcr = TIMx->SMCR;
 80042ee:	68fb      	ldr	r3, [r7, #12]
 80042f0:	689b      	ldr	r3, [r3, #8]
 80042f2:	617b      	str	r3, [r7, #20]

  /* Reset the ETR Bits */
  tmpsmcr &= ~(TIM_SMCR_ETF | TIM_SMCR_ETPS | TIM_SMCR_ECE | TIM_SMCR_ETP);
 80042f4:	697b      	ldr	r3, [r7, #20]
 80042f6:	f423 437f 	bic.w	r3, r3, #65280	@ 0xff00
 80042fa:	617b      	str	r3, [r7, #20]

  /* Set the Prescaler, the Filter value and the Polarity */
  tmpsmcr |= (uint32_t)(TIM_ExtTRGPrescaler | (TIM_ExtTRGPolarity | (ExtTRGFilter << 8U)));
 80042fc:	683b      	ldr	r3, [r7, #0]
 80042fe:	021a      	lsls	r2, r3, #8
 8004300:	687b      	ldr	r3, [r7, #4]
 8004302:	431a      	orrs	r2, r3
 8004304:	68bb      	ldr	r3, [r7, #8]
 8004306:	4313      	orrs	r3, r2
 8004308:	697a      	ldr	r2, [r7, #20]
 800430a:	4313      	orrs	r3, r2
 800430c:	617b      	str	r3, [r7, #20]

  /* Write to TIMx SMCR */
  TIMx->SMCR = tmpsmcr;
 800430e:	68fb      	ldr	r3, [r7, #12]
 8004310:	697a      	ldr	r2, [r7, #20]
 8004312:	609a      	str	r2, [r3, #8]
}
 8004314:	bf00      	nop
 8004316:	371c      	adds	r7, #28
 8004318:	46bd      	mov	sp, r7
 800431a:	f85d 7b04 	ldr.w	r7, [sp], #4
 800431e:	4770      	bx	lr

08004320 <HAL_TIMEx_MasterConfigSynchronization>:
  *         mode.
  * @retval HAL status
  */
HAL_StatusTypeDef HAL_TIMEx_MasterConfigSynchronization(TIM_HandleTypeDef *htim,
                                                        const TIM_MasterConfigTypeDef *sMasterConfig)
{
 8004320:	b480      	push	{r7}
 8004322:	b085      	sub	sp, #20
 8004324:	af00      	add	r7, sp, #0
 8004326:	6078      	str	r0, [r7, #4]
 8004328:	6039      	str	r1, [r7, #0]
  assert_param(IS_TIM_MASTER_INSTANCE(htim->Instance));
  assert_param(IS_TIM_TRGO_SOURCE(sMasterConfig->MasterOutputTrigger));
  assert_param(IS_TIM_MSM_STATE(sMasterConfig->MasterSlaveMode));

  /* Check input state */
  __HAL_LOCK(htim);
 800432a:	687b      	ldr	r3, [r7, #4]
 800432c:	f893 303c 	ldrb.w	r3, [r3, #60]	@ 0x3c
 8004330:	2b01      	cmp	r3, #1
 8004332:	d101      	bne.n	8004338 <HAL_TIMEx_MasterConfigSynchronization+0x18>
 8004334:	2302      	movs	r3, #2
 8004336:	e05a      	b.n	80043ee <HAL_TIMEx_MasterConfigSynchronization+0xce>
 8004338:	687b      	ldr	r3, [r7, #4]
 800433a:	2201      	movs	r2, #1
 800433c:	f883 203c 	strb.w	r2, [r3, #60]	@ 0x3c

  /* Change the handler state */
  htim->State = HAL_TIM_STATE_BUSY;
 8004340:	687b      	ldr	r3, [r7, #4]
 8004342:	2202      	movs	r2, #2
 8004344:	f883 203d 	strb.w	r2, [r3, #61]	@ 0x3d

  /* Get the TIMx CR2 register value */
  tmpcr2 = htim->Instance->CR2;
 8004348:	687b      	ldr	r3, [r7, #4]
 800434a:	681b      	ldr	r3, [r3, #0]
 800434c:	685b      	ldr	r3, [r3, #4]
 800434e:	60fb      	str	r3, [r7, #12]

  /* Get the TIMx SMCR register value */
  tmpsmcr = htim->Instance->SMCR;
 8004350:	687b      	ldr	r3, [r7, #4]
 8004352:	681b      	ldr	r3, [r3, #0]
 8004354:	689b      	ldr	r3, [r3, #8]
 8004356:	60bb      	str	r3, [r7, #8]

  /* Reset the MMS Bits */
  tmpcr2 &= ~TIM_CR2_MMS;
 8004358:	68fb      	ldr	r3, [r7, #12]
 800435a:	f023 0370 	bic.w	r3, r3, #112	@ 0x70
 800435e:	60fb      	str	r3, [r7, #12]
  /* Select the TRGO source */
  tmpcr2 |=  sMasterConfig->MasterOutputTrigger;
 8004360:	683b      	ldr	r3, [r7, #0]
 8004362:	681b      	ldr	r3, [r3, #0]
 8004364:	68fa      	ldr	r2, [r7, #12]
 8004366:	4313      	orrs	r3, r2
 8004368:	60fb      	str	r3, [r7, #12]

  /* Update TIMx CR2 */
  htim->Instance->CR2 = tmpcr2;
 800436a:	687b      	ldr	r3, [r7, #4]
 800436c:	681b      	ldr	r3, [r3, #0]
 800436e:	68fa      	ldr	r2, [r7, #12]
 8004370:	605a      	str	r2, [r3, #4]

  if (IS_TIM_SLAVE_INSTANCE(htim->Instance))
 8004372:	687b      	ldr	r3, [r7, #4]
 8004374:	681b      	ldr	r3, [r3, #0]
 8004376:	4a21      	ldr	r2, [pc, #132]	@ (80043fc <HAL_TIMEx_MasterConfigSynchronization+0xdc>)
 8004378:	4293      	cmp	r3, r2
 800437a:	d022      	beq.n	80043c2 <HAL_TIMEx_MasterConfigSynchronization+0xa2>
 800437c:	687b      	ldr	r3, [r7, #4]
 800437e:	681b      	ldr	r3, [r3, #0]
 8004380:	f1b3 4f80 	cmp.w	r3, #1073741824	@ 0x40000000
 8004384:	d01d      	beq.n	80043c2 <HAL_TIMEx_MasterConfigSynchronization+0xa2>
 8004386:	687b      	ldr	r3, [r7, #4]
 8004388:	681b      	ldr	r3, [r3, #0]
 800438a:	4a1d      	ldr	r2, [pc, #116]	@ (8004400 <HAL_TIMEx_MasterConfigSynchronization+0xe0>)
 800438c:	4293      	cmp	r3, r2
 800438e:	d018      	beq.n	80043c2 <HAL_TIMEx_MasterConfigSynchronization+0xa2>
 8004390:	687b      	ldr	r3, [r7, #4]
 8004392:	681b      	ldr	r3, [r3, #0]
 8004394:	4a1b      	ldr	r2, [pc, #108]	@ (8004404 <HAL_TIMEx_MasterConfigSynchronization+0xe4>)
 8004396:	4293      	cmp	r3, r2
 8004398:	d013      	beq.n	80043c2 <HAL_TIMEx_MasterConfigSynchronization+0xa2>
 800439a:	687b      	ldr	r3, [r7, #4]
 800439c:	681b      	ldr	r3, [r3, #0]
 800439e:	4a1a      	ldr	r2, [pc, #104]	@ (8004408 <HAL_TIMEx_MasterConfigSynchronization+0xe8>)
 80043a0:	4293      	cmp	r3, r2
 80043a2:	d00e      	beq.n	80043c2 <HAL_TIMEx_MasterConfigSynchronization+0xa2>
 80043a4:	687b      	ldr	r3, [r7, #4]
 80043a6:	681b      	ldr	r3, [r3, #0]
 80043a8:	4a18      	ldr	r2, [pc, #96]	@ (800440c <HAL_TIMEx_MasterConfigSynchronization+0xec>)
 80043aa:	4293      	cmp	r3, r2
 80043ac:	d009      	beq.n	80043c2 <HAL_TIMEx_MasterConfigSynchronization+0xa2>
 80043ae:	687b      	ldr	r3, [r7, #4]
 80043b0:	681b      	ldr	r3, [r3, #0]
 80043b2:	4a17      	ldr	r2, [pc, #92]	@ (8004410 <HAL_TIMEx_MasterConfigSynchronization+0xf0>)
 80043b4:	4293      	cmp	r3, r2
 80043b6:	d004      	beq.n	80043c2 <HAL_TIMEx_MasterConfigSynchronization+0xa2>
 80043b8:	687b      	ldr	r3, [r7, #4]
 80043ba:	681b      	ldr	r3, [r3, #0]
 80043bc:	4a15      	ldr	r2, [pc, #84]	@ (8004414 <HAL_TIMEx_MasterConfigSynchronization+0xf4>)
 80043be:	4293      	cmp	r3, r2
 80043c0:	d10c      	bne.n	80043dc <HAL_TIMEx_MasterConfigSynchronization+0xbc>
  {
    /* Reset the MSM Bit */
    tmpsmcr &= ~TIM_SMCR_MSM;
 80043c2:	68bb      	ldr	r3, [r7, #8]
 80043c4:	f023 0380 	bic.w	r3, r3, #128	@ 0x80
 80043c8:	60bb      	str	r3, [r7, #8]
    /* Set master mode */
    tmpsmcr |= sMasterConfig->MasterSlaveMode;
 80043ca:	683b      	ldr	r3, [r7, #0]
 80043cc:	685b      	ldr	r3, [r3, #4]
 80043ce:	68ba      	ldr	r2, [r7, #8]
 80043d0:	4313      	orrs	r3, r2
 80043d2:	60bb      	str	r3, [r7, #8]

    /* Update TIMx SMCR */
    htim->Instance->SMCR = tmpsmcr;
 80043d4:	687b      	ldr	r3, [r7, #4]
 80043d6:	681b      	ldr	r3, [r3, #0]
 80043d8:	68ba      	ldr	r2, [r7, #8]
 80043da:	609a      	str	r2, [r3, #8]
  }

  /* Change the htim state */
  htim->State = HAL_TIM_STATE_READY;
 80043dc:	687b      	ldr	r3, [r7, #4]
 80043de:	2201      	movs	r2, #1
 80043e0:	f883 203d 	strb.w	r2, [r3, #61]	@ 0x3d

  __HAL_UNLOCK(htim);
 80043e4:	687b      	ldr	r3, [r7, #4]
 80043e6:	2200      	movs	r2, #0
 80043e8:	f883 203c 	strb.w	r2, [r3, #60]	@ 0x3c

  return HAL_OK;
 80043ec:	2300      	movs	r3, #0
}
 80043ee:	4618      	mov	r0, r3
 80043f0:	3714      	adds	r7, #20
 80043f2:	46bd      	mov	sp, r7
 80043f4:	f85d 7b04 	ldr.w	r7, [sp], #4
 80043f8:	4770      	bx	lr
 80043fa:	bf00      	nop
 80043fc:	40010000 	.word	0x40010000
 8004400:	40000400 	.word	0x40000400
 8004404:	40000800 	.word	0x40000800
 8004408:	40000c00 	.word	0x40000c00
 800440c:	40010400 	.word	0x40010400
 8004410:	40014000 	.word	0x40014000
 8004414:	40001800 	.word	0x40001800

08004418 <HAL_UART_Init>:
  * @param  huart  Pointer to a UART_HandleTypeDef structure that contains
  *                the configuration information for the specified UART module.
  * @retval HAL status
  */
HAL_StatusTypeDef HAL_UART_Init(UART_HandleTypeDef *huart)
{
 8004418:	b580      	push	{r7, lr}
 800441a:	b082      	sub	sp, #8
 800441c:	af00      	add	r7, sp, #0
 800441e:	6078      	str	r0, [r7, #4]
  /* Check the UART handle allocation */
  if (huart == NULL)
 8004420:	687b      	ldr	r3, [r7, #4]
 8004422:	2b00      	cmp	r3, #0
 8004424:	d101      	bne.n	800442a <HAL_UART_Init+0x12>
  {
    return HAL_ERROR;
 8004426:	2301      	movs	r3, #1
 8004428:	e042      	b.n	80044b0 <HAL_UART_Init+0x98>
    assert_param(IS_UART_INSTANCE(huart->Instance));
  }
  assert_param(IS_UART_WORD_LENGTH(huart->Init.WordLength));
  assert_param(IS_UART_OVERSAMPLING(huart->Init.OverSampling));

  if (huart->gState == HAL_UART_STATE_RESET)
 800442a:	687b      	ldr	r3, [r7, #4]
 800442c:	f893 3041 	ldrb.w	r3, [r3, #65]	@ 0x41
 8004430:	b2db      	uxtb	r3, r3
 8004432:	2b00      	cmp	r3, #0
 8004434:	d106      	bne.n	8004444 <HAL_UART_Init+0x2c>
  {
    /* Allocate lock resource and initialize it */
    huart->Lock = HAL_UNLOCKED;
 8004436:	687b      	ldr	r3, [r7, #4]
 8004438:	2200      	movs	r2, #0
 800443a:	f883 2040 	strb.w	r2, [r3, #64]	@ 0x40

    /* Init the low level hardware */
    huart->MspInitCallback(huart);
#else
    /* Init the low level hardware : GPIO, CLOCK */
    HAL_UART_MspInit(huart);
 800443e:	6878      	ldr	r0, [r7, #4]
 8004440:	f7fd f92e 	bl	80016a0 <HAL_UART_MspInit>
#endif /* (USE_HAL_UART_REGISTER_CALLBACKS) */
  }

  huart->gState = HAL_UART_STATE_BUSY;
 8004444:	687b      	ldr	r3, [r7, #4]
 8004446:	2224      	movs	r2, #36	@ 0x24
 8004448:	f883 2041 	strb.w	r2, [r3, #65]	@ 0x41

  /* Disable the peripheral */
  __HAL_UART_DISABLE(huart);
 800444c:	687b      	ldr	r3, [r7, #4]
 800444e:	681b      	ldr	r3, [r3, #0]
 8004450:	68da      	ldr	r2, [r3, #12]
 8004452:	687b      	ldr	r3, [r7, #4]
 8004454:	681b      	ldr	r3, [r3, #0]
 8004456:	f422 5200 	bic.w	r2, r2, #8192	@ 0x2000
 800445a:	60da      	str	r2, [r3, #12]

  /* Set the UART Communication parameters */
  UART_SetConfig(huart);
 800445c:	6878      	ldr	r0, [r7, #4]
 800445e:	f000 fe55 	bl	800510c <UART_SetConfig>

  /* In asynchronous mode, the following bits must be kept cleared:
     - LINEN and CLKEN bits in the USART_CR2 register,
     - SCEN, HDSEL and IREN  bits in the USART_CR3 register.*/
  CLEAR_BIT(huart->Instance->CR2, (USART_CR2_LINEN | USART_CR2_CLKEN));
 8004462:	687b      	ldr	r3, [r7, #4]
 8004464:	681b      	ldr	r3, [r3, #0]
 8004466:	691a      	ldr	r2, [r3, #16]
 8004468:	687b      	ldr	r3, [r7, #4]
 800446a:	681b      	ldr	r3, [r3, #0]
 800446c:	f422 4290 	bic.w	r2, r2, #18432	@ 0x4800
 8004470:	611a      	str	r2, [r3, #16]
  CLEAR_BIT(huart->Instance->CR3, (USART_CR3_SCEN | USART_CR3_HDSEL | USART_CR3_IREN));
 8004472:	687b      	ldr	r3, [r7, #4]
 8004474:	681b      	ldr	r3, [r3, #0]
 8004476:	695a      	ldr	r2, [r3, #20]
 8004478:	687b      	ldr	r3, [r7, #4]
 800447a:	681b      	ldr	r3, [r3, #0]
 800447c:	f022 022a 	bic.w	r2, r2, #42	@ 0x2a
 8004480:	615a      	str	r2, [r3, #20]

  /* Enable the peripheral */
  __HAL_UART_ENABLE(huart);
 8004482:	687b      	ldr	r3, [r7, #4]
 8004484:	681b      	ldr	r3, [r3, #0]
 8004486:	68da      	ldr	r2, [r3, #12]
 8004488:	687b      	ldr	r3, [r7, #4]
 800448a:	681b      	ldr	r3, [r3, #0]
 800448c:	f442 5200 	orr.w	r2, r2, #8192	@ 0x2000
 8004490:	60da      	str	r2, [r3, #12]

  /* Initialize the UART state */
  huart->ErrorCode = HAL_UART_ERROR_NONE;
 8004492:	687b      	ldr	r3, [r7, #4]
 8004494:	2200      	movs	r2, #0
 8004496:	645a      	str	r2, [r3, #68]	@ 0x44
  huart->gState = HAL_UART_STATE_READY;
 8004498:	687b      	ldr	r3, [r7, #4]
 800449a:	2220      	movs	r2, #32
 800449c:	f883 2041 	strb.w	r2, [r3, #65]	@ 0x41
  huart->RxState = HAL_UART_STATE_READY;
 80044a0:	687b      	ldr	r3, [r7, #4]
 80044a2:	2220      	movs	r2, #32
 80044a4:	f883 2042 	strb.w	r2, [r3, #66]	@ 0x42
  huart->RxEventType = HAL_UART_RXEVENT_TC;
 80044a8:	687b      	ldr	r3, [r7, #4]
 80044aa:	2200      	movs	r2, #0
 80044ac:	635a      	str	r2, [r3, #52]	@ 0x34

  return HAL_OK;
 80044ae:	2300      	movs	r3, #0
}
 80044b0:	4618      	mov	r0, r3
 80044b2:	3708      	adds	r7, #8
 80044b4:	46bd      	mov	sp, r7
 80044b6:	bd80      	pop	{r7, pc}

080044b8 <HAL_UART_Transmit>:
  * @param  Size  Amount of data elements (u8 or u16) to be sent
  * @param  Timeout Timeout duration
  * @retval HAL status
  */
HAL_StatusTypeDef HAL_UART_Transmit(UART_HandleTypeDef *huart, const uint8_t *pData, uint16_t Size, uint32_t Timeout)
{
 80044b8:	b580      	push	{r7, lr}
 80044ba:	b08a      	sub	sp, #40	@ 0x28
 80044bc:	af02      	add	r7, sp, #8
 80044be:	60f8      	str	r0, [r7, #12]
 80044c0:	60b9      	str	r1, [r7, #8]
 80044c2:	603b      	str	r3, [r7, #0]
 80044c4:	4613      	mov	r3, r2
 80044c6:	80fb      	strh	r3, [r7, #6]
  const uint8_t  *pdata8bits;
  const uint16_t *pdata16bits;
  uint32_t tickstart = 0U;
 80044c8:	2300      	movs	r3, #0
 80044ca:	617b      	str	r3, [r7, #20]

  /* Check that a Tx process is not already ongoing */
  if (huart->gState == HAL_UART_STATE_READY)
 80044cc:	68fb      	ldr	r3, [r7, #12]
 80044ce:	f893 3041 	ldrb.w	r3, [r3, #65]	@ 0x41
 80044d2:	b2db      	uxtb	r3, r3
 80044d4:	2b20      	cmp	r3, #32
 80044d6:	d175      	bne.n	80045c4 <HAL_UART_Transmit+0x10c>
  {
    if ((pData == NULL) || (Size == 0U))
 80044d8:	68bb      	ldr	r3, [r7, #8]
 80044da:	2b00      	cmp	r3, #0
 80044dc:	d002      	beq.n	80044e4 <HAL_UART_Transmit+0x2c>
 80044de:	88fb      	ldrh	r3, [r7, #6]
 80044e0:	2b00      	cmp	r3, #0
 80044e2:	d101      	bne.n	80044e8 <HAL_UART_Transmit+0x30>
    {
      return  HAL_ERROR;
 80044e4:	2301      	movs	r3, #1
 80044e6:	e06e      	b.n	80045c6 <HAL_UART_Transmit+0x10e>
    }

    huart->ErrorCode = HAL_UART_ERROR_NONE;
 80044e8:	68fb      	ldr	r3, [r7, #12]
 80044ea:	2200      	movs	r2, #0
 80044ec:	645a      	str	r2, [r3, #68]	@ 0x44
    huart->gState = HAL_UART_STATE_BUSY_TX;
 80044ee:	68fb      	ldr	r3, [r7, #12]
 80044f0:	2221      	movs	r2, #33	@ 0x21
 80044f2:	f883 2041 	strb.w	r2, [r3, #65]	@ 0x41

    /* Init tickstart for timeout management */
    tickstart = HAL_GetTick();
 80044f6:	f7fd fe3f 	bl	8002178 <HAL_GetTick>
 80044fa:	6178      	str	r0, [r7, #20]

    huart->TxXferSize = Size;
 80044fc:	68fb      	ldr	r3, [r7, #12]
 80044fe:	88fa      	ldrh	r2, [r7, #6]
 8004500:	849a      	strh	r2, [r3, #36]	@ 0x24
    huart->TxXferCount = Size;
 8004502:	68fb      	ldr	r3, [r7, #12]
 8004504:	88fa      	ldrh	r2, [r7, #6]
 8004506:	84da      	strh	r2, [r3, #38]	@ 0x26

    /* In case of 9bits/No Parity transfer, pData needs to be handled as a uint16_t pointer */
    if ((huart->Init.WordLength == UART_WORDLENGTH_9B) && (huart->Init.Parity == UART_PARITY_NONE))
 8004508:	68fb      	ldr	r3, [r7, #12]
 800450a:	689b      	ldr	r3, [r3, #8]
 800450c:	f5b3 5f80 	cmp.w	r3, #4096	@ 0x1000
 8004510:	d108      	bne.n	8004524 <HAL_UART_Transmit+0x6c>
 8004512:	68fb      	ldr	r3, [r7, #12]
 8004514:	691b      	ldr	r3, [r3, #16]
 8004516:	2b00      	cmp	r3, #0
 8004518:	d104      	bne.n	8004524 <HAL_UART_Transmit+0x6c>
    {
      pdata8bits  = NULL;
 800451a:	2300      	movs	r3, #0
 800451c:	61fb      	str	r3, [r7, #28]
      pdata16bits = (const uint16_t *) pData;
 800451e:	68bb      	ldr	r3, [r7, #8]
 8004520:	61bb      	str	r3, [r7, #24]
 8004522:	e003      	b.n	800452c <HAL_UART_Transmit+0x74>
    }
    else
    {
      pdata8bits  = pData;
 8004524:	68bb      	ldr	r3, [r7, #8]
 8004526:	61fb      	str	r3, [r7, #28]
      pdata16bits = NULL;
 8004528:	2300      	movs	r3, #0
 800452a:	61bb      	str	r3, [r7, #24]
    }

    while (huart->TxXferCount > 0U)
 800452c:	e02e      	b.n	800458c <HAL_UART_Transmit+0xd4>
    {
      if (UART_WaitOnFlagUntilTimeout(huart, UART_FLAG_TXE, RESET, tickstart, Timeout) != HAL_OK)
 800452e:	683b      	ldr	r3, [r7, #0]
 8004530:	9300      	str	r3, [sp, #0]
 8004532:	697b      	ldr	r3, [r7, #20]
 8004534:	2200      	movs	r2, #0
 8004536:	2180      	movs	r1, #128	@ 0x80
 8004538:	68f8      	ldr	r0, [r7, #12]
 800453a:	f000 fbb7 	bl	8004cac <UART_WaitOnFlagUntilTimeout>
 800453e:	4603      	mov	r3, r0
 8004540:	2b00      	cmp	r3, #0
 8004542:	d005      	beq.n	8004550 <HAL_UART_Transmit+0x98>
      {
        huart->gState = HAL_UART_STATE_READY;
 8004544:	68fb      	ldr	r3, [r7, #12]
 8004546:	2220      	movs	r2, #32
 8004548:	f883 2041 	strb.w	r2, [r3, #65]	@ 0x41

        return HAL_TIMEOUT;
 800454c:	2303      	movs	r3, #3
 800454e:	e03a      	b.n	80045c6 <HAL_UART_Transmit+0x10e>
      }
      if (pdata8bits == NULL)
 8004550:	69fb      	ldr	r3, [r7, #28]
 8004552:	2b00      	cmp	r3, #0
 8004554:	d10b      	bne.n	800456e <HAL_UART_Transmit+0xb6>
      {
        huart->Instance->DR = (uint16_t)(*pdata16bits & 0x01FFU);
 8004556:	69bb      	ldr	r3, [r7, #24]
 8004558:	881b      	ldrh	r3, [r3, #0]
 800455a:	461a      	mov	r2, r3
 800455c:	68fb      	ldr	r3, [r7, #12]
 800455e:	681b      	ldr	r3, [r3, #0]
 8004560:	f3c2 0208 	ubfx	r2, r2, #0, #9
 8004564:	605a      	str	r2, [r3, #4]
        pdata16bits++;
 8004566:	69bb      	ldr	r3, [r7, #24]
 8004568:	3302      	adds	r3, #2
 800456a:	61bb      	str	r3, [r7, #24]
 800456c:	e007      	b.n	800457e <HAL_UART_Transmit+0xc6>
      }
      else
      {
        huart->Instance->DR = (uint8_t)(*pdata8bits & 0xFFU);
 800456e:	69fb      	ldr	r3, [r7, #28]
 8004570:	781a      	ldrb	r2, [r3, #0]
 8004572:	68fb      	ldr	r3, [r7, #12]
 8004574:	681b      	ldr	r3, [r3, #0]
 8004576:	605a      	str	r2, [r3, #4]
        pdata8bits++;
 8004578:	69fb      	ldr	r3, [r7, #28]
 800457a:	3301      	adds	r3, #1
 800457c:	61fb      	str	r3, [r7, #28]
      }
      huart->TxXferCount--;
 800457e:	68fb      	ldr	r3, [r7, #12]
 8004580:	8cdb      	ldrh	r3, [r3, #38]	@ 0x26
 8004582:	b29b      	uxth	r3, r3
 8004584:	3b01      	subs	r3, #1
 8004586:	b29a      	uxth	r2, r3
 8004588:	68fb      	ldr	r3, [r7, #12]
 800458a:	84da      	strh	r2, [r3, #38]	@ 0x26
    while (huart->TxXferCount > 0U)
 800458c:	68fb      	ldr	r3, [r7, #12]
 800458e:	8cdb      	ldrh	r3, [r3, #38]	@ 0x26
 8004590:	b29b      	uxth	r3, r3
 8004592:	2b00      	cmp	r3, #0
 8004594:	d1cb      	bne.n	800452e <HAL_UART_Transmit+0x76>
    }

    if (UART_WaitOnFlagUntilTimeout(huart, UART_FLAG_TC, RESET, tickstart, Timeout) != HAL_OK)
 8004596:	683b      	ldr	r3, [r7, #0]
 8004598:	9300      	str	r3, [sp, #0]
 800459a:	697b      	ldr	r3, [r7, #20]
 800459c:	2200      	movs	r2, #0
 800459e:	2140      	movs	r1, #64	@ 0x40
 80045a0:	68f8      	ldr	r0, [r7, #12]
 80045a2:	f000 fb83 	bl	8004cac <UART_WaitOnFlagUntilTimeout>
 80045a6:	4603      	mov	r3, r0
 80045a8:	2b00      	cmp	r3, #0
 80045aa:	d005      	beq.n	80045b8 <HAL_UART_Transmit+0x100>
    {
      huart->gState = HAL_UART_STATE_READY;
 80045ac:	68fb      	ldr	r3, [r7, #12]
 80045ae:	2220      	movs	r2, #32
 80045b0:	f883 2041 	strb.w	r2, [r3, #65]	@ 0x41

      return HAL_TIMEOUT;
 80045b4:	2303      	movs	r3, #3
 80045b6:	e006      	b.n	80045c6 <HAL_UART_Transmit+0x10e>
    }

    /* At end of Tx process, restore huart->gState to Ready */
    huart->gState = HAL_UART_STATE_READY;
 80045b8:	68fb      	ldr	r3, [r7, #12]
 80045ba:	2220      	movs	r2, #32
 80045bc:	f883 2041 	strb.w	r2, [r3, #65]	@ 0x41

    return HAL_OK;
 80045c0:	2300      	movs	r3, #0
 80045c2:	e000      	b.n	80045c6 <HAL_UART_Transmit+0x10e>
  }
  else
  {
    return HAL_BUSY;
 80045c4:	2302      	movs	r3, #2
  }
}
 80045c6:	4618      	mov	r0, r3
 80045c8:	3720      	adds	r7, #32
 80045ca:	46bd      	mov	sp, r7
 80045cc:	bd80      	pop	{r7, pc}

080045ce <HAL_UART_Receive>:
  * @param  Size  Amount of data elements (u8 or u16) to be received.
  * @param  Timeout Timeout duration
  * @retval HAL status
  */
HAL_StatusTypeDef HAL_UART_Receive(UART_HandleTypeDef *huart, uint8_t *pData, uint16_t Size, uint32_t Timeout)
{
 80045ce:	b580      	push	{r7, lr}
 80045d0:	b08a      	sub	sp, #40	@ 0x28
 80045d2:	af02      	add	r7, sp, #8
 80045d4:	60f8      	str	r0, [r7, #12]
 80045d6:	60b9      	str	r1, [r7, #8]
 80045d8:	603b      	str	r3, [r7, #0]
 80045da:	4613      	mov	r3, r2
 80045dc:	80fb      	strh	r3, [r7, #6]
  uint8_t  *pdata8bits;
  uint16_t *pdata16bits;
  uint32_t tickstart = 0U;
 80045de:	2300      	movs	r3, #0
 80045e0:	617b      	str	r3, [r7, #20]

  /* Check that a Rx process is not already ongoing */
  if (huart->RxState == HAL_UART_STATE_READY)
 80045e2:	68fb      	ldr	r3, [r7, #12]
 80045e4:	f893 3042 	ldrb.w	r3, [r3, #66]	@ 0x42
 80045e8:	b2db      	uxtb	r3, r3
 80045ea:	2b20      	cmp	r3, #32
 80045ec:	f040 8081 	bne.w	80046f2 <HAL_UART_Receive+0x124>
  {
    if ((pData == NULL) || (Size == 0U))
 80045f0:	68bb      	ldr	r3, [r7, #8]
 80045f2:	2b00      	cmp	r3, #0
 80045f4:	d002      	beq.n	80045fc <HAL_UART_Receive+0x2e>
 80045f6:	88fb      	ldrh	r3, [r7, #6]
 80045f8:	2b00      	cmp	r3, #0
 80045fa:	d101      	bne.n	8004600 <HAL_UART_Receive+0x32>
    {
      return  HAL_ERROR;
 80045fc:	2301      	movs	r3, #1
 80045fe:	e079      	b.n	80046f4 <HAL_UART_Receive+0x126>
    }

    huart->ErrorCode = HAL_UART_ERROR_NONE;
 8004600:	68fb      	ldr	r3, [r7, #12]
 8004602:	2200      	movs	r2, #0
 8004604:	645a      	str	r2, [r3, #68]	@ 0x44
    huart->RxState = HAL_UART_STATE_BUSY_RX;
 8004606:	68fb      	ldr	r3, [r7, #12]
 8004608:	2222      	movs	r2, #34	@ 0x22
 800460a:	f883 2042 	strb.w	r2, [r3, #66]	@ 0x42
    huart->ReceptionType = HAL_UART_RECEPTION_STANDARD;
 800460e:	68fb      	ldr	r3, [r7, #12]
 8004610:	2200      	movs	r2, #0
 8004612:	631a      	str	r2, [r3, #48]	@ 0x30

    /* Init tickstart for timeout management */
    tickstart = HAL_GetTick();
 8004614:	f7fd fdb0 	bl	8002178 <HAL_GetTick>
 8004618:	6178      	str	r0, [r7, #20]

    huart->RxXferSize = Size;
 800461a:	68fb      	ldr	r3, [r7, #12]
 800461c:	88fa      	ldrh	r2, [r7, #6]
 800461e:	859a      	strh	r2, [r3, #44]	@ 0x2c
    huart->RxXferCount = Size;
 8004620:	68fb      	ldr	r3, [r7, #12]
 8004622:	88fa      	ldrh	r2, [r7, #6]
 8004624:	85da      	strh	r2, [r3, #46]	@ 0x2e

    /* In case of 9bits/No Parity transfer, pRxData needs to be handled as a uint16_t pointer */
    if ((huart->Init.WordLength == UART_WORDLENGTH_9B) && (huart->Init.Parity == UART_PARITY_NONE))
 8004626:	68fb      	ldr	r3, [r7, #12]
 8004628:	689b      	ldr	r3, [r3, #8]
 800462a:	f5b3 5f80 	cmp.w	r3, #4096	@ 0x1000
 800462e:	d108      	bne.n	8004642 <HAL_UART_Receive+0x74>
 8004630:	68fb      	ldr	r3, [r7, #12]
 8004632:	691b      	ldr	r3, [r3, #16]
 8004634:	2b00      	cmp	r3, #0
 8004636:	d104      	bne.n	8004642 <HAL_UART_Receive+0x74>
    {
      pdata8bits  = NULL;
 8004638:	2300      	movs	r3, #0
 800463a:	61fb      	str	r3, [r7, #28]
      pdata16bits = (uint16_t *) pData;
 800463c:	68bb      	ldr	r3, [r7, #8]
 800463e:	61bb      	str	r3, [r7, #24]
 8004640:	e003      	b.n	800464a <HAL_UART_Receive+0x7c>
    }
    else
    {
      pdata8bits  = pData;
 8004642:	68bb      	ldr	r3, [r7, #8]
 8004644:	61fb      	str	r3, [r7, #28]
      pdata16bits = NULL;
 8004646:	2300      	movs	r3, #0
 8004648:	61bb      	str	r3, [r7, #24]
    }

    /* Check the remain data to be received */
    while (huart->RxXferCount > 0U)
 800464a:	e047      	b.n	80046dc <HAL_UART_Receive+0x10e>
    {
      if (UART_WaitOnFlagUntilTimeout(huart, UART_FLAG_RXNE, RESET, tickstart, Timeout) != HAL_OK)
 800464c:	683b      	ldr	r3, [r7, #0]
 800464e:	9300      	str	r3, [sp, #0]
 8004650:	697b      	ldr	r3, [r7, #20]
 8004652:	2200      	movs	r2, #0
 8004654:	2120      	movs	r1, #32
 8004656:	68f8      	ldr	r0, [r7, #12]
 8004658:	f000 fb28 	bl	8004cac <UART_WaitOnFlagUntilTimeout>
 800465c:	4603      	mov	r3, r0
 800465e:	2b00      	cmp	r3, #0
 8004660:	d005      	beq.n	800466e <HAL_UART_Receive+0xa0>
      {
        huart->RxState = HAL_UART_STATE_READY;
 8004662:	68fb      	ldr	r3, [r7, #12]
 8004664:	2220      	movs	r2, #32
 8004666:	f883 2042 	strb.w	r2, [r3, #66]	@ 0x42

        return HAL_TIMEOUT;
 800466a:	2303      	movs	r3, #3
 800466c:	e042      	b.n	80046f4 <HAL_UART_Receive+0x126>
      }
      if (pdata8bits == NULL)
 800466e:	69fb      	ldr	r3, [r7, #28]
 8004670:	2b00      	cmp	r3, #0
 8004672:	d10c      	bne.n	800468e <HAL_UART_Receive+0xc0>
      {
        *pdata16bits = (uint16_t)(huart->Instance->DR & 0x01FF);
 8004674:	68fb      	ldr	r3, [r7, #12]
 8004676:	681b      	ldr	r3, [r3, #0]
 8004678:	685b      	ldr	r3, [r3, #4]
 800467a:	b29b      	uxth	r3, r3
 800467c:	f3c3 0308 	ubfx	r3, r3, #0, #9
 8004680:	b29a      	uxth	r2, r3
 8004682:	69bb      	ldr	r3, [r7, #24]
 8004684:	801a      	strh	r2, [r3, #0]
        pdata16bits++;
 8004686:	69bb      	ldr	r3, [r7, #24]
 8004688:	3302      	adds	r3, #2
 800468a:	61bb      	str	r3, [r7, #24]
 800468c:	e01f      	b.n	80046ce <HAL_UART_Receive+0x100>
      }
      else
      {
        if ((huart->Init.WordLength == UART_WORDLENGTH_9B) || ((huart->Init.WordLength == UART_WORDLENGTH_8B) && (huart->Init.Parity == UART_PARITY_NONE)))
 800468e:	68fb      	ldr	r3, [r7, #12]
 8004690:	689b      	ldr	r3, [r3, #8]
 8004692:	f5b3 5f80 	cmp.w	r3, #4096	@ 0x1000
 8004696:	d007      	beq.n	80046a8 <HAL_UART_Receive+0xda>
 8004698:	68fb      	ldr	r3, [r7, #12]
 800469a:	689b      	ldr	r3, [r3, #8]
 800469c:	2b00      	cmp	r3, #0
 800469e:	d10a      	bne.n	80046b6 <HAL_UART_Receive+0xe8>
 80046a0:	68fb      	ldr	r3, [r7, #12]
 80046a2:	691b      	ldr	r3, [r3, #16]
 80046a4:	2b00      	cmp	r3, #0
 80046a6:	d106      	bne.n	80046b6 <HAL_UART_Receive+0xe8>
        {
          *pdata8bits = (uint8_t)(huart->Instance->DR & (uint8_t)0x00FF);
 80046a8:	68fb      	ldr	r3, [r7, #12]
 80046aa:	681b      	ldr	r3, [r3, #0]
 80046ac:	685b      	ldr	r3, [r3, #4]
 80046ae:	b2da      	uxtb	r2, r3
 80046b0:	69fb      	ldr	r3, [r7, #28]
 80046b2:	701a      	strb	r2, [r3, #0]
 80046b4:	e008      	b.n	80046c8 <HAL_UART_Receive+0xfa>
        }
        else
        {
          *pdata8bits = (uint8_t)(huart->Instance->DR & (uint8_t)0x007F);
 80046b6:	68fb      	ldr	r3, [r7, #12]
 80046b8:	681b      	ldr	r3, [r3, #0]
 80046ba:	685b      	ldr	r3, [r3, #4]
 80046bc:	b2db      	uxtb	r3, r3
 80046be:	f003 037f 	and.w	r3, r3, #127	@ 0x7f
 80046c2:	b2da      	uxtb	r2, r3
 80046c4:	69fb      	ldr	r3, [r7, #28]
 80046c6:	701a      	strb	r2, [r3, #0]
        }
        pdata8bits++;
 80046c8:	69fb      	ldr	r3, [r7, #28]
 80046ca:	3301      	adds	r3, #1
 80046cc:	61fb      	str	r3, [r7, #28]
      }
      huart->RxXferCount--;
 80046ce:	68fb      	ldr	r3, [r7, #12]
 80046d0:	8ddb      	ldrh	r3, [r3, #46]	@ 0x2e
 80046d2:	b29b      	uxth	r3, r3
 80046d4:	3b01      	subs	r3, #1
 80046d6:	b29a      	uxth	r2, r3
 80046d8:	68fb      	ldr	r3, [r7, #12]
 80046da:	85da      	strh	r2, [r3, #46]	@ 0x2e
    while (huart->RxXferCount > 0U)
 80046dc:	68fb      	ldr	r3, [r7, #12]
 80046de:	8ddb      	ldrh	r3, [r3, #46]	@ 0x2e
 80046e0:	b29b      	uxth	r3, r3
 80046e2:	2b00      	cmp	r3, #0
 80046e4:	d1b2      	bne.n	800464c <HAL_UART_Receive+0x7e>
    }

    /* At end of Rx process, restore huart->RxState to Ready */
    huart->RxState = HAL_UART_STATE_READY;
 80046e6:	68fb      	ldr	r3, [r7, #12]
 80046e8:	2220      	movs	r2, #32
 80046ea:	f883 2042 	strb.w	r2, [r3, #66]	@ 0x42

    return HAL_OK;
 80046ee:	2300      	movs	r3, #0
 80046f0:	e000      	b.n	80046f4 <HAL_UART_Receive+0x126>
  }
  else
  {
    return HAL_BUSY;
 80046f2:	2302      	movs	r3, #2
  }
}
 80046f4:	4618      	mov	r0, r3
 80046f6:	3720      	adds	r7, #32
 80046f8:	46bd      	mov	sp, r7
 80046fa:	bd80      	pop	{r7, pc}

080046fc <HAL_UART_Receive_IT>:
  * @param  pData Pointer to data buffer (u8 or u16 data elements).
  * @param  Size  Amount of data elements (u8 or u16) to be received.
  * @retval HAL status
  */
HAL_StatusTypeDef HAL_UART_Receive_IT(UART_HandleTypeDef *huart, uint8_t *pData, uint16_t Size)
{
 80046fc:	b580      	push	{r7, lr}
 80046fe:	b084      	sub	sp, #16
 8004700:	af00      	add	r7, sp, #0
 8004702:	60f8      	str	r0, [r7, #12]
 8004704:	60b9      	str	r1, [r7, #8]
 8004706:	4613      	mov	r3, r2
 8004708:	80fb      	strh	r3, [r7, #6]
  /* Check that a Rx process is not already ongoing */
  if (huart->RxState == HAL_UART_STATE_READY)
 800470a:	68fb      	ldr	r3, [r7, #12]
 800470c:	f893 3042 	ldrb.w	r3, [r3, #66]	@ 0x42
 8004710:	b2db      	uxtb	r3, r3
 8004712:	2b20      	cmp	r3, #32
 8004714:	d112      	bne.n	800473c <HAL_UART_Receive_IT+0x40>
  {
    if ((pData == NULL) || (Size == 0U))
 8004716:	68bb      	ldr	r3, [r7, #8]
 8004718:	2b00      	cmp	r3, #0
 800471a:	d002      	beq.n	8004722 <HAL_UART_Receive_IT+0x26>
 800471c:	88fb      	ldrh	r3, [r7, #6]
 800471e:	2b00      	cmp	r3, #0
 8004720:	d101      	bne.n	8004726 <HAL_UART_Receive_IT+0x2a>
    {
      return HAL_ERROR;
 8004722:	2301      	movs	r3, #1
 8004724:	e00b      	b.n	800473e <HAL_UART_Receive_IT+0x42>
    }

    /* Set Reception type to Standard reception */
    huart->ReceptionType = HAL_UART_RECEPTION_STANDARD;
 8004726:	68fb      	ldr	r3, [r7, #12]
 8004728:	2200      	movs	r2, #0
 800472a:	631a      	str	r2, [r3, #48]	@ 0x30

    return (UART_Start_Receive_IT(huart, pData, Size));
 800472c:	88fb      	ldrh	r3, [r7, #6]
 800472e:	461a      	mov	r2, r3
 8004730:	68b9      	ldr	r1, [r7, #8]
 8004732:	68f8      	ldr	r0, [r7, #12]
 8004734:	f000 fb13 	bl	8004d5e <UART_Start_Receive_IT>
 8004738:	4603      	mov	r3, r0
 800473a:	e000      	b.n	800473e <HAL_UART_Receive_IT+0x42>
  }
  else
  {
    return HAL_BUSY;
 800473c:	2302      	movs	r3, #2
  }
}
 800473e:	4618      	mov	r0, r3
 8004740:	3710      	adds	r7, #16
 8004742:	46bd      	mov	sp, r7
 8004744:	bd80      	pop	{r7, pc}
	...

08004748 <HAL_UART_IRQHandler>:
  * @param  huart  Pointer to a UART_HandleTypeDef structure that contains
  *                the configuration information for the specified UART module.
  * @retval None
  */
void HAL_UART_IRQHandler(UART_HandleTypeDef *huart)
{
 8004748:	b580      	push	{r7, lr}
 800474a:	b0ba      	sub	sp, #232	@ 0xe8
 800474c:	af00      	add	r7, sp, #0
 800474e:	6078      	str	r0, [r7, #4]
  uint32_t isrflags   = READ_REG(huart->Instance->SR);
 8004750:	687b      	ldr	r3, [r7, #4]
 8004752:	681b      	ldr	r3, [r3, #0]
 8004754:	681b      	ldr	r3, [r3, #0]
 8004756:	f8c7 30e4 	str.w	r3, [r7, #228]	@ 0xe4
  uint32_t cr1its     = READ_REG(huart->Instance->CR1);
 800475a:	687b      	ldr	r3, [r7, #4]
 800475c:	681b      	ldr	r3, [r3, #0]
 800475e:	68db      	ldr	r3, [r3, #12]
 8004760:	f8c7 30e0 	str.w	r3, [r7, #224]	@ 0xe0
  uint32_t cr3its     = READ_REG(huart->Instance->CR3);
 8004764:	687b      	ldr	r3, [r7, #4]
 8004766:	681b      	ldr	r3, [r3, #0]
 8004768:	695b      	ldr	r3, [r3, #20]
 800476a:	f8c7 30dc 	str.w	r3, [r7, #220]	@ 0xdc
  uint32_t errorflags = 0x00U;
 800476e:	2300      	movs	r3, #0
 8004770:	f8c7 30d8 	str.w	r3, [r7, #216]	@ 0xd8
  uint32_t dmarequest = 0x00U;
 8004774:	2300      	movs	r3, #0
 8004776:	f8c7 30d4 	str.w	r3, [r7, #212]	@ 0xd4

  /* If no error occurs */
  errorflags = (isrflags & (uint32_t)(USART_SR_PE | USART_SR_FE | USART_SR_ORE | USART_SR_NE));
 800477a:	f8d7 30e4 	ldr.w	r3, [r7, #228]	@ 0xe4
 800477e:	f003 030f 	and.w	r3, r3, #15
 8004782:	f8c7 30d8 	str.w	r3, [r7, #216]	@ 0xd8
  if (errorflags == RESET)
 8004786:	f8d7 30d8 	ldr.w	r3, [r7, #216]	@ 0xd8
 800478a:	2b00      	cmp	r3, #0
 800478c:	d10f      	bne.n	80047ae <HAL_UART_IRQHandler+0x66>
  {
    /* UART in mode Receiver -------------------------------------------------*/
    if (((isrflags & USART_SR_RXNE) != RESET) && ((cr1its & USART_CR1_RXNEIE) != RESET))
 800478e:	f8d7 30e4 	ldr.w	r3, [r7, #228]	@ 0xe4
 8004792:	f003 0320 	and.w	r3, r3, #32
 8004796:	2b00      	cmp	r3, #0
 8004798:	d009      	beq.n	80047ae <HAL_UART_IRQHandler+0x66>
 800479a:	f8d7 30e0 	ldr.w	r3, [r7, #224]	@ 0xe0
 800479e:	f003 0320 	and.w	r3, r3, #32
 80047a2:	2b00      	cmp	r3, #0
 80047a4:	d003      	beq.n	80047ae <HAL_UART_IRQHandler+0x66>
    {
      UART_Receive_IT(huart);
 80047a6:	6878      	ldr	r0, [r7, #4]
 80047a8:	f000 fbf2 	bl	8004f90 <UART_Receive_IT>
      return;
 80047ac:	e25b      	b.n	8004c66 <HAL_UART_IRQHandler+0x51e>
    }
  }

  /* If some errors occur */
  if ((errorflags != RESET) && (((cr3its & USART_CR3_EIE) != RESET)
 80047ae:	f8d7 30d8 	ldr.w	r3, [r7, #216]	@ 0xd8
 80047b2:	2b00      	cmp	r3, #0
 80047b4:	f000 80de 	beq.w	8004974 <HAL_UART_IRQHandler+0x22c>
 80047b8:	f8d7 30dc 	ldr.w	r3, [r7, #220]	@ 0xdc
 80047bc:	f003 0301 	and.w	r3, r3, #1
 80047c0:	2b00      	cmp	r3, #0
 80047c2:	d106      	bne.n	80047d2 <HAL_UART_IRQHandler+0x8a>
                                || ((cr1its & (USART_CR1_RXNEIE | USART_CR1_PEIE)) != RESET)))
 80047c4:	f8d7 30e0 	ldr.w	r3, [r7, #224]	@ 0xe0
 80047c8:	f403 7390 	and.w	r3, r3, #288	@ 0x120
 80047cc:	2b00      	cmp	r3, #0
 80047ce:	f000 80d1 	beq.w	8004974 <HAL_UART_IRQHandler+0x22c>
  {
    /* UART parity error interrupt occurred ----------------------------------*/
    if (((isrflags & USART_SR_PE) != RESET) && ((cr1its & USART_CR1_PEIE) != RESET))
 80047d2:	f8d7 30e4 	ldr.w	r3, [r7, #228]	@ 0xe4
 80047d6:	f003 0301 	and.w	r3, r3, #1
 80047da:	2b00      	cmp	r3, #0
 80047dc:	d00b      	beq.n	80047f6 <HAL_UART_IRQHandler+0xae>
 80047de:	f8d7 30e0 	ldr.w	r3, [r7, #224]	@ 0xe0
 80047e2:	f403 7380 	and.w	r3, r3, #256	@ 0x100
 80047e6:	2b00      	cmp	r3, #0
 80047e8:	d005      	beq.n	80047f6 <HAL_UART_IRQHandler+0xae>
    {
      huart->ErrorCode |= HAL_UART_ERROR_PE;
 80047ea:	687b      	ldr	r3, [r7, #4]
 80047ec:	6c5b      	ldr	r3, [r3, #68]	@ 0x44
 80047ee:	f043 0201 	orr.w	r2, r3, #1
 80047f2:	687b      	ldr	r3, [r7, #4]
 80047f4:	645a      	str	r2, [r3, #68]	@ 0x44
    }

    /* UART noise error interrupt occurred -----------------------------------*/
    if (((isrflags & USART_SR_NE) != RESET) && ((cr3its & USART_CR3_EIE) != RESET))
 80047f6:	f8d7 30e4 	ldr.w	r3, [r7, #228]	@ 0xe4
 80047fa:	f003 0304 	and.w	r3, r3, #4
 80047fe:	2b00      	cmp	r3, #0
 8004800:	d00b      	beq.n	800481a <HAL_UART_IRQHandler+0xd2>
 8004802:	f8d7 30dc 	ldr.w	r3, [r7, #220]	@ 0xdc
 8004806:	f003 0301 	and.w	r3, r3, #1
 800480a:	2b00      	cmp	r3, #0
 800480c:	d005      	beq.n	800481a <HAL_UART_IRQHandler+0xd2>
    {
      huart->ErrorCode |= HAL_UART_ERROR_NE;
 800480e:	687b      	ldr	r3, [r7, #4]
 8004810:	6c5b      	ldr	r3, [r3, #68]	@ 0x44
 8004812:	f043 0202 	orr.w	r2, r3, #2
 8004816:	687b      	ldr	r3, [r7, #4]
 8004818:	645a      	str	r2, [r3, #68]	@ 0x44
    }

    /* UART frame error interrupt occurred -----------------------------------*/
    if (((isrflags & USART_SR_FE) != RESET) && ((cr3its & USART_CR3_EIE) != RESET))
 800481a:	f8d7 30e4 	ldr.w	r3, [r7, #228]	@ 0xe4
 800481e:	f003 0302 	and.w	r3, r3, #2
 8004822:	2b00      	cmp	r3, #0
 8004824:	d00b      	beq.n	800483e <HAL_UART_IRQHandler+0xf6>
 8004826:	f8d7 30dc 	ldr.w	r3, [r7, #220]	@ 0xdc
 800482a:	f003 0301 	and.w	r3, r3, #1
 800482e:	2b00      	cmp	r3, #0
 8004830:	d005      	beq.n	800483e <HAL_UART_IRQHandler+0xf6>
    {
      huart->ErrorCode |= HAL_UART_ERROR_FE;
 8004832:	687b      	ldr	r3, [r7, #4]
 8004834:	6c5b      	ldr	r3, [r3, #68]	@ 0x44
 8004836:	f043 0204 	orr.w	r2, r3, #4
 800483a:	687b      	ldr	r3, [r7, #4]
 800483c:	645a      	str	r2, [r3, #68]	@ 0x44
    }

    /* UART Over-Run interrupt occurred --------------------------------------*/
    if (((isrflags & USART_SR_ORE) != RESET) && (((cr1its & USART_CR1_RXNEIE) != RESET)
 800483e:	f8d7 30e4 	ldr.w	r3, [r7, #228]	@ 0xe4
 8004842:	f003 0308 	and.w	r3, r3, #8
 8004846:	2b00      	cmp	r3, #0
 8004848:	d011      	beq.n	800486e <HAL_UART_IRQHandler+0x126>
 800484a:	f8d7 30e0 	ldr.w	r3, [r7, #224]	@ 0xe0
 800484e:	f003 0320 	and.w	r3, r3, #32
 8004852:	2b00      	cmp	r3, #0
 8004854:	d105      	bne.n	8004862 <HAL_UART_IRQHandler+0x11a>
                                                 || ((cr3its & USART_CR3_EIE) != RESET)))
 8004856:	f8d7 30dc 	ldr.w	r3, [r7, #220]	@ 0xdc
 800485a:	f003 0301 	and.w	r3, r3, #1
 800485e:	2b00      	cmp	r3, #0
 8004860:	d005      	beq.n	800486e <HAL_UART_IRQHandler+0x126>
    {
      huart->ErrorCode |= HAL_UART_ERROR_ORE;
 8004862:	687b      	ldr	r3, [r7, #4]
 8004864:	6c5b      	ldr	r3, [r3, #68]	@ 0x44
 8004866:	f043 0208 	orr.w	r2, r3, #8
 800486a:	687b      	ldr	r3, [r7, #4]
 800486c:	645a      	str	r2, [r3, #68]	@ 0x44
    }

    /* Call UART Error Call back function if need be --------------------------*/
    if (huart->ErrorCode != HAL_UART_ERROR_NONE)
 800486e:	687b      	ldr	r3, [r7, #4]
 8004870:	6c5b      	ldr	r3, [r3, #68]	@ 0x44
 8004872:	2b00      	cmp	r3, #0
 8004874:	f000 81f2 	beq.w	8004c5c <HAL_UART_IRQHandler+0x514>
    {
      /* UART in mode Receiver -----------------------------------------------*/
      if (((isrflags & USART_SR_RXNE) != RESET) && ((cr1its & USART_CR1_RXNEIE) != RESET))
 8004878:	f8d7 30e4 	ldr.w	r3, [r7, #228]	@ 0xe4
 800487c:	f003 0320 	and.w	r3, r3, #32
 8004880:	2b00      	cmp	r3, #0
 8004882:	d008      	beq.n	8004896 <HAL_UART_IRQHandler+0x14e>
 8004884:	f8d7 30e0 	ldr.w	r3, [r7, #224]	@ 0xe0
 8004888:	f003 0320 	and.w	r3, r3, #32
 800488c:	2b00      	cmp	r3, #0
 800488e:	d002      	beq.n	8004896 <HAL_UART_IRQHandler+0x14e>
      {
        UART_Receive_IT(huart);
 8004890:	6878      	ldr	r0, [r7, #4]
 8004892:	f000 fb7d 	bl	8004f90 <UART_Receive_IT>
      }

      /* If Overrun error occurs, or if any error occurs in DMA mode reception,
         consider error as blocking */
      dmarequest = HAL_IS_BIT_SET(huart->Instance->CR3, USART_CR3_DMAR);
 8004896:	687b      	ldr	r3, [r7, #4]
 8004898:	681b      	ldr	r3, [r3, #0]
 800489a:	695b      	ldr	r3, [r3, #20]
 800489c:	f003 0340 	and.w	r3, r3, #64	@ 0x40
 80048a0:	2b40      	cmp	r3, #64	@ 0x40
 80048a2:	bf0c      	ite	eq
 80048a4:	2301      	moveq	r3, #1
 80048a6:	2300      	movne	r3, #0
 80048a8:	b2db      	uxtb	r3, r3
 80048aa:	f8c7 30d4 	str.w	r3, [r7, #212]	@ 0xd4
      if (((huart->ErrorCode & HAL_UART_ERROR_ORE) != RESET) || dmarequest)
 80048ae:	687b      	ldr	r3, [r7, #4]
 80048b0:	6c5b      	ldr	r3, [r3, #68]	@ 0x44
 80048b2:	f003 0308 	and.w	r3, r3, #8
 80048b6:	2b00      	cmp	r3, #0
 80048b8:	d103      	bne.n	80048c2 <HAL_UART_IRQHandler+0x17a>
 80048ba:	f8d7 30d4 	ldr.w	r3, [r7, #212]	@ 0xd4
 80048be:	2b00      	cmp	r3, #0
 80048c0:	d04f      	beq.n	8004962 <HAL_UART_IRQHandler+0x21a>
      {
        /* Blocking error : transfer is aborted
           Set the UART state ready to be able to start again the process,
           Disable Rx Interrupts, and disable Rx DMA request, if ongoing */
        UART_EndRxTransfer(huart);
 80048c2:	6878      	ldr	r0, [r7, #4]
 80048c4:	f000 fa85 	bl	8004dd2 <UART_EndRxTransfer>

        /* Disable the UART DMA Rx request if enabled */
        if (HAL_IS_BIT_SET(huart->Instance->CR3, USART_CR3_DMAR))
 80048c8:	687b      	ldr	r3, [r7, #4]
 80048ca:	681b      	ldr	r3, [r3, #0]
 80048cc:	695b      	ldr	r3, [r3, #20]
 80048ce:	f003 0340 	and.w	r3, r3, #64	@ 0x40
 80048d2:	2b40      	cmp	r3, #64	@ 0x40
 80048d4:	d141      	bne.n	800495a <HAL_UART_IRQHandler+0x212>
        {
          ATOMIC_CLEAR_BIT(huart->Instance->CR3, USART_CR3_DMAR);
 80048d6:	687b      	ldr	r3, [r7, #4]
 80048d8:	681b      	ldr	r3, [r3, #0]
 80048da:	3314      	adds	r3, #20
 80048dc:	f8c7 309c 	str.w	r3, [r7, #156]	@ 0x9c
   __ASM volatile ("ldrex %0, %1" : "=r" (result) : "Q" (*addr) );
 80048e0:	f8d7 309c 	ldr.w	r3, [r7, #156]	@ 0x9c
 80048e4:	e853 3f00 	ldrex	r3, [r3]
 80048e8:	f8c7 3098 	str.w	r3, [r7, #152]	@ 0x98
   return(result);
 80048ec:	f8d7 3098 	ldr.w	r3, [r7, #152]	@ 0x98
 80048f0:	f023 0340 	bic.w	r3, r3, #64	@ 0x40
 80048f4:	f8c7 30d0 	str.w	r3, [r7, #208]	@ 0xd0
 80048f8:	687b      	ldr	r3, [r7, #4]
 80048fa:	681b      	ldr	r3, [r3, #0]
 80048fc:	3314      	adds	r3, #20
 80048fe:	f8d7 20d0 	ldr.w	r2, [r7, #208]	@ 0xd0
 8004902:	f8c7 20a8 	str.w	r2, [r7, #168]	@ 0xa8
 8004906:	f8c7 30a4 	str.w	r3, [r7, #164]	@ 0xa4
   __ASM volatile ("strex %0, %2, %1" : "=&r" (result), "=Q" (*addr) : "r" (value) );
 800490a:	f8d7 10a4 	ldr.w	r1, [r7, #164]	@ 0xa4
 800490e:	f8d7 20a8 	ldr.w	r2, [r7, #168]	@ 0xa8
 8004912:	e841 2300 	strex	r3, r2, [r1]
 8004916:	f8c7 30a0 	str.w	r3, [r7, #160]	@ 0xa0
   return(result);
 800491a:	f8d7 30a0 	ldr.w	r3, [r7, #160]	@ 0xa0
 800491e:	2b00      	cmp	r3, #0
 8004920:	d1d9      	bne.n	80048d6 <HAL_UART_IRQHandler+0x18e>

          /* Abort the UART DMA Rx stream */
          if (huart->hdmarx != NULL)
 8004922:	687b      	ldr	r3, [r7, #4]
 8004924:	6bdb      	ldr	r3, [r3, #60]	@ 0x3c
 8004926:	2b00      	cmp	r3, #0
 8004928:	d013      	beq.n	8004952 <HAL_UART_IRQHandler+0x20a>
          {
            /* Set the UART DMA Abort callback :
               will lead to call HAL_UART_ErrorCallback() at end of DMA abort procedure */
            huart->hdmarx->XferAbortCallback = UART_DMAAbortOnError;
 800492a:	687b      	ldr	r3, [r7, #4]
 800492c:	6bdb      	ldr	r3, [r3, #60]	@ 0x3c
 800492e:	4a7e      	ldr	r2, [pc, #504]	@ (8004b28 <HAL_UART_IRQHandler+0x3e0>)
 8004930:	651a      	str	r2, [r3, #80]	@ 0x50
            if (HAL_DMA_Abort_IT(huart->hdmarx) != HAL_OK)
 8004932:	687b      	ldr	r3, [r7, #4]
 8004934:	6bdb      	ldr	r3, [r3, #60]	@ 0x3c
 8004936:	4618      	mov	r0, r3
 8004938:	f7fe f831 	bl	800299e <HAL_DMA_Abort_IT>
 800493c:	4603      	mov	r3, r0
 800493e:	2b00      	cmp	r3, #0
 8004940:	d016      	beq.n	8004970 <HAL_UART_IRQHandler+0x228>
            {
              /* Call Directly XferAbortCallback function in case of error */
              huart->hdmarx->XferAbortCallback(huart->hdmarx);
 8004942:	687b      	ldr	r3, [r7, #4]
 8004944:	6bdb      	ldr	r3, [r3, #60]	@ 0x3c
 8004946:	6d1b      	ldr	r3, [r3, #80]	@ 0x50
 8004948:	687a      	ldr	r2, [r7, #4]
 800494a:	6bd2      	ldr	r2, [r2, #60]	@ 0x3c
 800494c:	4610      	mov	r0, r2
 800494e:	4798      	blx	r3
        if (HAL_IS_BIT_SET(huart->Instance->CR3, USART_CR3_DMAR))
 8004950:	e00e      	b.n	8004970 <HAL_UART_IRQHandler+0x228>
#if (USE_HAL_UART_REGISTER_CALLBACKS == 1)
            /*Call registered error callback*/
            huart->ErrorCallback(huart);
#else
            /*Call legacy weak error callback*/
            HAL_UART_ErrorCallback(huart);
 8004952:	6878      	ldr	r0, [r7, #4]
 8004954:	f000 f994 	bl	8004c80 <HAL_UART_ErrorCallback>
        if (HAL_IS_BIT_SET(huart->Instance->CR3, USART_CR3_DMAR))
 8004958:	e00a      	b.n	8004970 <HAL_UART_IRQHandler+0x228>
#if (USE_HAL_UART_REGISTER_CALLBACKS == 1)
          /*Call registered error callback*/
          huart->ErrorCallback(huart);
#else
          /*Call legacy weak error callback*/
          HAL_UART_ErrorCallback(huart);
 800495a:	6878      	ldr	r0, [r7, #4]
 800495c:	f000 f990 	bl	8004c80 <HAL_UART_ErrorCallback>
        if (HAL_IS_BIT_SET(huart->Instance->CR3, USART_CR3_DMAR))
 8004960:	e006      	b.n	8004970 <HAL_UART_IRQHandler+0x228>
#if (USE_HAL_UART_REGISTER_CALLBACKS == 1)
        /*Call registered error callback*/
        huart->ErrorCallback(huart);
#else
        /*Call legacy weak error callback*/
        HAL_UART_ErrorCallback(huart);
 8004962:	6878      	ldr	r0, [r7, #4]
 8004964:	f000 f98c 	bl	8004c80 <HAL_UART_ErrorCallback>
#endif /* USE_HAL_UART_REGISTER_CALLBACKS */

        huart->ErrorCode = HAL_UART_ERROR_NONE;
 8004968:	687b      	ldr	r3, [r7, #4]
 800496a:	2200      	movs	r2, #0
 800496c:	645a      	str	r2, [r3, #68]	@ 0x44
      }
    }
    return;
 800496e:	e175      	b.n	8004c5c <HAL_UART_IRQHandler+0x514>
        if (HAL_IS_BIT_SET(huart->Instance->CR3, USART_CR3_DMAR))
 8004970:	bf00      	nop
    return;
 8004972:	e173      	b.n	8004c5c <HAL_UART_IRQHandler+0x514>
  } /* End if some error occurs */

  /* Check current reception Mode :
     If Reception till IDLE event has been selected : */
  if ((huart->ReceptionType == HAL_UART_RECEPTION_TOIDLE)
 8004974:	687b      	ldr	r3, [r7, #4]
 8004976:	6b1b      	ldr	r3, [r3, #48]	@ 0x30
 8004978:	2b01      	cmp	r3, #1
 800497a:	f040 814f 	bne.w	8004c1c <HAL_UART_IRQHandler+0x4d4>
      && ((isrflags & USART_SR_IDLE) != 0U)
 800497e:	f8d7 30e4 	ldr.w	r3, [r7, #228]	@ 0xe4
 8004982:	f003 0310 	and.w	r3, r3, #16
 8004986:	2b00      	cmp	r3, #0
 8004988:	f000 8148 	beq.w	8004c1c <HAL_UART_IRQHandler+0x4d4>
      && ((cr1its & USART_SR_IDLE) != 0U))
 800498c:	f8d7 30e0 	ldr.w	r3, [r7, #224]	@ 0xe0
 8004990:	f003 0310 	and.w	r3, r3, #16
 8004994:	2b00      	cmp	r3, #0
 8004996:	f000 8141 	beq.w	8004c1c <HAL_UART_IRQHandler+0x4d4>
  {
    __HAL_UART_CLEAR_IDLEFLAG(huart);
 800499a:	2300      	movs	r3, #0
 800499c:	60bb      	str	r3, [r7, #8]
 800499e:	687b      	ldr	r3, [r7, #4]
 80049a0:	681b      	ldr	r3, [r3, #0]
 80049a2:	681b      	ldr	r3, [r3, #0]
 80049a4:	60bb      	str	r3, [r7, #8]
 80049a6:	687b      	ldr	r3, [r7, #4]
 80049a8:	681b      	ldr	r3, [r3, #0]
 80049aa:	685b      	ldr	r3, [r3, #4]
 80049ac:	60bb      	str	r3, [r7, #8]
 80049ae:	68bb      	ldr	r3, [r7, #8]

    /* Check if DMA mode is enabled in UART */
    if (HAL_IS_BIT_SET(huart->Instance->CR3, USART_CR3_DMAR))
 80049b0:	687b      	ldr	r3, [r7, #4]
 80049b2:	681b      	ldr	r3, [r3, #0]
 80049b4:	695b      	ldr	r3, [r3, #20]
 80049b6:	f003 0340 	and.w	r3, r3, #64	@ 0x40
 80049ba:	2b40      	cmp	r3, #64	@ 0x40
 80049bc:	f040 80b6 	bne.w	8004b2c <HAL_UART_IRQHandler+0x3e4>
    {
      /* DMA mode enabled */
      /* Check received length : If all expected data are received, do nothing,
         (DMA cplt callback will be called).
         Otherwise, if at least one data has already been received, IDLE event is to be notified to user */
      uint16_t nb_remaining_rx_data = (uint16_t) __HAL_DMA_GET_COUNTER(huart->hdmarx);
 80049c0:	687b      	ldr	r3, [r7, #4]
 80049c2:	6bdb      	ldr	r3, [r3, #60]	@ 0x3c
 80049c4:	681b      	ldr	r3, [r3, #0]
 80049c6:	685b      	ldr	r3, [r3, #4]
 80049c8:	f8a7 30be 	strh.w	r3, [r7, #190]	@ 0xbe
      if ((nb_remaining_rx_data > 0U)
 80049cc:	f8b7 30be 	ldrh.w	r3, [r7, #190]	@ 0xbe
 80049d0:	2b00      	cmp	r3, #0
 80049d2:	f000 8145 	beq.w	8004c60 <HAL_UART_IRQHandler+0x518>
          && (nb_remaining_rx_data < huart->RxXferSize))
 80049d6:	687b      	ldr	r3, [r7, #4]
 80049d8:	8d9b      	ldrh	r3, [r3, #44]	@ 0x2c
 80049da:	f8b7 20be 	ldrh.w	r2, [r7, #190]	@ 0xbe
 80049de:	429a      	cmp	r2, r3
 80049e0:	f080 813e 	bcs.w	8004c60 <HAL_UART_IRQHandler+0x518>
      {
        /* Reception is not complete */
        huart->RxXferCount = nb_remaining_rx_data;
 80049e4:	687b      	ldr	r3, [r7, #4]
 80049e6:	f8b7 20be 	ldrh.w	r2, [r7, #190]	@ 0xbe
 80049ea:	85da      	strh	r2, [r3, #46]	@ 0x2e

        /* In Normal mode, end DMA xfer and HAL UART Rx process*/
        if (huart->hdmarx->Init.Mode != DMA_CIRCULAR)
 80049ec:	687b      	ldr	r3, [r7, #4]
 80049ee:	6bdb      	ldr	r3, [r3, #60]	@ 0x3c
 80049f0:	69db      	ldr	r3, [r3, #28]
 80049f2:	f5b3 7f80 	cmp.w	r3, #256	@ 0x100
 80049f6:	f000 8088 	beq.w	8004b0a <HAL_UART_IRQHandler+0x3c2>
        {
          /* Disable PE and ERR (Frame error, noise error, overrun error) interrupts */
          ATOMIC_CLEAR_BIT(huart->Instance->CR1, USART_CR1_PEIE);
 80049fa:	687b      	ldr	r3, [r7, #4]
 80049fc:	681b      	ldr	r3, [r3, #0]
 80049fe:	330c      	adds	r3, #12
 8004a00:	f8c7 3088 	str.w	r3, [r7, #136]	@ 0x88
   __ASM volatile ("ldrex %0, %1" : "=r" (result) : "Q" (*addr) );
 8004a04:	f8d7 3088 	ldr.w	r3, [r7, #136]	@ 0x88
 8004a08:	e853 3f00 	ldrex	r3, [r3]
 8004a0c:	f8c7 3084 	str.w	r3, [r7, #132]	@ 0x84
   return(result);
 8004a10:	f8d7 3084 	ldr.w	r3, [r7, #132]	@ 0x84
 8004a14:	f423 7380 	bic.w	r3, r3, #256	@ 0x100
 8004a18:	f8c7 30b8 	str.w	r3, [r7, #184]	@ 0xb8
 8004a1c:	687b      	ldr	r3, [r7, #4]
 8004a1e:	681b      	ldr	r3, [r3, #0]
 8004a20:	330c      	adds	r3, #12
 8004a22:	f8d7 20b8 	ldr.w	r2, [r7, #184]	@ 0xb8
 8004a26:	f8c7 2094 	str.w	r2, [r7, #148]	@ 0x94
 8004a2a:	f8c7 3090 	str.w	r3, [r7, #144]	@ 0x90
   __ASM volatile ("strex %0, %2, %1" : "=&r" (result), "=Q" (*addr) : "r" (value) );
 8004a2e:	f8d7 1090 	ldr.w	r1, [r7, #144]	@ 0x90
 8004a32:	f8d7 2094 	ldr.w	r2, [r7, #148]	@ 0x94
 8004a36:	e841 2300 	strex	r3, r2, [r1]
 8004a3a:	f8c7 308c 	str.w	r3, [r7, #140]	@ 0x8c
   return(result);
 8004a3e:	f8d7 308c 	ldr.w	r3, [r7, #140]	@ 0x8c
 8004a42:	2b00      	cmp	r3, #0
 8004a44:	d1d9      	bne.n	80049fa <HAL_UART_IRQHandler+0x2b2>
          ATOMIC_CLEAR_BIT(huart->Instance->CR3, USART_CR3_EIE);
 8004a46:	687b      	ldr	r3, [r7, #4]
 8004a48:	681b      	ldr	r3, [r3, #0]
 8004a4a:	3314      	adds	r3, #20
 8004a4c:	677b      	str	r3, [r7, #116]	@ 0x74
   __ASM volatile ("ldrex %0, %1" : "=r" (result) : "Q" (*addr) );
 8004a4e:	6f7b      	ldr	r3, [r7, #116]	@ 0x74
 8004a50:	e853 3f00 	ldrex	r3, [r3]
 8004a54:	673b      	str	r3, [r7, #112]	@ 0x70
   return(result);
 8004a56:	6f3b      	ldr	r3, [r7, #112]	@ 0x70
 8004a58:	f023 0301 	bic.w	r3, r3, #1
 8004a5c:	f8c7 30b4 	str.w	r3, [r7, #180]	@ 0xb4
 8004a60:	687b      	ldr	r3, [r7, #4]
 8004a62:	681b      	ldr	r3, [r3, #0]
 8004a64:	3314      	adds	r3, #20
 8004a66:	f8d7 20b4 	ldr.w	r2, [r7, #180]	@ 0xb4
 8004a6a:	f8c7 2080 	str.w	r2, [r7, #128]	@ 0x80
 8004a6e:	67fb      	str	r3, [r7, #124]	@ 0x7c
   __ASM volatile ("strex %0, %2, %1" : "=&r" (result), "=Q" (*addr) : "r" (value) );
 8004a70:	6ff9      	ldr	r1, [r7, #124]	@ 0x7c
 8004a72:	f8d7 2080 	ldr.w	r2, [r7, #128]	@ 0x80
 8004a76:	e841 2300 	strex	r3, r2, [r1]
 8004a7a:	67bb      	str	r3, [r7, #120]	@ 0x78
   return(result);
 8004a7c:	6fbb      	ldr	r3, [r7, #120]	@ 0x78
 8004a7e:	2b00      	cmp	r3, #0
 8004a80:	d1e1      	bne.n	8004a46 <HAL_UART_IRQHandler+0x2fe>

          /* Disable the DMA transfer for the receiver request by resetting the DMAR bit
             in the UART CR3 register */
          ATOMIC_CLEAR_BIT(huart->Instance->CR3, USART_CR3_DMAR);
 8004a82:	687b      	ldr	r3, [r7, #4]
 8004a84:	681b      	ldr	r3, [r3, #0]
 8004a86:	3314      	adds	r3, #20
 8004a88:	663b      	str	r3, [r7, #96]	@ 0x60
   __ASM volatile ("ldrex %0, %1" : "=r" (result) : "Q" (*addr) );
 8004a8a:	6e3b      	ldr	r3, [r7, #96]	@ 0x60
 8004a8c:	e853 3f00 	ldrex	r3, [r3]
 8004a90:	65fb      	str	r3, [r7, #92]	@ 0x5c
   return(result);
 8004a92:	6dfb      	ldr	r3, [r7, #92]	@ 0x5c
 8004a94:	f023 0340 	bic.w	r3, r3, #64	@ 0x40
 8004a98:	f8c7 30b0 	str.w	r3, [r7, #176]	@ 0xb0
 8004a9c:	687b      	ldr	r3, [r7, #4]
 8004a9e:	681b      	ldr	r3, [r3, #0]
 8004aa0:	3314      	adds	r3, #20
 8004aa2:	f8d7 20b0 	ldr.w	r2, [r7, #176]	@ 0xb0
 8004aa6:	66fa      	str	r2, [r7, #108]	@ 0x6c
 8004aa8:	66bb      	str	r3, [r7, #104]	@ 0x68
   __ASM volatile ("strex %0, %2, %1" : "=&r" (result), "=Q" (*addr) : "r" (value) );
 8004aaa:	6eb9      	ldr	r1, [r7, #104]	@ 0x68
 8004aac:	6efa      	ldr	r2, [r7, #108]	@ 0x6c
 8004aae:	e841 2300 	strex	r3, r2, [r1]
 8004ab2:	667b      	str	r3, [r7, #100]	@ 0x64
   return(result);
 8004ab4:	6e7b      	ldr	r3, [r7, #100]	@ 0x64
 8004ab6:	2b00      	cmp	r3, #0
 8004ab8:	d1e3      	bne.n	8004a82 <HAL_UART_IRQHandler+0x33a>

          /* At end of Rx process, restore huart->RxState to Ready */
          huart->RxState = HAL_UART_STATE_READY;
 8004aba:	687b      	ldr	r3, [r7, #4]
 8004abc:	2220      	movs	r2, #32
 8004abe:	f883 2042 	strb.w	r2, [r3, #66]	@ 0x42
          huart->ReceptionType = HAL_UART_RECEPTION_STANDARD;
 8004ac2:	687b      	ldr	r3, [r7, #4]
 8004ac4:	2200      	movs	r2, #0
 8004ac6:	631a      	str	r2, [r3, #48]	@ 0x30

          ATOMIC_CLEAR_BIT(huart->Instance->CR1, USART_CR1_IDLEIE);
 8004ac8:	687b      	ldr	r3, [r7, #4]
 8004aca:	681b      	ldr	r3, [r3, #0]
 8004acc:	330c      	adds	r3, #12
 8004ace:	64fb      	str	r3, [r7, #76]	@ 0x4c
   __ASM volatile ("ldrex %0, %1" : "=r" (result) : "Q" (*addr) );
 8004ad0:	6cfb      	ldr	r3, [r7, #76]	@ 0x4c
 8004ad2:	e853 3f00 	ldrex	r3, [r3]
 8004ad6:	64bb      	str	r3, [r7, #72]	@ 0x48
   return(result);
 8004ad8:	6cbb      	ldr	r3, [r7, #72]	@ 0x48
 8004ada:	f023 0310 	bic.w	r3, r3, #16
 8004ade:	f8c7 30ac 	str.w	r3, [r7, #172]	@ 0xac
 8004ae2:	687b      	ldr	r3, [r7, #4]
 8004ae4:	681b      	ldr	r3, [r3, #0]
 8004ae6:	330c      	adds	r3, #12
 8004ae8:	f8d7 20ac 	ldr.w	r2, [r7, #172]	@ 0xac
 8004aec:	65ba      	str	r2, [r7, #88]	@ 0x58
 8004aee:	657b      	str	r3, [r7, #84]	@ 0x54
   __ASM volatile ("strex %0, %2, %1" : "=&r" (result), "=Q" (*addr) : "r" (value) );
 8004af0:	6d79      	ldr	r1, [r7, #84]	@ 0x54
 8004af2:	6dba      	ldr	r2, [r7, #88]	@ 0x58
 8004af4:	e841 2300 	strex	r3, r2, [r1]
 8004af8:	653b      	str	r3, [r7, #80]	@ 0x50
   return(result);
 8004afa:	6d3b      	ldr	r3, [r7, #80]	@ 0x50
 8004afc:	2b00      	cmp	r3, #0
 8004afe:	d1e3      	bne.n	8004ac8 <HAL_UART_IRQHandler+0x380>

          /* Last bytes received, so no need as the abort is immediate */
          (void)HAL_DMA_Abort(huart->hdmarx);
 8004b00:	687b      	ldr	r3, [r7, #4]
 8004b02:	6bdb      	ldr	r3, [r3, #60]	@ 0x3c
 8004b04:	4618      	mov	r0, r3
 8004b06:	f7fd feda 	bl	80028be <HAL_DMA_Abort>
        }

        /* Initialize type of RxEvent that correspond to RxEvent callback execution;
        In this case, Rx Event type is Idle Event */
        huart->RxEventType = HAL_UART_RXEVENT_IDLE;
 8004b0a:	687b      	ldr	r3, [r7, #4]
 8004b0c:	2202      	movs	r2, #2
 8004b0e:	635a      	str	r2, [r3, #52]	@ 0x34
#if (USE_HAL_UART_REGISTER_CALLBACKS == 1)
        /*Call registered Rx Event callback*/
        huart->RxEventCallback(huart, (huart->RxXferSize - huart->RxXferCount));
#else
        /*Call legacy weak Rx Event callback*/
        HAL_UARTEx_RxEventCallback(huart, (huart->RxXferSize - huart->RxXferCount));
 8004b10:	687b      	ldr	r3, [r7, #4]
 8004b12:	8d9a      	ldrh	r2, [r3, #44]	@ 0x2c
 8004b14:	687b      	ldr	r3, [r7, #4]
 8004b16:	8ddb      	ldrh	r3, [r3, #46]	@ 0x2e
 8004b18:	b29b      	uxth	r3, r3
 8004b1a:	1ad3      	subs	r3, r2, r3
 8004b1c:	b29b      	uxth	r3, r3
 8004b1e:	4619      	mov	r1, r3
 8004b20:	6878      	ldr	r0, [r7, #4]
 8004b22:	f000 f8b7 	bl	8004c94 <HAL_UARTEx_RxEventCallback>
#endif /* USE_HAL_UART_REGISTER_CALLBACKS */
      }
      return;
 8004b26:	e09b      	b.n	8004c60 <HAL_UART_IRQHandler+0x518>
 8004b28:	08004e99 	.word	0x08004e99
    else
    {
      /* DMA mode not enabled */
      /* Check received length : If all expected data are received, do nothing.
         Otherwise, if at least one data has already been received, IDLE event is to be notified to user */
      uint16_t nb_rx_data = huart->RxXferSize - huart->RxXferCount;
 8004b2c:	687b      	ldr	r3, [r7, #4]
 8004b2e:	8d9a      	ldrh	r2, [r3, #44]	@ 0x2c
 8004b30:	687b      	ldr	r3, [r7, #4]
 8004b32:	8ddb      	ldrh	r3, [r3, #46]	@ 0x2e
 8004b34:	b29b      	uxth	r3, r3
 8004b36:	1ad3      	subs	r3, r2, r3
 8004b38:	f8a7 30ce 	strh.w	r3, [r7, #206]	@ 0xce
      if ((huart->RxXferCount > 0U)
 8004b3c:	687b      	ldr	r3, [r7, #4]
 8004b3e:	8ddb      	ldrh	r3, [r3, #46]	@ 0x2e
 8004b40:	b29b      	uxth	r3, r3
 8004b42:	2b00      	cmp	r3, #0
 8004b44:	f000 808e 	beq.w	8004c64 <HAL_UART_IRQHandler+0x51c>
          && (nb_rx_data > 0U))
 8004b48:	f8b7 30ce 	ldrh.w	r3, [r7, #206]	@ 0xce
 8004b4c:	2b00      	cmp	r3, #0
 8004b4e:	f000 8089 	beq.w	8004c64 <HAL_UART_IRQHandler+0x51c>
      {
        /* Disable the UART Parity Error Interrupt and RXNE interrupts */
        ATOMIC_CLEAR_BIT(huart->Instance->CR1, (USART_CR1_RXNEIE | USART_CR1_PEIE));
 8004b52:	687b      	ldr	r3, [r7, #4]
 8004b54:	681b      	ldr	r3, [r3, #0]
 8004b56:	330c      	adds	r3, #12
 8004b58:	63bb      	str	r3, [r7, #56]	@ 0x38
   __ASM volatile ("ldrex %0, %1" : "=r" (result) : "Q" (*addr) );
 8004b5a:	6bbb      	ldr	r3, [r7, #56]	@ 0x38
 8004b5c:	e853 3f00 	ldrex	r3, [r3]
 8004b60:	637b      	str	r3, [r7, #52]	@ 0x34
   return(result);
 8004b62:	6b7b      	ldr	r3, [r7, #52]	@ 0x34
 8004b64:	f423 7390 	bic.w	r3, r3, #288	@ 0x120
 8004b68:	f8c7 30c8 	str.w	r3, [r7, #200]	@ 0xc8
 8004b6c:	687b      	ldr	r3, [r7, #4]
 8004b6e:	681b      	ldr	r3, [r3, #0]
 8004b70:	330c      	adds	r3, #12
 8004b72:	f8d7 20c8 	ldr.w	r2, [r7, #200]	@ 0xc8
 8004b76:	647a      	str	r2, [r7, #68]	@ 0x44
 8004b78:	643b      	str	r3, [r7, #64]	@ 0x40
   __ASM volatile ("strex %0, %2, %1" : "=&r" (result), "=Q" (*addr) : "r" (value) );
 8004b7a:	6c39      	ldr	r1, [r7, #64]	@ 0x40
 8004b7c:	6c7a      	ldr	r2, [r7, #68]	@ 0x44
 8004b7e:	e841 2300 	strex	r3, r2, [r1]
 8004b82:	63fb      	str	r3, [r7, #60]	@ 0x3c
   return(result);
 8004b84:	6bfb      	ldr	r3, [r7, #60]	@ 0x3c
 8004b86:	2b00      	cmp	r3, #0
 8004b88:	d1e3      	bne.n	8004b52 <HAL_UART_IRQHandler+0x40a>

        /* Disable the UART Error Interrupt: (Frame error, noise error, overrun error) */
        ATOMIC_CLEAR_BIT(huart->Instance->CR3, USART_CR3_EIE);
 8004b8a:	687b      	ldr	r3, [r7, #4]
 8004b8c:	681b      	ldr	r3, [r3, #0]
 8004b8e:	3314      	adds	r3, #20
 8004b90:	627b      	str	r3, [r7, #36]	@ 0x24
   __ASM volatile ("ldrex %0, %1" : "=r" (result) : "Q" (*addr) );
 8004b92:	6a7b      	ldr	r3, [r7, #36]	@ 0x24
 8004b94:	e853 3f00 	ldrex	r3, [r3]
 8004b98:	623b      	str	r3, [r7, #32]
   return(result);
 8004b9a:	6a3b      	ldr	r3, [r7, #32]
 8004b9c:	f023 0301 	bic.w	r3, r3, #1
 8004ba0:	f8c7 30c4 	str.w	r3, [r7, #196]	@ 0xc4
 8004ba4:	687b      	ldr	r3, [r7, #4]
 8004ba6:	681b      	ldr	r3, [r3, #0]
 8004ba8:	3314      	adds	r3, #20
 8004baa:	f8d7 20c4 	ldr.w	r2, [r7, #196]	@ 0xc4
 8004bae:	633a      	str	r2, [r7, #48]	@ 0x30
 8004bb0:	62fb      	str	r3, [r7, #44]	@ 0x2c
   __ASM volatile ("strex %0, %2, %1" : "=&r" (result), "=Q" (*addr) : "r" (value) );
 8004bb2:	6af9      	ldr	r1, [r7, #44]	@ 0x2c
 8004bb4:	6b3a      	ldr	r2, [r7, #48]	@ 0x30
 8004bb6:	e841 2300 	strex	r3, r2, [r1]
 8004bba:	62bb      	str	r3, [r7, #40]	@ 0x28
   return(result);
 8004bbc:	6abb      	ldr	r3, [r7, #40]	@ 0x28
 8004bbe:	2b00      	cmp	r3, #0
 8004bc0:	d1e3      	bne.n	8004b8a <HAL_UART_IRQHandler+0x442>

        /* Rx process is completed, restore huart->RxState to Ready */
        huart->RxState = HAL_UART_STATE_READY;
 8004bc2:	687b      	ldr	r3, [r7, #4]
 8004bc4:	2220      	movs	r2, #32
 8004bc6:	f883 2042 	strb.w	r2, [r3, #66]	@ 0x42
        huart->ReceptionType = HAL_UART_RECEPTION_STANDARD;
 8004bca:	687b      	ldr	r3, [r7, #4]
 8004bcc:	2200      	movs	r2, #0
 8004bce:	631a      	str	r2, [r3, #48]	@ 0x30

        ATOMIC_CLEAR_BIT(huart->Instance->CR1, USART_CR1_IDLEIE);
 8004bd0:	687b      	ldr	r3, [r7, #4]
 8004bd2:	681b      	ldr	r3, [r3, #0]
 8004bd4:	330c      	adds	r3, #12
 8004bd6:	613b      	str	r3, [r7, #16]
   __ASM volatile ("ldrex %0, %1" : "=r" (result) : "Q" (*addr) );
 8004bd8:	693b      	ldr	r3, [r7, #16]
 8004bda:	e853 3f00 	ldrex	r3, [r3]
 8004bde:	60fb      	str	r3, [r7, #12]
   return(result);
 8004be0:	68fb      	ldr	r3, [r7, #12]
 8004be2:	f023 0310 	bic.w	r3, r3, #16
 8004be6:	f8c7 30c0 	str.w	r3, [r7, #192]	@ 0xc0
 8004bea:	687b      	ldr	r3, [r7, #4]
 8004bec:	681b      	ldr	r3, [r3, #0]
 8004bee:	330c      	adds	r3, #12
 8004bf0:	f8d7 20c0 	ldr.w	r2, [r7, #192]	@ 0xc0
 8004bf4:	61fa      	str	r2, [r7, #28]
 8004bf6:	61bb      	str	r3, [r7, #24]
   __ASM volatile ("strex %0, %2, %1" : "=&r" (result), "=Q" (*addr) : "r" (value) );
 8004bf8:	69b9      	ldr	r1, [r7, #24]
 8004bfa:	69fa      	ldr	r2, [r7, #28]
 8004bfc:	e841 2300 	strex	r3, r2, [r1]
 8004c00:	617b      	str	r3, [r7, #20]
   return(result);
 8004c02:	697b      	ldr	r3, [r7, #20]
 8004c04:	2b00      	cmp	r3, #0
 8004c06:	d1e3      	bne.n	8004bd0 <HAL_UART_IRQHandler+0x488>

        /* Initialize type of RxEvent that correspond to RxEvent callback execution;
           In this case, Rx Event type is Idle Event */
        huart->RxEventType = HAL_UART_RXEVENT_IDLE;
 8004c08:	687b      	ldr	r3, [r7, #4]
 8004c0a:	2202      	movs	r2, #2
 8004c0c:	635a      	str	r2, [r3, #52]	@ 0x34
#if (USE_HAL_UART_REGISTER_CALLBACKS == 1)
        /*Call registered Rx complete callback*/
        huart->RxEventCallback(huart, nb_rx_data);
#else
        /*Call legacy weak Rx Event callback*/
        HAL_UARTEx_RxEventCallback(huart, nb_rx_data);
 8004c0e:	f8b7 30ce 	ldrh.w	r3, [r7, #206]	@ 0xce
 8004c12:	4619      	mov	r1, r3
 8004c14:	6878      	ldr	r0, [r7, #4]
 8004c16:	f000 f83d 	bl	8004c94 <HAL_UARTEx_RxEventCallback>
#endif /* USE_HAL_UART_REGISTER_CALLBACKS */
      }
      return;
 8004c1a:	e023      	b.n	8004c64 <HAL_UART_IRQHandler+0x51c>
    }
  }

  /* UART in mode Transmitter ------------------------------------------------*/
  if (((isrflags & USART_SR_TXE) != RESET) && ((cr1its & USART_CR1_TXEIE) != RESET))
 8004c1c:	f8d7 30e4 	ldr.w	r3, [r7, #228]	@ 0xe4
 8004c20:	f003 0380 	and.w	r3, r3, #128	@ 0x80
 8004c24:	2b00      	cmp	r3, #0
 8004c26:	d009      	beq.n	8004c3c <HAL_UART_IRQHandler+0x4f4>
 8004c28:	f8d7 30e0 	ldr.w	r3, [r7, #224]	@ 0xe0
 8004c2c:	f003 0380 	and.w	r3, r3, #128	@ 0x80
 8004c30:	2b00      	cmp	r3, #0
 8004c32:	d003      	beq.n	8004c3c <HAL_UART_IRQHandler+0x4f4>
  {
    UART_Transmit_IT(huart);
 8004c34:	6878      	ldr	r0, [r7, #4]
 8004c36:	f000 f943 	bl	8004ec0 <UART_Transmit_IT>
    return;
 8004c3a:	e014      	b.n	8004c66 <HAL_UART_IRQHandler+0x51e>
  }

  /* UART in mode Transmitter end --------------------------------------------*/
  if (((isrflags & USART_SR_TC) != RESET) && ((cr1its & USART_CR1_TCIE) != RESET))
 8004c3c:	f8d7 30e4 	ldr.w	r3, [r7, #228]	@ 0xe4
 8004c40:	f003 0340 	and.w	r3, r3, #64	@ 0x40
 8004c44:	2b00      	cmp	r3, #0
 8004c46:	d00e      	beq.n	8004c66 <HAL_UART_IRQHandler+0x51e>
 8004c48:	f8d7 30e0 	ldr.w	r3, [r7, #224]	@ 0xe0
 8004c4c:	f003 0340 	and.w	r3, r3, #64	@ 0x40
 8004c50:	2b00      	cmp	r3, #0
 8004c52:	d008      	beq.n	8004c66 <HAL_UART_IRQHandler+0x51e>
  {
    UART_EndTransmit_IT(huart);
 8004c54:	6878      	ldr	r0, [r7, #4]
 8004c56:	f000 f983 	bl	8004f60 <UART_EndTransmit_IT>
    return;
 8004c5a:	e004      	b.n	8004c66 <HAL_UART_IRQHandler+0x51e>
    return;
 8004c5c:	bf00      	nop
 8004c5e:	e002      	b.n	8004c66 <HAL_UART_IRQHandler+0x51e>
      return;
 8004c60:	bf00      	nop
 8004c62:	e000      	b.n	8004c66 <HAL_UART_IRQHandler+0x51e>
      return;
 8004c64:	bf00      	nop
  }
}
 8004c66:	37e8      	adds	r7, #232	@ 0xe8
 8004c68:	46bd      	mov	sp, r7
 8004c6a:	bd80      	pop	{r7, pc}

08004c6c <HAL_UART_TxCpltCallback>:
  * @param  huart  Pointer to a UART_HandleTypeDef structure that contains
  *                the configuration information for the specified UART module.
  * @retval None
  */
__weak void HAL_UART_TxCpltCallback(UART_HandleTypeDef *huart)
{
 8004c6c:	b480      	push	{r7}
 8004c6e:	b083      	sub	sp, #12
 8004c70:	af00      	add	r7, sp, #0
 8004c72:	6078      	str	r0, [r7, #4]
  /* Prevent unused argument(s) compilation warning */
  UNUSED(huart);
  /* NOTE: This function should not be modified, when the callback is needed,
           the HAL_UART_TxCpltCallback could be implemented in the user file
   */
}
 8004c74:	bf00      	nop
 8004c76:	370c      	adds	r7, #12
 8004c78:	46bd      	mov	sp, r7
 8004c7a:	f85d 7b04 	ldr.w	r7, [sp], #4
 8004c7e:	4770      	bx	lr

08004c80 <HAL_UART_ErrorCallback>:
  * @param  huart  Pointer to a UART_HandleTypeDef structure that contains
  *                the configuration information for the specified UART module.
  * @retval None
  */
__weak void HAL_UART_ErrorCallback(UART_HandleTypeDef *huart)
{
 8004c80:	b480      	push	{r7}
 8004c82:	b083      	sub	sp, #12
 8004c84:	af00      	add	r7, sp, #0
 8004c86:	6078      	str	r0, [r7, #4]
  /* Prevent unused argument(s) compilation warning */
  UNUSED(huart);
  /* NOTE: This function should not be modified, when the callback is needed,
           the HAL_UART_ErrorCallback could be implemented in the user file
   */
}
 8004c88:	bf00      	nop
 8004c8a:	370c      	adds	r7, #12
 8004c8c:	46bd      	mov	sp, r7
 8004c8e:	f85d 7b04 	ldr.w	r7, [sp], #4
 8004c92:	4770      	bx	lr

08004c94 <HAL_UARTEx_RxEventCallback>:
  * @param  Size  Number of data available in application reception buffer (indicates a position in
  *               reception buffer until which, data are available)
  * @retval None
  */
__weak void HAL_UARTEx_RxEventCallback(UART_HandleTypeDef *huart, uint16_t Size)
{
 8004c94:	b480      	push	{r7}
 8004c96:	b083      	sub	sp, #12
 8004c98:	af00      	add	r7, sp, #0
 8004c9a:	6078      	str	r0, [r7, #4]
 8004c9c:	460b      	mov	r3, r1
 8004c9e:	807b      	strh	r3, [r7, #2]
  UNUSED(Size);

  /* NOTE : This function should not be modified, when the callback is needed,
            the HAL_UARTEx_RxEventCallback can be implemented in the user file.
   */
}
 8004ca0:	bf00      	nop
 8004ca2:	370c      	adds	r7, #12
 8004ca4:	46bd      	mov	sp, r7
 8004ca6:	f85d 7b04 	ldr.w	r7, [sp], #4
 8004caa:	4770      	bx	lr

08004cac <UART_WaitOnFlagUntilTimeout>:
  * @param  Timeout Timeout duration
  * @retval HAL status
  */
static HAL_StatusTypeDef UART_WaitOnFlagUntilTimeout(UART_HandleTypeDef *huart, uint32_t Flag, FlagStatus Status,
                                                     uint32_t Tickstart, uint32_t Timeout)
{
 8004cac:	b580      	push	{r7, lr}
 8004cae:	b086      	sub	sp, #24
 8004cb0:	af00      	add	r7, sp, #0
 8004cb2:	60f8      	str	r0, [r7, #12]
 8004cb4:	60b9      	str	r1, [r7, #8]
 8004cb6:	603b      	str	r3, [r7, #0]
 8004cb8:	4613      	mov	r3, r2
 8004cba:	71fb      	strb	r3, [r7, #7]
  /* Wait until flag is set */
  while ((__HAL_UART_GET_FLAG(huart, Flag) ? SET : RESET) == Status)
 8004cbc:	e03b      	b.n	8004d36 <UART_WaitOnFlagUntilTimeout+0x8a>
  {
    /* Check for the Timeout */
    if (Timeout != HAL_MAX_DELAY)
 8004cbe:	6a3b      	ldr	r3, [r7, #32]
 8004cc0:	f1b3 3fff 	cmp.w	r3, #4294967295
 8004cc4:	d037      	beq.n	8004d36 <UART_WaitOnFlagUntilTimeout+0x8a>
    {
      if (((HAL_GetTick() - Tickstart) > Timeout) || (Timeout == 0U))
 8004cc6:	f7fd fa57 	bl	8002178 <HAL_GetTick>
 8004cca:	4602      	mov	r2, r0
 8004ccc:	683b      	ldr	r3, [r7, #0]
 8004cce:	1ad3      	subs	r3, r2, r3
 8004cd0:	6a3a      	ldr	r2, [r7, #32]
 8004cd2:	429a      	cmp	r2, r3
 8004cd4:	d302      	bcc.n	8004cdc <UART_WaitOnFlagUntilTimeout+0x30>
 8004cd6:	6a3b      	ldr	r3, [r7, #32]
 8004cd8:	2b00      	cmp	r3, #0
 8004cda:	d101      	bne.n	8004ce0 <UART_WaitOnFlagUntilTimeout+0x34>
      {

        return HAL_TIMEOUT;
 8004cdc:	2303      	movs	r3, #3
 8004cde:	e03a      	b.n	8004d56 <UART_WaitOnFlagUntilTimeout+0xaa>
      }

      if ((READ_BIT(huart->Instance->CR1, USART_CR1_RE) != 0U) && (Flag != UART_FLAG_TXE) && (Flag != UART_FLAG_TC))
 8004ce0:	68fb      	ldr	r3, [r7, #12]
 8004ce2:	681b      	ldr	r3, [r3, #0]
 8004ce4:	68db      	ldr	r3, [r3, #12]
 8004ce6:	f003 0304 	and.w	r3, r3, #4
 8004cea:	2b00      	cmp	r3, #0
 8004cec:	d023      	beq.n	8004d36 <UART_WaitOnFlagUntilTimeout+0x8a>
 8004cee:	68bb      	ldr	r3, [r7, #8]
 8004cf0:	2b80      	cmp	r3, #128	@ 0x80
 8004cf2:	d020      	beq.n	8004d36 <UART_WaitOnFlagUntilTimeout+0x8a>
 8004cf4:	68bb      	ldr	r3, [r7, #8]
 8004cf6:	2b40      	cmp	r3, #64	@ 0x40
 8004cf8:	d01d      	beq.n	8004d36 <UART_WaitOnFlagUntilTimeout+0x8a>
      {
        if (__HAL_UART_GET_FLAG(huart, UART_FLAG_ORE) == SET)
 8004cfa:	68fb      	ldr	r3, [r7, #12]
 8004cfc:	681b      	ldr	r3, [r3, #0]
 8004cfe:	681b      	ldr	r3, [r3, #0]
 8004d00:	f003 0308 	and.w	r3, r3, #8
 8004d04:	2b08      	cmp	r3, #8
 8004d06:	d116      	bne.n	8004d36 <UART_WaitOnFlagUntilTimeout+0x8a>
        {
          /* Clear Overrun Error flag*/
          __HAL_UART_CLEAR_OREFLAG(huart);
 8004d08:	2300      	movs	r3, #0
 8004d0a:	617b      	str	r3, [r7, #20]
 8004d0c:	68fb      	ldr	r3, [r7, #12]
 8004d0e:	681b      	ldr	r3, [r3, #0]
 8004d10:	681b      	ldr	r3, [r3, #0]
 8004d12:	617b      	str	r3, [r7, #20]
 8004d14:	68fb      	ldr	r3, [r7, #12]
 8004d16:	681b      	ldr	r3, [r3, #0]
 8004d18:	685b      	ldr	r3, [r3, #4]
 8004d1a:	617b      	str	r3, [r7, #20]
 8004d1c:	697b      	ldr	r3, [r7, #20]

          /* Blocking error : transfer is aborted
          Set the UART state ready to be able to start again the process,
          Disable Rx Interrupts if ongoing */
          UART_EndRxTransfer(huart);
 8004d1e:	68f8      	ldr	r0, [r7, #12]
 8004d20:	f000 f857 	bl	8004dd2 <UART_EndRxTransfer>

          huart->ErrorCode = HAL_UART_ERROR_ORE;
 8004d24:	68fb      	ldr	r3, [r7, #12]
 8004d26:	2208      	movs	r2, #8
 8004d28:	645a      	str	r2, [r3, #68]	@ 0x44

          /* Process Unlocked */
          __HAL_UNLOCK(huart);
 8004d2a:	68fb      	ldr	r3, [r7, #12]
 8004d2c:	2200      	movs	r2, #0
 8004d2e:	f883 2040 	strb.w	r2, [r3, #64]	@ 0x40

          return HAL_ERROR;
 8004d32:	2301      	movs	r3, #1
 8004d34:	e00f      	b.n	8004d56 <UART_WaitOnFlagUntilTimeout+0xaa>
  while ((__HAL_UART_GET_FLAG(huart, Flag) ? SET : RESET) == Status)
 8004d36:	68fb      	ldr	r3, [r7, #12]
 8004d38:	681b      	ldr	r3, [r3, #0]
 8004d3a:	681a      	ldr	r2, [r3, #0]
 8004d3c:	68bb      	ldr	r3, [r7, #8]
 8004d3e:	4013      	ands	r3, r2
 8004d40:	68ba      	ldr	r2, [r7, #8]
 8004d42:	429a      	cmp	r2, r3
 8004d44:	bf0c      	ite	eq
 8004d46:	2301      	moveq	r3, #1
 8004d48:	2300      	movne	r3, #0
 8004d4a:	b2db      	uxtb	r3, r3
 8004d4c:	461a      	mov	r2, r3
 8004d4e:	79fb      	ldrb	r3, [r7, #7]
 8004d50:	429a      	cmp	r2, r3
 8004d52:	d0b4      	beq.n	8004cbe <UART_WaitOnFlagUntilTimeout+0x12>
        }
      }
    }
  }
  return HAL_OK;
 8004d54:	2300      	movs	r3, #0
}
 8004d56:	4618      	mov	r0, r3
 8004d58:	3718      	adds	r7, #24
 8004d5a:	46bd      	mov	sp, r7
 8004d5c:	bd80      	pop	{r7, pc}

08004d5e <UART_Start_Receive_IT>:
  * @param  pData Pointer to data buffer (u8 or u16 data elements).
  * @param  Size  Amount of data elements (u8 or u16) to be received.
  * @retval HAL status
  */
HAL_StatusTypeDef UART_Start_Receive_IT(UART_HandleTypeDef *huart, uint8_t *pData, uint16_t Size)
{
 8004d5e:	b480      	push	{r7}
 8004d60:	b085      	sub	sp, #20
 8004d62:	af00      	add	r7, sp, #0
 8004d64:	60f8      	str	r0, [r7, #12]
 8004d66:	60b9      	str	r1, [r7, #8]
 8004d68:	4613      	mov	r3, r2
 8004d6a:	80fb      	strh	r3, [r7, #6]
  huart->pRxBuffPtr = pData;
 8004d6c:	68fb      	ldr	r3, [r7, #12]
 8004d6e:	68ba      	ldr	r2, [r7, #8]
 8004d70:	629a      	str	r2, [r3, #40]	@ 0x28
  huart->RxXferSize = Size;
 8004d72:	68fb      	ldr	r3, [r7, #12]
 8004d74:	88fa      	ldrh	r2, [r7, #6]
 8004d76:	859a      	strh	r2, [r3, #44]	@ 0x2c
  huart->RxXferCount = Size;
 8004d78:	68fb      	ldr	r3, [r7, #12]
 8004d7a:	88fa      	ldrh	r2, [r7, #6]
 8004d7c:	85da      	strh	r2, [r3, #46]	@ 0x2e

  huart->ErrorCode = HAL_UART_ERROR_NONE;
 8004d7e:	68fb      	ldr	r3, [r7, #12]
 8004d80:	2200      	movs	r2, #0
 8004d82:	645a      	str	r2, [r3, #68]	@ 0x44
  huart->RxState = HAL_UART_STATE_BUSY_RX;
 8004d84:	68fb      	ldr	r3, [r7, #12]
 8004d86:	2222      	movs	r2, #34	@ 0x22
 8004d88:	f883 2042 	strb.w	r2, [r3, #66]	@ 0x42

  if (huart->Init.Parity != UART_PARITY_NONE)
 8004d8c:	68fb      	ldr	r3, [r7, #12]
 8004d8e:	691b      	ldr	r3, [r3, #16]
 8004d90:	2b00      	cmp	r3, #0
 8004d92:	d007      	beq.n	8004da4 <UART_Start_Receive_IT+0x46>
  {
    /* Enable the UART Parity Error Interrupt */
    __HAL_UART_ENABLE_IT(huart, UART_IT_PE);
 8004d94:	68fb      	ldr	r3, [r7, #12]
 8004d96:	681b      	ldr	r3, [r3, #0]
 8004d98:	68da      	ldr	r2, [r3, #12]
 8004d9a:	68fb      	ldr	r3, [r7, #12]
 8004d9c:	681b      	ldr	r3, [r3, #0]
 8004d9e:	f442 7280 	orr.w	r2, r2, #256	@ 0x100
 8004da2:	60da      	str	r2, [r3, #12]
  }

  /* Enable the UART Error Interrupt: (Frame error, noise error, overrun error) */
  __HAL_UART_ENABLE_IT(huart, UART_IT_ERR);
 8004da4:	68fb      	ldr	r3, [r7, #12]
 8004da6:	681b      	ldr	r3, [r3, #0]
 8004da8:	695a      	ldr	r2, [r3, #20]
 8004daa:	68fb      	ldr	r3, [r7, #12]
 8004dac:	681b      	ldr	r3, [r3, #0]
 8004dae:	f042 0201 	orr.w	r2, r2, #1
 8004db2:	615a      	str	r2, [r3, #20]

  /* Enable the UART Data Register not empty Interrupt */
  __HAL_UART_ENABLE_IT(huart, UART_IT_RXNE);
 8004db4:	68fb      	ldr	r3, [r7, #12]
 8004db6:	681b      	ldr	r3, [r3, #0]
 8004db8:	68da      	ldr	r2, [r3, #12]
 8004dba:	68fb      	ldr	r3, [r7, #12]
 8004dbc:	681b      	ldr	r3, [r3, #0]
 8004dbe:	f042 0220 	orr.w	r2, r2, #32
 8004dc2:	60da      	str	r2, [r3, #12]

  return HAL_OK;
 8004dc4:	2300      	movs	r3, #0
}
 8004dc6:	4618      	mov	r0, r3
 8004dc8:	3714      	adds	r7, #20
 8004dca:	46bd      	mov	sp, r7
 8004dcc:	f85d 7b04 	ldr.w	r7, [sp], #4
 8004dd0:	4770      	bx	lr

08004dd2 <UART_EndRxTransfer>:
  * @brief  End ongoing Rx transfer on UART peripheral (following error detection or Reception completion).
  * @param  huart UART handle.
  * @retval None
  */
static void UART_EndRxTransfer(UART_HandleTypeDef *huart)
{
 8004dd2:	b480      	push	{r7}
 8004dd4:	b095      	sub	sp, #84	@ 0x54
 8004dd6:	af00      	add	r7, sp, #0
 8004dd8:	6078      	str	r0, [r7, #4]
  /* Disable RXNE, PE and ERR (Frame error, noise error, overrun error) interrupts */
  ATOMIC_CLEAR_BIT(huart->Instance->CR1, (USART_CR1_RXNEIE | USART_CR1_PEIE));
 8004dda:	687b      	ldr	r3, [r7, #4]
 8004ddc:	681b      	ldr	r3, [r3, #0]
 8004dde:	330c      	adds	r3, #12
 8004de0:	637b      	str	r3, [r7, #52]	@ 0x34
   __ASM volatile ("ldrex %0, %1" : "=r" (result) : "Q" (*addr) );
 8004de2:	6b7b      	ldr	r3, [r7, #52]	@ 0x34
 8004de4:	e853 3f00 	ldrex	r3, [r3]
 8004de8:	633b      	str	r3, [r7, #48]	@ 0x30
   return(result);
 8004dea:	6b3b      	ldr	r3, [r7, #48]	@ 0x30
 8004dec:	f423 7390 	bic.w	r3, r3, #288	@ 0x120
 8004df0:	64fb      	str	r3, [r7, #76]	@ 0x4c
 8004df2:	687b      	ldr	r3, [r7, #4]
 8004df4:	681b      	ldr	r3, [r3, #0]
 8004df6:	330c      	adds	r3, #12
 8004df8:	6cfa      	ldr	r2, [r7, #76]	@ 0x4c
 8004dfa:	643a      	str	r2, [r7, #64]	@ 0x40
 8004dfc:	63fb      	str	r3, [r7, #60]	@ 0x3c
   __ASM volatile ("strex %0, %2, %1" : "=&r" (result), "=Q" (*addr) : "r" (value) );
 8004dfe:	6bf9      	ldr	r1, [r7, #60]	@ 0x3c
 8004e00:	6c3a      	ldr	r2, [r7, #64]	@ 0x40
 8004e02:	e841 2300 	strex	r3, r2, [r1]
 8004e06:	63bb      	str	r3, [r7, #56]	@ 0x38
   return(result);
 8004e08:	6bbb      	ldr	r3, [r7, #56]	@ 0x38
 8004e0a:	2b00      	cmp	r3, #0
 8004e0c:	d1e5      	bne.n	8004dda <UART_EndRxTransfer+0x8>
  ATOMIC_CLEAR_BIT(huart->Instance->CR3, USART_CR3_EIE);
 8004e0e:	687b      	ldr	r3, [r7, #4]
 8004e10:	681b      	ldr	r3, [r3, #0]
 8004e12:	3314      	adds	r3, #20
 8004e14:	623b      	str	r3, [r7, #32]
   __ASM volatile ("ldrex %0, %1" : "=r" (result) : "Q" (*addr) );
 8004e16:	6a3b      	ldr	r3, [r7, #32]
 8004e18:	e853 3f00 	ldrex	r3, [r3]
 8004e1c:	61fb      	str	r3, [r7, #28]
   return(result);
 8004e1e:	69fb      	ldr	r3, [r7, #28]
 8004e20:	f023 0301 	bic.w	r3, r3, #1
 8004e24:	64bb      	str	r3, [r7, #72]	@ 0x48
 8004e26:	687b      	ldr	r3, [r7, #4]
 8004e28:	681b      	ldr	r3, [r3, #0]
 8004e2a:	3314      	adds	r3, #20
 8004e2c:	6cba      	ldr	r2, [r7, #72]	@ 0x48
 8004e2e:	62fa      	str	r2, [r7, #44]	@ 0x2c
 8004e30:	62bb      	str	r3, [r7, #40]	@ 0x28
   __ASM volatile ("strex %0, %2, %1" : "=&r" (result), "=Q" (*addr) : "r" (value) );
 8004e32:	6ab9      	ldr	r1, [r7, #40]	@ 0x28
 8004e34:	6afa      	ldr	r2, [r7, #44]	@ 0x2c
 8004e36:	e841 2300 	strex	r3, r2, [r1]
 8004e3a:	627b      	str	r3, [r7, #36]	@ 0x24
   return(result);
 8004e3c:	6a7b      	ldr	r3, [r7, #36]	@ 0x24
 8004e3e:	2b00      	cmp	r3, #0
 8004e40:	d1e5      	bne.n	8004e0e <UART_EndRxTransfer+0x3c>

  /* In case of reception waiting for IDLE event, disable also the IDLE IE interrupt source */
  if (huart->ReceptionType == HAL_UART_RECEPTION_TOIDLE)
 8004e42:	687b      	ldr	r3, [r7, #4]
 8004e44:	6b1b      	ldr	r3, [r3, #48]	@ 0x30
 8004e46:	2b01      	cmp	r3, #1
 8004e48:	d119      	bne.n	8004e7e <UART_EndRxTransfer+0xac>
  {
    ATOMIC_CLEAR_BIT(huart->Instance->CR1, USART_CR1_IDLEIE);
 8004e4a:	687b      	ldr	r3, [r7, #4]
 8004e4c:	681b      	ldr	r3, [r3, #0]
 8004e4e:	330c      	adds	r3, #12
 8004e50:	60fb      	str	r3, [r7, #12]
   __ASM volatile ("ldrex %0, %1" : "=r" (result) : "Q" (*addr) );
 8004e52:	68fb      	ldr	r3, [r7, #12]
 8004e54:	e853 3f00 	ldrex	r3, [r3]
 8004e58:	60bb      	str	r3, [r7, #8]
   return(result);
 8004e5a:	68bb      	ldr	r3, [r7, #8]
 8004e5c:	f023 0310 	bic.w	r3, r3, #16
 8004e60:	647b      	str	r3, [r7, #68]	@ 0x44
 8004e62:	687b      	ldr	r3, [r7, #4]
 8004e64:	681b      	ldr	r3, [r3, #0]
 8004e66:	330c      	adds	r3, #12
 8004e68:	6c7a      	ldr	r2, [r7, #68]	@ 0x44
 8004e6a:	61ba      	str	r2, [r7, #24]
 8004e6c:	617b      	str	r3, [r7, #20]
   __ASM volatile ("strex %0, %2, %1" : "=&r" (result), "=Q" (*addr) : "r" (value) );
 8004e6e:	6979      	ldr	r1, [r7, #20]
 8004e70:	69ba      	ldr	r2, [r7, #24]
 8004e72:	e841 2300 	strex	r3, r2, [r1]
 8004e76:	613b      	str	r3, [r7, #16]
   return(result);
 8004e78:	693b      	ldr	r3, [r7, #16]
 8004e7a:	2b00      	cmp	r3, #0
 8004e7c:	d1e5      	bne.n	8004e4a <UART_EndRxTransfer+0x78>
  }

  /* At end of Rx process, restore huart->RxState to Ready */
  huart->RxState = HAL_UART_STATE_READY;
 8004e7e:	687b      	ldr	r3, [r7, #4]
 8004e80:	2220      	movs	r2, #32
 8004e82:	f883 2042 	strb.w	r2, [r3, #66]	@ 0x42
  huart->ReceptionType = HAL_UART_RECEPTION_STANDARD;
 8004e86:	687b      	ldr	r3, [r7, #4]
 8004e88:	2200      	movs	r2, #0
 8004e8a:	631a      	str	r2, [r3, #48]	@ 0x30
}
 8004e8c:	bf00      	nop
 8004e8e:	3754      	adds	r7, #84	@ 0x54
 8004e90:	46bd      	mov	sp, r7
 8004e92:	f85d 7b04 	ldr.w	r7, [sp], #4
 8004e96:	4770      	bx	lr

08004e98 <UART_DMAAbortOnError>:
  * @param  hdma  Pointer to a DMA_HandleTypeDef structure that contains
  *               the configuration information for the specified DMA module.
  * @retval None
  */
static void UART_DMAAbortOnError(DMA_HandleTypeDef *hdma)
{
 8004e98:	b580      	push	{r7, lr}
 8004e9a:	b084      	sub	sp, #16
 8004e9c:	af00      	add	r7, sp, #0
 8004e9e:	6078      	str	r0, [r7, #4]
  UART_HandleTypeDef *huart = (UART_HandleTypeDef *)((DMA_HandleTypeDef *)hdma)->Parent;
 8004ea0:	687b      	ldr	r3, [r7, #4]
 8004ea2:	6b9b      	ldr	r3, [r3, #56]	@ 0x38
 8004ea4:	60fb      	str	r3, [r7, #12]
  huart->RxXferCount = 0x00U;
 8004ea6:	68fb      	ldr	r3, [r7, #12]
 8004ea8:	2200      	movs	r2, #0
 8004eaa:	85da      	strh	r2, [r3, #46]	@ 0x2e
  huart->TxXferCount = 0x00U;
 8004eac:	68fb      	ldr	r3, [r7, #12]
 8004eae:	2200      	movs	r2, #0
 8004eb0:	84da      	strh	r2, [r3, #38]	@ 0x26
#if (USE_HAL_UART_REGISTER_CALLBACKS == 1)
  /*Call registered error callback*/
  huart->ErrorCallback(huart);
#else
  /*Call legacy weak error callback*/
  HAL_UART_ErrorCallback(huart);
 8004eb2:	68f8      	ldr	r0, [r7, #12]
 8004eb4:	f7ff fee4 	bl	8004c80 <HAL_UART_ErrorCallback>
#endif /* USE_HAL_UART_REGISTER_CALLBACKS */
}
 8004eb8:	bf00      	nop
 8004eba:	3710      	adds	r7, #16
 8004ebc:	46bd      	mov	sp, r7
 8004ebe:	bd80      	pop	{r7, pc}

08004ec0 <UART_Transmit_IT>:
  * @param  huart  Pointer to a UART_HandleTypeDef structure that contains
  *                the configuration information for the specified UART module.
  * @retval HAL status
  */
static HAL_StatusTypeDef UART_Transmit_IT(UART_HandleTypeDef *huart)
{
 8004ec0:	b480      	push	{r7}
 8004ec2:	b085      	sub	sp, #20
 8004ec4:	af00      	add	r7, sp, #0
 8004ec6:	6078      	str	r0, [r7, #4]
  const uint16_t *tmp;

  /* Check that a Tx process is ongoing */
  if (huart->gState == HAL_UART_STATE_BUSY_TX)
 8004ec8:	687b      	ldr	r3, [r7, #4]
 8004eca:	f893 3041 	ldrb.w	r3, [r3, #65]	@ 0x41
 8004ece:	b2db      	uxtb	r3, r3
 8004ed0:	2b21      	cmp	r3, #33	@ 0x21
 8004ed2:	d13e      	bne.n	8004f52 <UART_Transmit_IT+0x92>
  {
    if ((huart->Init.WordLength == UART_WORDLENGTH_9B) && (huart->Init.Parity == UART_PARITY_NONE))
 8004ed4:	687b      	ldr	r3, [r7, #4]
 8004ed6:	689b      	ldr	r3, [r3, #8]
 8004ed8:	f5b3 5f80 	cmp.w	r3, #4096	@ 0x1000
 8004edc:	d114      	bne.n	8004f08 <UART_Transmit_IT+0x48>
 8004ede:	687b      	ldr	r3, [r7, #4]
 8004ee0:	691b      	ldr	r3, [r3, #16]
 8004ee2:	2b00      	cmp	r3, #0
 8004ee4:	d110      	bne.n	8004f08 <UART_Transmit_IT+0x48>
    {
      tmp = (const uint16_t *) huart->pTxBuffPtr;
 8004ee6:	687b      	ldr	r3, [r7, #4]
 8004ee8:	6a1b      	ldr	r3, [r3, #32]
 8004eea:	60fb      	str	r3, [r7, #12]
      huart->Instance->DR = (uint16_t)(*tmp & (uint16_t)0x01FF);
 8004eec:	68fb      	ldr	r3, [r7, #12]
 8004eee:	881b      	ldrh	r3, [r3, #0]
 8004ef0:	461a      	mov	r2, r3
 8004ef2:	687b      	ldr	r3, [r7, #4]
 8004ef4:	681b      	ldr	r3, [r3, #0]
 8004ef6:	f3c2 0208 	ubfx	r2, r2, #0, #9
 8004efa:	605a      	str	r2, [r3, #4]
      huart->pTxBuffPtr += 2U;
 8004efc:	687b      	ldr	r3, [r7, #4]
 8004efe:	6a1b      	ldr	r3, [r3, #32]
 8004f00:	1c9a      	adds	r2, r3, #2
 8004f02:	687b      	ldr	r3, [r7, #4]
 8004f04:	621a      	str	r2, [r3, #32]
 8004f06:	e008      	b.n	8004f1a <UART_Transmit_IT+0x5a>
    }
    else
    {
      huart->Instance->DR = (uint8_t)(*huart->pTxBuffPtr++ & (uint8_t)0x00FF);
 8004f08:	687b      	ldr	r3, [r7, #4]
 8004f0a:	6a1b      	ldr	r3, [r3, #32]
 8004f0c:	1c59      	adds	r1, r3, #1
 8004f0e:	687a      	ldr	r2, [r7, #4]
 8004f10:	6211      	str	r1, [r2, #32]
 8004f12:	781a      	ldrb	r2, [r3, #0]
 8004f14:	687b      	ldr	r3, [r7, #4]
 8004f16:	681b      	ldr	r3, [r3, #0]
 8004f18:	605a      	str	r2, [r3, #4]
    }

    if (--huart->TxXferCount == 0U)
 8004f1a:	687b      	ldr	r3, [r7, #4]
 8004f1c:	8cdb      	ldrh	r3, [r3, #38]	@ 0x26
 8004f1e:	b29b      	uxth	r3, r3
 8004f20:	3b01      	subs	r3, #1
 8004f22:	b29b      	uxth	r3, r3
 8004f24:	687a      	ldr	r2, [r7, #4]
 8004f26:	4619      	mov	r1, r3
 8004f28:	84d1      	strh	r1, [r2, #38]	@ 0x26
 8004f2a:	2b00      	cmp	r3, #0
 8004f2c:	d10f      	bne.n	8004f4e <UART_Transmit_IT+0x8e>
    {
      /* Disable the UART Transmit Data Register Empty Interrupt */
      __HAL_UART_DISABLE_IT(huart, UART_IT_TXE);
 8004f2e:	687b      	ldr	r3, [r7, #4]
 8004f30:	681b      	ldr	r3, [r3, #0]
 8004f32:	68da      	ldr	r2, [r3, #12]
 8004f34:	687b      	ldr	r3, [r7, #4]
 8004f36:	681b      	ldr	r3, [r3, #0]
 8004f38:	f022 0280 	bic.w	r2, r2, #128	@ 0x80
 8004f3c:	60da      	str	r2, [r3, #12]

      /* Enable the UART Transmit Complete Interrupt */
      __HAL_UART_ENABLE_IT(huart, UART_IT_TC);
 8004f3e:	687b      	ldr	r3, [r7, #4]
 8004f40:	681b      	ldr	r3, [r3, #0]
 8004f42:	68da      	ldr	r2, [r3, #12]
 8004f44:	687b      	ldr	r3, [r7, #4]
 8004f46:	681b      	ldr	r3, [r3, #0]
 8004f48:	f042 0240 	orr.w	r2, r2, #64	@ 0x40
 8004f4c:	60da      	str	r2, [r3, #12]
    }
    return HAL_OK;
 8004f4e:	2300      	movs	r3, #0
 8004f50:	e000      	b.n	8004f54 <UART_Transmit_IT+0x94>
  }
  else
  {
    return HAL_BUSY;
 8004f52:	2302      	movs	r3, #2
  }
}
 8004f54:	4618      	mov	r0, r3
 8004f56:	3714      	adds	r7, #20
 8004f58:	46bd      	mov	sp, r7
 8004f5a:	f85d 7b04 	ldr.w	r7, [sp], #4
 8004f5e:	4770      	bx	lr

08004f60 <UART_EndTransmit_IT>:
  * @param  huart  Pointer to a UART_HandleTypeDef structure that contains
  *                the configuration information for the specified UART module.
  * @retval HAL status
  */
static HAL_StatusTypeDef UART_EndTransmit_IT(UART_HandleTypeDef *huart)
{
 8004f60:	b580      	push	{r7, lr}
 8004f62:	b082      	sub	sp, #8
 8004f64:	af00      	add	r7, sp, #0
 8004f66:	6078      	str	r0, [r7, #4]
  /* Disable the UART Transmit Complete Interrupt */
  __HAL_UART_DISABLE_IT(huart, UART_IT_TC);
 8004f68:	687b      	ldr	r3, [r7, #4]
 8004f6a:	681b      	ldr	r3, [r3, #0]
 8004f6c:	68da      	ldr	r2, [r3, #12]
 8004f6e:	687b      	ldr	r3, [r7, #4]
 8004f70:	681b      	ldr	r3, [r3, #0]
 8004f72:	f022 0240 	bic.w	r2, r2, #64	@ 0x40
 8004f76:	60da      	str	r2, [r3, #12]

  /* Tx process is ended, restore huart->gState to Ready */
  huart->gState = HAL_UART_STATE_READY;
 8004f78:	687b      	ldr	r3, [r7, #4]
 8004f7a:	2220      	movs	r2, #32
 8004f7c:	f883 2041 	strb.w	r2, [r3, #65]	@ 0x41
#if (USE_HAL_UART_REGISTER_CALLBACKS == 1)
  /*Call registered Tx complete callback*/
  huart->TxCpltCallback(huart);
#else
  /*Call legacy weak Tx complete callback*/
  HAL_UART_TxCpltCallback(huart);
 8004f80:	6878      	ldr	r0, [r7, #4]
 8004f82:	f7ff fe73 	bl	8004c6c <HAL_UART_TxCpltCallback>
#endif /* USE_HAL_UART_REGISTER_CALLBACKS */

  return HAL_OK;
 8004f86:	2300      	movs	r3, #0
}
 8004f88:	4618      	mov	r0, r3
 8004f8a:	3708      	adds	r7, #8
 8004f8c:	46bd      	mov	sp, r7
 8004f8e:	bd80      	pop	{r7, pc}

08004f90 <UART_Receive_IT>:
  * @param  huart  Pointer to a UART_HandleTypeDef structure that contains
  *                the configuration information for the specified UART module.
  * @retval HAL status
  */
static HAL_StatusTypeDef UART_Receive_IT(UART_HandleTypeDef *huart)
{
 8004f90:	b580      	push	{r7, lr}
 8004f92:	b08c      	sub	sp, #48	@ 0x30
 8004f94:	af00      	add	r7, sp, #0
 8004f96:	6078      	str	r0, [r7, #4]
  uint8_t  *pdata8bits;
  uint16_t *pdata16bits;

  /* Check that a Rx process is ongoing */
  if (huart->RxState == HAL_UART_STATE_BUSY_RX)
 8004f98:	687b      	ldr	r3, [r7, #4]
 8004f9a:	f893 3042 	ldrb.w	r3, [r3, #66]	@ 0x42
 8004f9e:	b2db      	uxtb	r3, r3
 8004fa0:	2b22      	cmp	r3, #34	@ 0x22
 8004fa2:	f040 80ae 	bne.w	8005102 <UART_Receive_IT+0x172>
  {
    if ((huart->Init.WordLength == UART_WORDLENGTH_9B) && (huart->Init.Parity == UART_PARITY_NONE))
 8004fa6:	687b      	ldr	r3, [r7, #4]
 8004fa8:	689b      	ldr	r3, [r3, #8]
 8004faa:	f5b3 5f80 	cmp.w	r3, #4096	@ 0x1000
 8004fae:	d117      	bne.n	8004fe0 <UART_Receive_IT+0x50>
 8004fb0:	687b      	ldr	r3, [r7, #4]
 8004fb2:	691b      	ldr	r3, [r3, #16]
 8004fb4:	2b00      	cmp	r3, #0
 8004fb6:	d113      	bne.n	8004fe0 <UART_Receive_IT+0x50>
    {
      pdata8bits  = NULL;
 8004fb8:	2300      	movs	r3, #0
 8004fba:	62fb      	str	r3, [r7, #44]	@ 0x2c
      pdata16bits = (uint16_t *) huart->pRxBuffPtr;
 8004fbc:	687b      	ldr	r3, [r7, #4]
 8004fbe:	6a9b      	ldr	r3, [r3, #40]	@ 0x28
 8004fc0:	62bb      	str	r3, [r7, #40]	@ 0x28
      *pdata16bits = (uint16_t)(huart->Instance->DR & (uint16_t)0x01FF);
 8004fc2:	687b      	ldr	r3, [r7, #4]
 8004fc4:	681b      	ldr	r3, [r3, #0]
 8004fc6:	685b      	ldr	r3, [r3, #4]
 8004fc8:	b29b      	uxth	r3, r3
 8004fca:	f3c3 0308 	ubfx	r3, r3, #0, #9
 8004fce:	b29a      	uxth	r2, r3
 8004fd0:	6abb      	ldr	r3, [r7, #40]	@ 0x28
 8004fd2:	801a      	strh	r2, [r3, #0]
      huart->pRxBuffPtr += 2U;
 8004fd4:	687b      	ldr	r3, [r7, #4]
 8004fd6:	6a9b      	ldr	r3, [r3, #40]	@ 0x28
 8004fd8:	1c9a      	adds	r2, r3, #2
 8004fda:	687b      	ldr	r3, [r7, #4]
 8004fdc:	629a      	str	r2, [r3, #40]	@ 0x28
 8004fde:	e026      	b.n	800502e <UART_Receive_IT+0x9e>
    }
    else
    {
      pdata8bits = (uint8_t *) huart->pRxBuffPtr;
 8004fe0:	687b      	ldr	r3, [r7, #4]
 8004fe2:	6a9b      	ldr	r3, [r3, #40]	@ 0x28
 8004fe4:	62fb      	str	r3, [r7, #44]	@ 0x2c
      pdata16bits  = NULL;
 8004fe6:	2300      	movs	r3, #0
 8004fe8:	62bb      	str	r3, [r7, #40]	@ 0x28

      if ((huart->Init.WordLength == UART_WORDLENGTH_9B) || ((huart->Init.WordLength == UART_WORDLENGTH_8B) && (huart->Init.Parity == UART_PARITY_NONE)))
 8004fea:	687b      	ldr	r3, [r7, #4]
 8004fec:	689b      	ldr	r3, [r3, #8]
 8004fee:	f5b3 5f80 	cmp.w	r3, #4096	@ 0x1000
 8004ff2:	d007      	beq.n	8005004 <UART_Receive_IT+0x74>
 8004ff4:	687b      	ldr	r3, [r7, #4]
 8004ff6:	689b      	ldr	r3, [r3, #8]
 8004ff8:	2b00      	cmp	r3, #0
 8004ffa:	d10a      	bne.n	8005012 <UART_Receive_IT+0x82>
 8004ffc:	687b      	ldr	r3, [r7, #4]
 8004ffe:	691b      	ldr	r3, [r3, #16]
 8005000:	2b00      	cmp	r3, #0
 8005002:	d106      	bne.n	8005012 <UART_Receive_IT+0x82>
      {
        *pdata8bits = (uint8_t)(huart->Instance->DR & (uint8_t)0x00FF);
 8005004:	687b      	ldr	r3, [r7, #4]
 8005006:	681b      	ldr	r3, [r3, #0]
 8005008:	685b      	ldr	r3, [r3, #4]
 800500a:	b2da      	uxtb	r2, r3
 800500c:	6afb      	ldr	r3, [r7, #44]	@ 0x2c
 800500e:	701a      	strb	r2, [r3, #0]
 8005010:	e008      	b.n	8005024 <UART_Receive_IT+0x94>
      }
      else
      {
        *pdata8bits = (uint8_t)(huart->Instance->DR & (uint8_t)0x007F);
 8005012:	687b      	ldr	r3, [r7, #4]
 8005014:	681b      	ldr	r3, [r3, #0]
 8005016:	685b      	ldr	r3, [r3, #4]
 8005018:	b2db      	uxtb	r3, r3
 800501a:	f003 037f 	and.w	r3, r3, #127	@ 0x7f
 800501e:	b2da      	uxtb	r2, r3
 8005020:	6afb      	ldr	r3, [r7, #44]	@ 0x2c
 8005022:	701a      	strb	r2, [r3, #0]
      }
      huart->pRxBuffPtr += 1U;
 8005024:	687b      	ldr	r3, [r7, #4]
 8005026:	6a9b      	ldr	r3, [r3, #40]	@ 0x28
 8005028:	1c5a      	adds	r2, r3, #1
 800502a:	687b      	ldr	r3, [r7, #4]
 800502c:	629a      	str	r2, [r3, #40]	@ 0x28
    }

    if (--huart->RxXferCount == 0U)
 800502e:	687b      	ldr	r3, [r7, #4]
 8005030:	8ddb      	ldrh	r3, [r3, #46]	@ 0x2e
 8005032:	b29b      	uxth	r3, r3
 8005034:	3b01      	subs	r3, #1
 8005036:	b29b      	uxth	r3, r3
 8005038:	687a      	ldr	r2, [r7, #4]
 800503a:	4619      	mov	r1, r3
 800503c:	85d1      	strh	r1, [r2, #46]	@ 0x2e
 800503e:	2b00      	cmp	r3, #0
 8005040:	d15d      	bne.n	80050fe <UART_Receive_IT+0x16e>
    {
      /* Disable the UART Data Register not empty Interrupt */
      __HAL_UART_DISABLE_IT(huart, UART_IT_RXNE);
 8005042:	687b      	ldr	r3, [r7, #4]
 8005044:	681b      	ldr	r3, [r3, #0]
 8005046:	68da      	ldr	r2, [r3, #12]
 8005048:	687b      	ldr	r3, [r7, #4]
 800504a:	681b      	ldr	r3, [r3, #0]
 800504c:	f022 0220 	bic.w	r2, r2, #32
 8005050:	60da      	str	r2, [r3, #12]

      /* Disable the UART Parity Error Interrupt */
      __HAL_UART_DISABLE_IT(huart, UART_IT_PE);
 8005052:	687b      	ldr	r3, [r7, #4]
 8005054:	681b      	ldr	r3, [r3, #0]
 8005056:	68da      	ldr	r2, [r3, #12]
 8005058:	687b      	ldr	r3, [r7, #4]
 800505a:	681b      	ldr	r3, [r3, #0]
 800505c:	f422 7280 	bic.w	r2, r2, #256	@ 0x100
 8005060:	60da      	str	r2, [r3, #12]

      /* Disable the UART Error Interrupt: (Frame error, noise error, overrun error) */
      __HAL_UART_DISABLE_IT(huart, UART_IT_ERR);
 8005062:	687b      	ldr	r3, [r7, #4]
 8005064:	681b      	ldr	r3, [r3, #0]
 8005066:	695a      	ldr	r2, [r3, #20]
 8005068:	687b      	ldr	r3, [r7, #4]
 800506a:	681b      	ldr	r3, [r3, #0]
 800506c:	f022 0201 	bic.w	r2, r2, #1
 8005070:	615a      	str	r2, [r3, #20]

      /* Rx process is completed, restore huart->RxState to Ready */
      huart->RxState = HAL_UART_STATE_READY;
 8005072:	687b      	ldr	r3, [r7, #4]
 8005074:	2220      	movs	r2, #32
 8005076:	f883 2042 	strb.w	r2, [r3, #66]	@ 0x42

      /* Initialize type of RxEvent to Transfer Complete */
      huart->RxEventType = HAL_UART_RXEVENT_TC;
 800507a:	687b      	ldr	r3, [r7, #4]
 800507c:	2200      	movs	r2, #0
 800507e:	635a      	str	r2, [r3, #52]	@ 0x34

      /* Check current reception Mode :
         If Reception till IDLE event has been selected : */
      if (huart->ReceptionType == HAL_UART_RECEPTION_TOIDLE)
 8005080:	687b      	ldr	r3, [r7, #4]
 8005082:	6b1b      	ldr	r3, [r3, #48]	@ 0x30
 8005084:	2b01      	cmp	r3, #1
 8005086:	d135      	bne.n	80050f4 <UART_Receive_IT+0x164>
      {
        /* Set reception type to Standard */
        huart->ReceptionType = HAL_UART_RECEPTION_STANDARD;
 8005088:	687b      	ldr	r3, [r7, #4]
 800508a:	2200      	movs	r2, #0
 800508c:	631a      	str	r2, [r3, #48]	@ 0x30

        /* Disable IDLE interrupt */
        ATOMIC_CLEAR_BIT(huart->Instance->CR1, USART_CR1_IDLEIE);
 800508e:	687b      	ldr	r3, [r7, #4]
 8005090:	681b      	ldr	r3, [r3, #0]
 8005092:	330c      	adds	r3, #12
 8005094:	617b      	str	r3, [r7, #20]
   __ASM volatile ("ldrex %0, %1" : "=r" (result) : "Q" (*addr) );
 8005096:	697b      	ldr	r3, [r7, #20]
 8005098:	e853 3f00 	ldrex	r3, [r3]
 800509c:	613b      	str	r3, [r7, #16]
   return(result);
 800509e:	693b      	ldr	r3, [r7, #16]
 80050a0:	f023 0310 	bic.w	r3, r3, #16
 80050a4:	627b      	str	r3, [r7, #36]	@ 0x24
 80050a6:	687b      	ldr	r3, [r7, #4]
 80050a8:	681b      	ldr	r3, [r3, #0]
 80050aa:	330c      	adds	r3, #12
 80050ac:	6a7a      	ldr	r2, [r7, #36]	@ 0x24
 80050ae:	623a      	str	r2, [r7, #32]
 80050b0:	61fb      	str	r3, [r7, #28]
   __ASM volatile ("strex %0, %2, %1" : "=&r" (result), "=Q" (*addr) : "r" (value) );
 80050b2:	69f9      	ldr	r1, [r7, #28]
 80050b4:	6a3a      	ldr	r2, [r7, #32]
 80050b6:	e841 2300 	strex	r3, r2, [r1]
 80050ba:	61bb      	str	r3, [r7, #24]
   return(result);
 80050bc:	69bb      	ldr	r3, [r7, #24]
 80050be:	2b00      	cmp	r3, #0
 80050c0:	d1e5      	bne.n	800508e <UART_Receive_IT+0xfe>

        /* Check if IDLE flag is set */
        if (__HAL_UART_GET_FLAG(huart, UART_FLAG_IDLE))
 80050c2:	687b      	ldr	r3, [r7, #4]
 80050c4:	681b      	ldr	r3, [r3, #0]
 80050c6:	681b      	ldr	r3, [r3, #0]
 80050c8:	f003 0310 	and.w	r3, r3, #16
 80050cc:	2b10      	cmp	r3, #16
 80050ce:	d10a      	bne.n	80050e6 <UART_Receive_IT+0x156>
        {
          /* Clear IDLE flag in ISR */
          __HAL_UART_CLEAR_IDLEFLAG(huart);
 80050d0:	2300      	movs	r3, #0
 80050d2:	60fb      	str	r3, [r7, #12]
 80050d4:	687b      	ldr	r3, [r7, #4]
 80050d6:	681b      	ldr	r3, [r3, #0]
 80050d8:	681b      	ldr	r3, [r3, #0]
 80050da:	60fb      	str	r3, [r7, #12]
 80050dc:	687b      	ldr	r3, [r7, #4]
 80050de:	681b      	ldr	r3, [r3, #0]
 80050e0:	685b      	ldr	r3, [r3, #4]
 80050e2:	60fb      	str	r3, [r7, #12]
 80050e4:	68fb      	ldr	r3, [r7, #12]
#if (USE_HAL_UART_REGISTER_CALLBACKS == 1)
        /*Call registered Rx Event callback*/
        huart->RxEventCallback(huart, huart->RxXferSize);
#else
        /*Call legacy weak Rx Event callback*/
        HAL_UARTEx_RxEventCallback(huart, huart->RxXferSize);
 80050e6:	687b      	ldr	r3, [r7, #4]
 80050e8:	8d9b      	ldrh	r3, [r3, #44]	@ 0x2c
 80050ea:	4619      	mov	r1, r3
 80050ec:	6878      	ldr	r0, [r7, #4]
 80050ee:	f7ff fdd1 	bl	8004c94 <HAL_UARTEx_RxEventCallback>
 80050f2:	e002      	b.n	80050fa <UART_Receive_IT+0x16a>
#if (USE_HAL_UART_REGISTER_CALLBACKS == 1)
        /*Call registered Rx complete callback*/
        huart->RxCpltCallback(huart);
#else
        /*Call legacy weak Rx complete callback*/
        HAL_UART_RxCpltCallback(huart);
 80050f4:	6878      	ldr	r0, [r7, #4]
 80050f6:	f7fc fc5d 	bl	80019b4 <HAL_UART_RxCpltCallback>
#endif /* USE_HAL_UART_REGISTER_CALLBACKS */
      }

      return HAL_OK;
 80050fa:	2300      	movs	r3, #0
 80050fc:	e002      	b.n	8005104 <UART_Receive_IT+0x174>
    }
    return HAL_OK;
 80050fe:	2300      	movs	r3, #0
 8005100:	e000      	b.n	8005104 <UART_Receive_IT+0x174>
  }
  else
  {
    return HAL_BUSY;
 8005102:	2302      	movs	r3, #2
  }
}
 8005104:	4618      	mov	r0, r3
 8005106:	3730      	adds	r7, #48	@ 0x30
 8005108:	46bd      	mov	sp, r7
 800510a:	bd80      	pop	{r7, pc}

0800510c <UART_SetConfig>:
  * @param  huart  Pointer to a UART_HandleTypeDef structure that contains
  *                the configuration information for the specified UART module.
  * @retval None
  */
static void UART_SetConfig(UART_HandleTypeDef *huart)
{
 800510c:	e92d 4fb0 	stmdb	sp!, {r4, r5, r7, r8, r9, sl, fp, lr}
 8005110:	b0c0      	sub	sp, #256	@ 0x100
 8005112:	af00      	add	r7, sp, #0
 8005114:	f8c7 00f4 	str.w	r0, [r7, #244]	@ 0xf4
  assert_param(IS_UART_MODE(huart->Init.Mode));

  /*-------------------------- USART CR2 Configuration -----------------------*/
  /* Configure the UART Stop Bits: Set STOP[13:12] bits
     according to huart->Init.StopBits value */
  MODIFY_REG(huart->Instance->CR2, USART_CR2_STOP, huart->Init.StopBits);
 8005118:	f8d7 30f4 	ldr.w	r3, [r7, #244]	@ 0xf4
 800511c:	681b      	ldr	r3, [r3, #0]
 800511e:	691b      	ldr	r3, [r3, #16]
 8005120:	f423 5040 	bic.w	r0, r3, #12288	@ 0x3000
 8005124:	f8d7 30f4 	ldr.w	r3, [r7, #244]	@ 0xf4
 8005128:	68d9      	ldr	r1, [r3, #12]
 800512a:	f8d7 30f4 	ldr.w	r3, [r7, #244]	@ 0xf4
 800512e:	681a      	ldr	r2, [r3, #0]
 8005130:	ea40 0301 	orr.w	r3, r0, r1
 8005134:	6113      	str	r3, [r2, #16]
     Set the M bits according to huart->Init.WordLength value
     Set PCE and PS bits according to huart->Init.Parity value
     Set TE and RE bits according to huart->Init.Mode value
     Set OVER8 bit according to huart->Init.OverSampling value */

  tmpreg = (uint32_t)huart->Init.WordLength | huart->Init.Parity | huart->Init.Mode | huart->Init.OverSampling;
 8005136:	f8d7 30f4 	ldr.w	r3, [r7, #244]	@ 0xf4
 800513a:	689a      	ldr	r2, [r3, #8]
 800513c:	f8d7 30f4 	ldr.w	r3, [r7, #244]	@ 0xf4
 8005140:	691b      	ldr	r3, [r3, #16]
 8005142:	431a      	orrs	r2, r3
 8005144:	f8d7 30f4 	ldr.w	r3, [r7, #244]	@ 0xf4
 8005148:	695b      	ldr	r3, [r3, #20]
 800514a:	431a      	orrs	r2, r3
 800514c:	f8d7 30f4 	ldr.w	r3, [r7, #244]	@ 0xf4
 8005150:	69db      	ldr	r3, [r3, #28]
 8005152:	4313      	orrs	r3, r2
 8005154:	f8c7 30f8 	str.w	r3, [r7, #248]	@ 0xf8
  MODIFY_REG(huart->Instance->CR1,
 8005158:	f8d7 30f4 	ldr.w	r3, [r7, #244]	@ 0xf4
 800515c:	681b      	ldr	r3, [r3, #0]
 800515e:	68db      	ldr	r3, [r3, #12]
 8005160:	f423 4116 	bic.w	r1, r3, #38400	@ 0x9600
 8005164:	f021 010c 	bic.w	r1, r1, #12
 8005168:	f8d7 30f4 	ldr.w	r3, [r7, #244]	@ 0xf4
 800516c:	681a      	ldr	r2, [r3, #0]
 800516e:	f8d7 30f8 	ldr.w	r3, [r7, #248]	@ 0xf8
 8005172:	430b      	orrs	r3, r1
 8005174:	60d3      	str	r3, [r2, #12]
             (uint32_t)(USART_CR1_M | USART_CR1_PCE | USART_CR1_PS | USART_CR1_TE | USART_CR1_RE | USART_CR1_OVER8),
             tmpreg);

  /*-------------------------- USART CR3 Configuration -----------------------*/
  /* Configure the UART HFC: Set CTSE and RTSE bits according to huart->Init.HwFlowCtl value */
  MODIFY_REG(huart->Instance->CR3, (USART_CR3_RTSE | USART_CR3_CTSE), huart->Init.HwFlowCtl);
 8005176:	f8d7 30f4 	ldr.w	r3, [r7, #244]	@ 0xf4
 800517a:	681b      	ldr	r3, [r3, #0]
 800517c:	695b      	ldr	r3, [r3, #20]
 800517e:	f423 7040 	bic.w	r0, r3, #768	@ 0x300
 8005182:	f8d7 30f4 	ldr.w	r3, [r7, #244]	@ 0xf4
 8005186:	6999      	ldr	r1, [r3, #24]
 8005188:	f8d7 30f4 	ldr.w	r3, [r7, #244]	@ 0xf4
 800518c:	681a      	ldr	r2, [r3, #0]
 800518e:	ea40 0301 	orr.w	r3, r0, r1
 8005192:	6153      	str	r3, [r2, #20]
    if ((huart->Instance == USART1) || (huart->Instance == USART6) || (huart->Instance == UART9) || (huart->Instance == UART10))
    {
      pclk = HAL_RCC_GetPCLK2Freq();
    }
#elif defined(USART6)
    if ((huart->Instance == USART1) || (huart->Instance == USART6))
 8005194:	f8d7 30f4 	ldr.w	r3, [r7, #244]	@ 0xf4
 8005198:	681a      	ldr	r2, [r3, #0]
 800519a:	4b8f      	ldr	r3, [pc, #572]	@ (80053d8 <UART_SetConfig+0x2cc>)
 800519c:	429a      	cmp	r2, r3
 800519e:	d005      	beq.n	80051ac <UART_SetConfig+0xa0>
 80051a0:	f8d7 30f4 	ldr.w	r3, [r7, #244]	@ 0xf4
 80051a4:	681a      	ldr	r2, [r3, #0]
 80051a6:	4b8d      	ldr	r3, [pc, #564]	@ (80053dc <UART_SetConfig+0x2d0>)
 80051a8:	429a      	cmp	r2, r3
 80051aa:	d104      	bne.n	80051b6 <UART_SetConfig+0xaa>
    {
      pclk = HAL_RCC_GetPCLK2Freq();
 80051ac:	f7fe fb7c 	bl	80038a8 <HAL_RCC_GetPCLK2Freq>
 80051b0:	f8c7 00fc 	str.w	r0, [r7, #252]	@ 0xfc
 80051b4:	e003      	b.n	80051be <UART_SetConfig+0xb2>
      pclk = HAL_RCC_GetPCLK2Freq();
    }
#endif /* USART6 */
    else
    {
      pclk = HAL_RCC_GetPCLK1Freq();
 80051b6:	f7fe fb63 	bl	8003880 <HAL_RCC_GetPCLK1Freq>
 80051ba:	f8c7 00fc 	str.w	r0, [r7, #252]	@ 0xfc
    }
  /*-------------------------- USART BRR Configuration ---------------------*/
  if (huart->Init.OverSampling == UART_OVERSAMPLING_8)
 80051be:	f8d7 30f4 	ldr.w	r3, [r7, #244]	@ 0xf4
 80051c2:	69db      	ldr	r3, [r3, #28]
 80051c4:	f5b3 4f00 	cmp.w	r3, #32768	@ 0x8000
 80051c8:	f040 810c 	bne.w	80053e4 <UART_SetConfig+0x2d8>
  {
    huart->Instance->BRR = UART_BRR_SAMPLING8(pclk, huart->Init.BaudRate);
 80051cc:	f8d7 30fc 	ldr.w	r3, [r7, #252]	@ 0xfc
 80051d0:	2200      	movs	r2, #0
 80051d2:	f8c7 30e8 	str.w	r3, [r7, #232]	@ 0xe8
 80051d6:	f8c7 20ec 	str.w	r2, [r7, #236]	@ 0xec
 80051da:	e9d7 453a 	ldrd	r4, r5, [r7, #232]	@ 0xe8
 80051de:	4622      	mov	r2, r4
 80051e0:	462b      	mov	r3, r5
 80051e2:	1891      	adds	r1, r2, r2
 80051e4:	65b9      	str	r1, [r7, #88]	@ 0x58
 80051e6:	415b      	adcs	r3, r3
 80051e8:	65fb      	str	r3, [r7, #92]	@ 0x5c
 80051ea:	e9d7 2316 	ldrd	r2, r3, [r7, #88]	@ 0x58
 80051ee:	4621      	mov	r1, r4
 80051f0:	eb12 0801 	adds.w	r8, r2, r1
 80051f4:	4629      	mov	r1, r5
 80051f6:	eb43 0901 	adc.w	r9, r3, r1
 80051fa:	f04f 0200 	mov.w	r2, #0
 80051fe:	f04f 0300 	mov.w	r3, #0
 8005202:	ea4f 03c9 	mov.w	r3, r9, lsl #3
 8005206:	ea43 7358 	orr.w	r3, r3, r8, lsr #29
 800520a:	ea4f 02c8 	mov.w	r2, r8, lsl #3
 800520e:	4690      	mov	r8, r2
 8005210:	4699      	mov	r9, r3
 8005212:	4623      	mov	r3, r4
 8005214:	eb18 0303 	adds.w	r3, r8, r3
 8005218:	f8c7 30e0 	str.w	r3, [r7, #224]	@ 0xe0
 800521c:	462b      	mov	r3, r5
 800521e:	eb49 0303 	adc.w	r3, r9, r3
 8005222:	f8c7 30e4 	str.w	r3, [r7, #228]	@ 0xe4
 8005226:	f8d7 30f4 	ldr.w	r3, [r7, #244]	@ 0xf4
 800522a:	685b      	ldr	r3, [r3, #4]
 800522c:	2200      	movs	r2, #0
 800522e:	f8c7 30d8 	str.w	r3, [r7, #216]	@ 0xd8
 8005232:	f8c7 20dc 	str.w	r2, [r7, #220]	@ 0xdc
 8005236:	e9d7 1236 	ldrd	r1, r2, [r7, #216]	@ 0xd8
 800523a:	460b      	mov	r3, r1
 800523c:	18db      	adds	r3, r3, r3
 800523e:	653b      	str	r3, [r7, #80]	@ 0x50
 8005240:	4613      	mov	r3, r2
 8005242:	eb42 0303 	adc.w	r3, r2, r3
 8005246:	657b      	str	r3, [r7, #84]	@ 0x54
 8005248:	e9d7 2314 	ldrd	r2, r3, [r7, #80]	@ 0x50
 800524c:	e9d7 0138 	ldrd	r0, r1, [r7, #224]	@ 0xe0
 8005250:	f7fb fc0c 	bl	8000a6c <__aeabi_uldivmod>
 8005254:	4602      	mov	r2, r0
 8005256:	460b      	mov	r3, r1
 8005258:	4b61      	ldr	r3, [pc, #388]	@ (80053e0 <UART_SetConfig+0x2d4>)
 800525a:	fba3 2302 	umull	r2, r3, r3, r2
 800525e:	095b      	lsrs	r3, r3, #5
 8005260:	011c      	lsls	r4, r3, #4
 8005262:	f8d7 30fc 	ldr.w	r3, [r7, #252]	@ 0xfc
 8005266:	2200      	movs	r2, #0
 8005268:	f8c7 30d0 	str.w	r3, [r7, #208]	@ 0xd0
 800526c:	f8c7 20d4 	str.w	r2, [r7, #212]	@ 0xd4
 8005270:	e9d7 8934 	ldrd	r8, r9, [r7, #208]	@ 0xd0
 8005274:	4642      	mov	r2, r8
 8005276:	464b      	mov	r3, r9
 8005278:	1891      	adds	r1, r2, r2
 800527a:	64b9      	str	r1, [r7, #72]	@ 0x48
 800527c:	415b      	adcs	r3, r3
 800527e:	64fb      	str	r3, [r7, #76]	@ 0x4c
 8005280:	e9d7 2312 	ldrd	r2, r3, [r7, #72]	@ 0x48
 8005284:	4641      	mov	r1, r8
 8005286:	eb12 0a01 	adds.w	sl, r2, r1
 800528a:	4649      	mov	r1, r9
 800528c:	eb43 0b01 	adc.w	fp, r3, r1
 8005290:	f04f 0200 	mov.w	r2, #0
 8005294:	f04f 0300 	mov.w	r3, #0
 8005298:	ea4f 03cb 	mov.w	r3, fp, lsl #3
 800529c:	ea43 735a 	orr.w	r3, r3, sl, lsr #29
 80052a0:	ea4f 02ca 	mov.w	r2, sl, lsl #3
 80052a4:	4692      	mov	sl, r2
 80052a6:	469b      	mov	fp, r3
 80052a8:	4643      	mov	r3, r8
 80052aa:	eb1a 0303 	adds.w	r3, sl, r3
 80052ae:	f8c7 30c8 	str.w	r3, [r7, #200]	@ 0xc8
 80052b2:	464b      	mov	r3, r9
 80052b4:	eb4b 0303 	adc.w	r3, fp, r3
 80052b8:	f8c7 30cc 	str.w	r3, [r7, #204]	@ 0xcc
 80052bc:	f8d7 30f4 	ldr.w	r3, [r7, #244]	@ 0xf4
 80052c0:	685b      	ldr	r3, [r3, #4]
 80052c2:	2200      	movs	r2, #0
 80052c4:	f8c7 30c0 	str.w	r3, [r7, #192]	@ 0xc0
 80052c8:	f8c7 20c4 	str.w	r2, [r7, #196]	@ 0xc4
 80052cc:	e9d7 1230 	ldrd	r1, r2, [r7, #192]	@ 0xc0
 80052d0:	460b      	mov	r3, r1
 80052d2:	18db      	adds	r3, r3, r3
 80052d4:	643b      	str	r3, [r7, #64]	@ 0x40
 80052d6:	4613      	mov	r3, r2
 80052d8:	eb42 0303 	adc.w	r3, r2, r3
 80052dc:	647b      	str	r3, [r7, #68]	@ 0x44
 80052de:	e9d7 2310 	ldrd	r2, r3, [r7, #64]	@ 0x40
 80052e2:	e9d7 0132 	ldrd	r0, r1, [r7, #200]	@ 0xc8
 80052e6:	f7fb fbc1 	bl	8000a6c <__aeabi_uldivmod>
 80052ea:	4602      	mov	r2, r0
 80052ec:	460b      	mov	r3, r1
 80052ee:	4611      	mov	r1, r2
 80052f0:	4b3b      	ldr	r3, [pc, #236]	@ (80053e0 <UART_SetConfig+0x2d4>)
 80052f2:	fba3 2301 	umull	r2, r3, r3, r1
 80052f6:	095b      	lsrs	r3, r3, #5
 80052f8:	2264      	movs	r2, #100	@ 0x64
 80052fa:	fb02 f303 	mul.w	r3, r2, r3
 80052fe:	1acb      	subs	r3, r1, r3
 8005300:	00db      	lsls	r3, r3, #3
 8005302:	f103 0232 	add.w	r2, r3, #50	@ 0x32
 8005306:	4b36      	ldr	r3, [pc, #216]	@ (80053e0 <UART_SetConfig+0x2d4>)
 8005308:	fba3 2302 	umull	r2, r3, r3, r2
 800530c:	095b      	lsrs	r3, r3, #5
 800530e:	005b      	lsls	r3, r3, #1
 8005310:	f403 73f8 	and.w	r3, r3, #496	@ 0x1f0
 8005314:	441c      	add	r4, r3
 8005316:	f8d7 30fc 	ldr.w	r3, [r7, #252]	@ 0xfc
 800531a:	2200      	movs	r2, #0
 800531c:	f8c7 30b8 	str.w	r3, [r7, #184]	@ 0xb8
 8005320:	f8c7 20bc 	str.w	r2, [r7, #188]	@ 0xbc
 8005324:	e9d7 892e 	ldrd	r8, r9, [r7, #184]	@ 0xb8
 8005328:	4642      	mov	r2, r8
 800532a:	464b      	mov	r3, r9
 800532c:	1891      	adds	r1, r2, r2
 800532e:	63b9      	str	r1, [r7, #56]	@ 0x38
 8005330:	415b      	adcs	r3, r3
 8005332:	63fb      	str	r3, [r7, #60]	@ 0x3c
 8005334:	e9d7 230e 	ldrd	r2, r3, [r7, #56]	@ 0x38
 8005338:	4641      	mov	r1, r8
 800533a:	1851      	adds	r1, r2, r1
 800533c:	6339      	str	r1, [r7, #48]	@ 0x30
 800533e:	4649      	mov	r1, r9
 8005340:	414b      	adcs	r3, r1
 8005342:	637b      	str	r3, [r7, #52]	@ 0x34
 8005344:	f04f 0200 	mov.w	r2, #0
 8005348:	f04f 0300 	mov.w	r3, #0
 800534c:	e9d7 ab0c 	ldrd	sl, fp, [r7, #48]	@ 0x30
 8005350:	4659      	mov	r1, fp
 8005352:	00cb      	lsls	r3, r1, #3
 8005354:	4651      	mov	r1, sl
 8005356:	ea43 7351 	orr.w	r3, r3, r1, lsr #29
 800535a:	4651      	mov	r1, sl
 800535c:	00ca      	lsls	r2, r1, #3
 800535e:	4610      	mov	r0, r2
 8005360:	4619      	mov	r1, r3
 8005362:	4603      	mov	r3, r0
 8005364:	4642      	mov	r2, r8
 8005366:	189b      	adds	r3, r3, r2
 8005368:	f8c7 30b0 	str.w	r3, [r7, #176]	@ 0xb0
 800536c:	464b      	mov	r3, r9
 800536e:	460a      	mov	r2, r1
 8005370:	eb42 0303 	adc.w	r3, r2, r3
 8005374:	f8c7 30b4 	str.w	r3, [r7, #180]	@ 0xb4
 8005378:	f8d7 30f4 	ldr.w	r3, [r7, #244]	@ 0xf4
 800537c:	685b      	ldr	r3, [r3, #4]
 800537e:	2200      	movs	r2, #0
 8005380:	f8c7 30a8 	str.w	r3, [r7, #168]	@ 0xa8
 8005384:	f8c7 20ac 	str.w	r2, [r7, #172]	@ 0xac
 8005388:	e9d7 122a 	ldrd	r1, r2, [r7, #168]	@ 0xa8
 800538c:	460b      	mov	r3, r1
 800538e:	18db      	adds	r3, r3, r3
 8005390:	62bb      	str	r3, [r7, #40]	@ 0x28
 8005392:	4613      	mov	r3, r2
 8005394:	eb42 0303 	adc.w	r3, r2, r3
 8005398:	62fb      	str	r3, [r7, #44]	@ 0x2c
 800539a:	e9d7 230a 	ldrd	r2, r3, [r7, #40]	@ 0x28
 800539e:	e9d7 012c 	ldrd	r0, r1, [r7, #176]	@ 0xb0
 80053a2:	f7fb fb63 	bl	8000a6c <__aeabi_uldivmod>
 80053a6:	4602      	mov	r2, r0
 80053a8:	460b      	mov	r3, r1
 80053aa:	4b0d      	ldr	r3, [pc, #52]	@ (80053e0 <UART_SetConfig+0x2d4>)
 80053ac:	fba3 1302 	umull	r1, r3, r3, r2
 80053b0:	095b      	lsrs	r3, r3, #5
 80053b2:	2164      	movs	r1, #100	@ 0x64
 80053b4:	fb01 f303 	mul.w	r3, r1, r3
 80053b8:	1ad3      	subs	r3, r2, r3
 80053ba:	00db      	lsls	r3, r3, #3
 80053bc:	3332      	adds	r3, #50	@ 0x32
 80053be:	4a08      	ldr	r2, [pc, #32]	@ (80053e0 <UART_SetConfig+0x2d4>)
 80053c0:	fba2 2303 	umull	r2, r3, r2, r3
 80053c4:	095b      	lsrs	r3, r3, #5
 80053c6:	f003 0207 	and.w	r2, r3, #7
 80053ca:	f8d7 30f4 	ldr.w	r3, [r7, #244]	@ 0xf4
 80053ce:	681b      	ldr	r3, [r3, #0]
 80053d0:	4422      	add	r2, r4
 80053d2:	609a      	str	r2, [r3, #8]
  }
  else
  {
    huart->Instance->BRR = UART_BRR_SAMPLING16(pclk, huart->Init.BaudRate);
  }
}
 80053d4:	e106      	b.n	80055e4 <UART_SetConfig+0x4d8>
 80053d6:	bf00      	nop
 80053d8:	40011000 	.word	0x40011000
 80053dc:	40011400 	.word	0x40011400
 80053e0:	51eb851f 	.word	0x51eb851f
    huart->Instance->BRR = UART_BRR_SAMPLING16(pclk, huart->Init.BaudRate);
 80053e4:	f8d7 30fc 	ldr.w	r3, [r7, #252]	@ 0xfc
 80053e8:	2200      	movs	r2, #0
 80053ea:	f8c7 30a0 	str.w	r3, [r7, #160]	@ 0xa0
 80053ee:	f8c7 20a4 	str.w	r2, [r7, #164]	@ 0xa4
 80053f2:	e9d7 8928 	ldrd	r8, r9, [r7, #160]	@ 0xa0
 80053f6:	4642      	mov	r2, r8
 80053f8:	464b      	mov	r3, r9
 80053fa:	1891      	adds	r1, r2, r2
 80053fc:	6239      	str	r1, [r7, #32]
 80053fe:	415b      	adcs	r3, r3
 8005400:	627b      	str	r3, [r7, #36]	@ 0x24
 8005402:	e9d7 2308 	ldrd	r2, r3, [r7, #32]
 8005406:	4641      	mov	r1, r8
 8005408:	1854      	adds	r4, r2, r1
 800540a:	4649      	mov	r1, r9
 800540c:	eb43 0501 	adc.w	r5, r3, r1
 8005410:	f04f 0200 	mov.w	r2, #0
 8005414:	f04f 0300 	mov.w	r3, #0
 8005418:	00eb      	lsls	r3, r5, #3
 800541a:	ea43 7354 	orr.w	r3, r3, r4, lsr #29
 800541e:	00e2      	lsls	r2, r4, #3
 8005420:	4614      	mov	r4, r2
 8005422:	461d      	mov	r5, r3
 8005424:	4643      	mov	r3, r8
 8005426:	18e3      	adds	r3, r4, r3
 8005428:	f8c7 3098 	str.w	r3, [r7, #152]	@ 0x98
 800542c:	464b      	mov	r3, r9
 800542e:	eb45 0303 	adc.w	r3, r5, r3
 8005432:	f8c7 309c 	str.w	r3, [r7, #156]	@ 0x9c
 8005436:	f8d7 30f4 	ldr.w	r3, [r7, #244]	@ 0xf4
 800543a:	685b      	ldr	r3, [r3, #4]
 800543c:	2200      	movs	r2, #0
 800543e:	f8c7 3090 	str.w	r3, [r7, #144]	@ 0x90
 8005442:	f8c7 2094 	str.w	r2, [r7, #148]	@ 0x94
 8005446:	f04f 0200 	mov.w	r2, #0
 800544a:	f04f 0300 	mov.w	r3, #0
 800544e:	e9d7 4524 	ldrd	r4, r5, [r7, #144]	@ 0x90
 8005452:	4629      	mov	r1, r5
 8005454:	008b      	lsls	r3, r1, #2
 8005456:	4621      	mov	r1, r4
 8005458:	ea43 7391 	orr.w	r3, r3, r1, lsr #30
 800545c:	4621      	mov	r1, r4
 800545e:	008a      	lsls	r2, r1, #2
 8005460:	e9d7 0126 	ldrd	r0, r1, [r7, #152]	@ 0x98
 8005464:	f7fb fb02 	bl	8000a6c <__aeabi_uldivmod>
 8005468:	4602      	mov	r2, r0
 800546a:	460b      	mov	r3, r1
 800546c:	4b60      	ldr	r3, [pc, #384]	@ (80055f0 <UART_SetConfig+0x4e4>)
 800546e:	fba3 2302 	umull	r2, r3, r3, r2
 8005472:	095b      	lsrs	r3, r3, #5
 8005474:	011c      	lsls	r4, r3, #4
 8005476:	f8d7 30fc 	ldr.w	r3, [r7, #252]	@ 0xfc
 800547a:	2200      	movs	r2, #0
 800547c:	f8c7 3088 	str.w	r3, [r7, #136]	@ 0x88
 8005480:	f8c7 208c 	str.w	r2, [r7, #140]	@ 0x8c
 8005484:	e9d7 8922 	ldrd	r8, r9, [r7, #136]	@ 0x88
 8005488:	4642      	mov	r2, r8
 800548a:	464b      	mov	r3, r9
 800548c:	1891      	adds	r1, r2, r2
 800548e:	61b9      	str	r1, [r7, #24]
 8005490:	415b      	adcs	r3, r3
 8005492:	61fb      	str	r3, [r7, #28]
 8005494:	e9d7 2306 	ldrd	r2, r3, [r7, #24]
 8005498:	4641      	mov	r1, r8
 800549a:	1851      	adds	r1, r2, r1
 800549c:	6139      	str	r1, [r7, #16]
 800549e:	4649      	mov	r1, r9
 80054a0:	414b      	adcs	r3, r1
 80054a2:	617b      	str	r3, [r7, #20]
 80054a4:	f04f 0200 	mov.w	r2, #0
 80054a8:	f04f 0300 	mov.w	r3, #0
 80054ac:	e9d7 ab04 	ldrd	sl, fp, [r7, #16]
 80054b0:	4659      	mov	r1, fp
 80054b2:	00cb      	lsls	r3, r1, #3
 80054b4:	4651      	mov	r1, sl
 80054b6:	ea43 7351 	orr.w	r3, r3, r1, lsr #29
 80054ba:	4651      	mov	r1, sl
 80054bc:	00ca      	lsls	r2, r1, #3
 80054be:	4610      	mov	r0, r2
 80054c0:	4619      	mov	r1, r3
 80054c2:	4603      	mov	r3, r0
 80054c4:	4642      	mov	r2, r8
 80054c6:	189b      	adds	r3, r3, r2
 80054c8:	f8c7 3080 	str.w	r3, [r7, #128]	@ 0x80
 80054cc:	464b      	mov	r3, r9
 80054ce:	460a      	mov	r2, r1
 80054d0:	eb42 0303 	adc.w	r3, r2, r3
 80054d4:	f8c7 3084 	str.w	r3, [r7, #132]	@ 0x84
 80054d8:	f8d7 30f4 	ldr.w	r3, [r7, #244]	@ 0xf4
 80054dc:	685b      	ldr	r3, [r3, #4]
 80054de:	2200      	movs	r2, #0
 80054e0:	67bb      	str	r3, [r7, #120]	@ 0x78
 80054e2:	67fa      	str	r2, [r7, #124]	@ 0x7c
 80054e4:	f04f 0200 	mov.w	r2, #0
 80054e8:	f04f 0300 	mov.w	r3, #0
 80054ec:	e9d7 891e 	ldrd	r8, r9, [r7, #120]	@ 0x78
 80054f0:	4649      	mov	r1, r9
 80054f2:	008b      	lsls	r3, r1, #2
 80054f4:	4641      	mov	r1, r8
 80054f6:	ea43 7391 	orr.w	r3, r3, r1, lsr #30
 80054fa:	4641      	mov	r1, r8
 80054fc:	008a      	lsls	r2, r1, #2
 80054fe:	e9d7 0120 	ldrd	r0, r1, [r7, #128]	@ 0x80
 8005502:	f7fb fab3 	bl	8000a6c <__aeabi_uldivmod>
 8005506:	4602      	mov	r2, r0
 8005508:	460b      	mov	r3, r1
 800550a:	4611      	mov	r1, r2
 800550c:	4b38      	ldr	r3, [pc, #224]	@ (80055f0 <UART_SetConfig+0x4e4>)
 800550e:	fba3 2301 	umull	r2, r3, r3, r1
 8005512:	095b      	lsrs	r3, r3, #5
 8005514:	2264      	movs	r2, #100	@ 0x64
 8005516:	fb02 f303 	mul.w	r3, r2, r3
 800551a:	1acb      	subs	r3, r1, r3
 800551c:	011b      	lsls	r3, r3, #4
 800551e:	3332      	adds	r3, #50	@ 0x32
 8005520:	4a33      	ldr	r2, [pc, #204]	@ (80055f0 <UART_SetConfig+0x4e4>)
 8005522:	fba2 2303 	umull	r2, r3, r2, r3
 8005526:	095b      	lsrs	r3, r3, #5
 8005528:	f003 03f0 	and.w	r3, r3, #240	@ 0xf0
 800552c:	441c      	add	r4, r3
 800552e:	f8d7 30fc 	ldr.w	r3, [r7, #252]	@ 0xfc
 8005532:	2200      	movs	r2, #0
 8005534:	673b      	str	r3, [r7, #112]	@ 0x70
 8005536:	677a      	str	r2, [r7, #116]	@ 0x74
 8005538:	e9d7 891c 	ldrd	r8, r9, [r7, #112]	@ 0x70
 800553c:	4642      	mov	r2, r8
 800553e:	464b      	mov	r3, r9
 8005540:	1891      	adds	r1, r2, r2
 8005542:	60b9      	str	r1, [r7, #8]
 8005544:	415b      	adcs	r3, r3
 8005546:	60fb      	str	r3, [r7, #12]
 8005548:	e9d7 2302 	ldrd	r2, r3, [r7, #8]
 800554c:	4641      	mov	r1, r8
 800554e:	1851      	adds	r1, r2, r1
 8005550:	6039      	str	r1, [r7, #0]
 8005552:	4649      	mov	r1, r9
 8005554:	414b      	adcs	r3, r1
 8005556:	607b      	str	r3, [r7, #4]
 8005558:	f04f 0200 	mov.w	r2, #0
 800555c:	f04f 0300 	mov.w	r3, #0
 8005560:	e9d7 ab00 	ldrd	sl, fp, [r7]
 8005564:	4659      	mov	r1, fp
 8005566:	00cb      	lsls	r3, r1, #3
 8005568:	4651      	mov	r1, sl
 800556a:	ea43 7351 	orr.w	r3, r3, r1, lsr #29
 800556e:	4651      	mov	r1, sl
 8005570:	00ca      	lsls	r2, r1, #3
 8005572:	4610      	mov	r0, r2
 8005574:	4619      	mov	r1, r3
 8005576:	4603      	mov	r3, r0
 8005578:	4642      	mov	r2, r8
 800557a:	189b      	adds	r3, r3, r2
 800557c:	66bb      	str	r3, [r7, #104]	@ 0x68
 800557e:	464b      	mov	r3, r9
 8005580:	460a      	mov	r2, r1
 8005582:	eb42 0303 	adc.w	r3, r2, r3
 8005586:	66fb      	str	r3, [r7, #108]	@ 0x6c
 8005588:	f8d7 30f4 	ldr.w	r3, [r7, #244]	@ 0xf4
 800558c:	685b      	ldr	r3, [r3, #4]
 800558e:	2200      	movs	r2, #0
 8005590:	663b      	str	r3, [r7, #96]	@ 0x60
 8005592:	667a      	str	r2, [r7, #100]	@ 0x64
 8005594:	f04f 0200 	mov.w	r2, #0
 8005598:	f04f 0300 	mov.w	r3, #0
 800559c:	e9d7 8918 	ldrd	r8, r9, [r7, #96]	@ 0x60
 80055a0:	4649      	mov	r1, r9
 80055a2:	008b      	lsls	r3, r1, #2
 80055a4:	4641      	mov	r1, r8
 80055a6:	ea43 7391 	orr.w	r3, r3, r1, lsr #30
 80055aa:	4641      	mov	r1, r8
 80055ac:	008a      	lsls	r2, r1, #2
 80055ae:	e9d7 011a 	ldrd	r0, r1, [r7, #104]	@ 0x68
 80055b2:	f7fb fa5b 	bl	8000a6c <__aeabi_uldivmod>
 80055b6:	4602      	mov	r2, r0
 80055b8:	460b      	mov	r3, r1
 80055ba:	4b0d      	ldr	r3, [pc, #52]	@ (80055f0 <UART_SetConfig+0x4e4>)
 80055bc:	fba3 1302 	umull	r1, r3, r3, r2
 80055c0:	095b      	lsrs	r3, r3, #5
 80055c2:	2164      	movs	r1, #100	@ 0x64
 80055c4:	fb01 f303 	mul.w	r3, r1, r3
 80055c8:	1ad3      	subs	r3, r2, r3
 80055ca:	011b      	lsls	r3, r3, #4
 80055cc:	3332      	adds	r3, #50	@ 0x32
 80055ce:	4a08      	ldr	r2, [pc, #32]	@ (80055f0 <UART_SetConfig+0x4e4>)
 80055d0:	fba2 2303 	umull	r2, r3, r2, r3
 80055d4:	095b      	lsrs	r3, r3, #5
 80055d6:	f003 020f 	and.w	r2, r3, #15
 80055da:	f8d7 30f4 	ldr.w	r3, [r7, #244]	@ 0xf4
 80055de:	681b      	ldr	r3, [r3, #0]
 80055e0:	4422      	add	r2, r4
 80055e2:	609a      	str	r2, [r3, #8]
}
 80055e4:	bf00      	nop
 80055e6:	f507 7780 	add.w	r7, r7, #256	@ 0x100
 80055ea:	46bd      	mov	sp, r7
 80055ec:	e8bd 8fb0 	ldmia.w	sp!, {r4, r5, r7, r8, r9, sl, fp, pc}
 80055f0:	51eb851f 	.word	0x51eb851f

080055f4 <siprintf>:
 80055f4:	b40e      	push	{r1, r2, r3}
 80055f6:	b500      	push	{lr}
 80055f8:	b09c      	sub	sp, #112	@ 0x70
 80055fa:	ab1d      	add	r3, sp, #116	@ 0x74
 80055fc:	9002      	str	r0, [sp, #8]
 80055fe:	9006      	str	r0, [sp, #24]
 8005600:	f06f 4100 	mvn.w	r1, #2147483648	@ 0x80000000
 8005604:	4809      	ldr	r0, [pc, #36]	@ (800562c <siprintf+0x38>)
 8005606:	9107      	str	r1, [sp, #28]
 8005608:	9104      	str	r1, [sp, #16]
 800560a:	4909      	ldr	r1, [pc, #36]	@ (8005630 <siprintf+0x3c>)
 800560c:	f853 2b04 	ldr.w	r2, [r3], #4
 8005610:	9105      	str	r1, [sp, #20]
 8005612:	6800      	ldr	r0, [r0, #0]
 8005614:	9301      	str	r3, [sp, #4]
 8005616:	a902      	add	r1, sp, #8
 8005618:	f000 f994 	bl	8005944 <_svfiprintf_r>
 800561c:	9b02      	ldr	r3, [sp, #8]
 800561e:	2200      	movs	r2, #0
 8005620:	701a      	strb	r2, [r3, #0]
 8005622:	b01c      	add	sp, #112	@ 0x70
 8005624:	f85d eb04 	ldr.w	lr, [sp], #4
 8005628:	b003      	add	sp, #12
 800562a:	4770      	bx	lr
 800562c:	20000024 	.word	0x20000024
 8005630:	ffff0208 	.word	0xffff0208

08005634 <memset>:
 8005634:	4402      	add	r2, r0
 8005636:	4603      	mov	r3, r0
 8005638:	4293      	cmp	r3, r2
 800563a:	d100      	bne.n	800563e <memset+0xa>
 800563c:	4770      	bx	lr
 800563e:	f803 1b01 	strb.w	r1, [r3], #1
 8005642:	e7f9      	b.n	8005638 <memset+0x4>

08005644 <__errno>:
 8005644:	4b01      	ldr	r3, [pc, #4]	@ (800564c <__errno+0x8>)
 8005646:	6818      	ldr	r0, [r3, #0]
 8005648:	4770      	bx	lr
 800564a:	bf00      	nop
 800564c:	20000024 	.word	0x20000024

08005650 <__libc_init_array>:
 8005650:	b570      	push	{r4, r5, r6, lr}
 8005652:	4d0d      	ldr	r5, [pc, #52]	@ (8005688 <__libc_init_array+0x38>)
 8005654:	4c0d      	ldr	r4, [pc, #52]	@ (800568c <__libc_init_array+0x3c>)
 8005656:	1b64      	subs	r4, r4, r5
 8005658:	10a4      	asrs	r4, r4, #2
 800565a:	2600      	movs	r6, #0
 800565c:	42a6      	cmp	r6, r4
 800565e:	d109      	bne.n	8005674 <__libc_init_array+0x24>
 8005660:	4d0b      	ldr	r5, [pc, #44]	@ (8005690 <__libc_init_array+0x40>)
 8005662:	4c0c      	ldr	r4, [pc, #48]	@ (8005694 <__libc_init_array+0x44>)
 8005664:	f000 fc66 	bl	8005f34 <_init>
 8005668:	1b64      	subs	r4, r4, r5
 800566a:	10a4      	asrs	r4, r4, #2
 800566c:	2600      	movs	r6, #0
 800566e:	42a6      	cmp	r6, r4
 8005670:	d105      	bne.n	800567e <__libc_init_array+0x2e>
 8005672:	bd70      	pop	{r4, r5, r6, pc}
 8005674:	f855 3b04 	ldr.w	r3, [r5], #4
 8005678:	4798      	blx	r3
 800567a:	3601      	adds	r6, #1
 800567c:	e7ee      	b.n	800565c <__libc_init_array+0xc>
 800567e:	f855 3b04 	ldr.w	r3, [r5], #4
 8005682:	4798      	blx	r3
 8005684:	3601      	adds	r6, #1
 8005686:	e7f2      	b.n	800566e <__libc_init_array+0x1e>
 8005688:	08005fcc 	.word	0x08005fcc
 800568c:	08005fcc 	.word	0x08005fcc
 8005690:	08005fcc 	.word	0x08005fcc
 8005694:	08005fd0 	.word	0x08005fd0

08005698 <__retarget_lock_acquire_recursive>:
 8005698:	4770      	bx	lr

0800569a <__retarget_lock_release_recursive>:
 800569a:	4770      	bx	lr

0800569c <_free_r>:
 800569c:	b538      	push	{r3, r4, r5, lr}
 800569e:	4605      	mov	r5, r0
 80056a0:	2900      	cmp	r1, #0
 80056a2:	d041      	beq.n	8005728 <_free_r+0x8c>
 80056a4:	f851 3c04 	ldr.w	r3, [r1, #-4]
 80056a8:	1f0c      	subs	r4, r1, #4
 80056aa:	2b00      	cmp	r3, #0
 80056ac:	bfb8      	it	lt
 80056ae:	18e4      	addlt	r4, r4, r3
 80056b0:	f000 f8e0 	bl	8005874 <__malloc_lock>
 80056b4:	4a1d      	ldr	r2, [pc, #116]	@ (800572c <_free_r+0x90>)
 80056b6:	6813      	ldr	r3, [r2, #0]
 80056b8:	b933      	cbnz	r3, 80056c8 <_free_r+0x2c>
 80056ba:	6063      	str	r3, [r4, #4]
 80056bc:	6014      	str	r4, [r2, #0]
 80056be:	4628      	mov	r0, r5
 80056c0:	e8bd 4038 	ldmia.w	sp!, {r3, r4, r5, lr}
 80056c4:	f000 b8dc 	b.w	8005880 <__malloc_unlock>
 80056c8:	42a3      	cmp	r3, r4
 80056ca:	d908      	bls.n	80056de <_free_r+0x42>
 80056cc:	6820      	ldr	r0, [r4, #0]
 80056ce:	1821      	adds	r1, r4, r0
 80056d0:	428b      	cmp	r3, r1
 80056d2:	bf01      	itttt	eq
 80056d4:	6819      	ldreq	r1, [r3, #0]
 80056d6:	685b      	ldreq	r3, [r3, #4]
 80056d8:	1809      	addeq	r1, r1, r0
 80056da:	6021      	streq	r1, [r4, #0]
 80056dc:	e7ed      	b.n	80056ba <_free_r+0x1e>
 80056de:	461a      	mov	r2, r3
 80056e0:	685b      	ldr	r3, [r3, #4]
 80056e2:	b10b      	cbz	r3, 80056e8 <_free_r+0x4c>
 80056e4:	42a3      	cmp	r3, r4
 80056e6:	d9fa      	bls.n	80056de <_free_r+0x42>
 80056e8:	6811      	ldr	r1, [r2, #0]
 80056ea:	1850      	adds	r0, r2, r1
 80056ec:	42a0      	cmp	r0, r4
 80056ee:	d10b      	bne.n	8005708 <_free_r+0x6c>
 80056f0:	6820      	ldr	r0, [r4, #0]
 80056f2:	4401      	add	r1, r0
 80056f4:	1850      	adds	r0, r2, r1
 80056f6:	4283      	cmp	r3, r0
 80056f8:	6011      	str	r1, [r2, #0]
 80056fa:	d1e0      	bne.n	80056be <_free_r+0x22>
 80056fc:	6818      	ldr	r0, [r3, #0]
 80056fe:	685b      	ldr	r3, [r3, #4]
 8005700:	6053      	str	r3, [r2, #4]
 8005702:	4408      	add	r0, r1
 8005704:	6010      	str	r0, [r2, #0]
 8005706:	e7da      	b.n	80056be <_free_r+0x22>
 8005708:	d902      	bls.n	8005710 <_free_r+0x74>
 800570a:	230c      	movs	r3, #12
 800570c:	602b      	str	r3, [r5, #0]
 800570e:	e7d6      	b.n	80056be <_free_r+0x22>
 8005710:	6820      	ldr	r0, [r4, #0]
 8005712:	1821      	adds	r1, r4, r0
 8005714:	428b      	cmp	r3, r1
 8005716:	bf04      	itt	eq
 8005718:	6819      	ldreq	r1, [r3, #0]
 800571a:	685b      	ldreq	r3, [r3, #4]
 800571c:	6063      	str	r3, [r4, #4]
 800571e:	bf04      	itt	eq
 8005720:	1809      	addeq	r1, r1, r0
 8005722:	6021      	streq	r1, [r4, #0]
 8005724:	6054      	str	r4, [r2, #4]
 8005726:	e7ca      	b.n	80056be <_free_r+0x22>
 8005728:	bd38      	pop	{r3, r4, r5, pc}
 800572a:	bf00      	nop
 800572c:	2000037c 	.word	0x2000037c

08005730 <sbrk_aligned>:
 8005730:	b570      	push	{r4, r5, r6, lr}
 8005732:	4e0f      	ldr	r6, [pc, #60]	@ (8005770 <sbrk_aligned+0x40>)
 8005734:	460c      	mov	r4, r1
 8005736:	6831      	ldr	r1, [r6, #0]
 8005738:	4605      	mov	r5, r0
 800573a:	b911      	cbnz	r1, 8005742 <sbrk_aligned+0x12>
 800573c:	f000 fba6 	bl	8005e8c <_sbrk_r>
 8005740:	6030      	str	r0, [r6, #0]
 8005742:	4621      	mov	r1, r4
 8005744:	4628      	mov	r0, r5
 8005746:	f000 fba1 	bl	8005e8c <_sbrk_r>
 800574a:	1c43      	adds	r3, r0, #1
 800574c:	d103      	bne.n	8005756 <sbrk_aligned+0x26>
 800574e:	f04f 34ff 	mov.w	r4, #4294967295
 8005752:	4620      	mov	r0, r4
 8005754:	bd70      	pop	{r4, r5, r6, pc}
 8005756:	1cc4      	adds	r4, r0, #3
 8005758:	f024 0403 	bic.w	r4, r4, #3
 800575c:	42a0      	cmp	r0, r4
 800575e:	d0f8      	beq.n	8005752 <sbrk_aligned+0x22>
 8005760:	1a21      	subs	r1, r4, r0
 8005762:	4628      	mov	r0, r5
 8005764:	f000 fb92 	bl	8005e8c <_sbrk_r>
 8005768:	3001      	adds	r0, #1
 800576a:	d1f2      	bne.n	8005752 <sbrk_aligned+0x22>
 800576c:	e7ef      	b.n	800574e <sbrk_aligned+0x1e>
 800576e:	bf00      	nop
 8005770:	20000378 	.word	0x20000378

08005774 <_malloc_r>:
 8005774:	e92d 43f8 	stmdb	sp!, {r3, r4, r5, r6, r7, r8, r9, lr}
 8005778:	1ccd      	adds	r5, r1, #3
 800577a:	f025 0503 	bic.w	r5, r5, #3
 800577e:	3508      	adds	r5, #8
 8005780:	2d0c      	cmp	r5, #12
 8005782:	bf38      	it	cc
 8005784:	250c      	movcc	r5, #12
 8005786:	2d00      	cmp	r5, #0
 8005788:	4606      	mov	r6, r0
 800578a:	db01      	blt.n	8005790 <_malloc_r+0x1c>
 800578c:	42a9      	cmp	r1, r5
 800578e:	d904      	bls.n	800579a <_malloc_r+0x26>
 8005790:	230c      	movs	r3, #12
 8005792:	6033      	str	r3, [r6, #0]
 8005794:	2000      	movs	r0, #0
 8005796:	e8bd 83f8 	ldmia.w	sp!, {r3, r4, r5, r6, r7, r8, r9, pc}
 800579a:	f8df 80d4 	ldr.w	r8, [pc, #212]	@ 8005870 <_malloc_r+0xfc>
 800579e:	f000 f869 	bl	8005874 <__malloc_lock>
 80057a2:	f8d8 3000 	ldr.w	r3, [r8]
 80057a6:	461c      	mov	r4, r3
 80057a8:	bb44      	cbnz	r4, 80057fc <_malloc_r+0x88>
 80057aa:	4629      	mov	r1, r5
 80057ac:	4630      	mov	r0, r6
 80057ae:	f7ff ffbf 	bl	8005730 <sbrk_aligned>
 80057b2:	1c43      	adds	r3, r0, #1
 80057b4:	4604      	mov	r4, r0
 80057b6:	d158      	bne.n	800586a <_malloc_r+0xf6>
 80057b8:	f8d8 4000 	ldr.w	r4, [r8]
 80057bc:	4627      	mov	r7, r4
 80057be:	2f00      	cmp	r7, #0
 80057c0:	d143      	bne.n	800584a <_malloc_r+0xd6>
 80057c2:	2c00      	cmp	r4, #0
 80057c4:	d04b      	beq.n	800585e <_malloc_r+0xea>
 80057c6:	6823      	ldr	r3, [r4, #0]
 80057c8:	4639      	mov	r1, r7
 80057ca:	4630      	mov	r0, r6
 80057cc:	eb04 0903 	add.w	r9, r4, r3
 80057d0:	f000 fb5c 	bl	8005e8c <_sbrk_r>
 80057d4:	4581      	cmp	r9, r0
 80057d6:	d142      	bne.n	800585e <_malloc_r+0xea>
 80057d8:	6821      	ldr	r1, [r4, #0]
 80057da:	1a6d      	subs	r5, r5, r1
 80057dc:	4629      	mov	r1, r5
 80057de:	4630      	mov	r0, r6
 80057e0:	f7ff ffa6 	bl	8005730 <sbrk_aligned>
 80057e4:	3001      	adds	r0, #1
 80057e6:	d03a      	beq.n	800585e <_malloc_r+0xea>
 80057e8:	6823      	ldr	r3, [r4, #0]
 80057ea:	442b      	add	r3, r5
 80057ec:	6023      	str	r3, [r4, #0]
 80057ee:	f8d8 3000 	ldr.w	r3, [r8]
 80057f2:	685a      	ldr	r2, [r3, #4]
 80057f4:	bb62      	cbnz	r2, 8005850 <_malloc_r+0xdc>
 80057f6:	f8c8 7000 	str.w	r7, [r8]
 80057fa:	e00f      	b.n	800581c <_malloc_r+0xa8>
 80057fc:	6822      	ldr	r2, [r4, #0]
 80057fe:	1b52      	subs	r2, r2, r5
 8005800:	d420      	bmi.n	8005844 <_malloc_r+0xd0>
 8005802:	2a0b      	cmp	r2, #11
 8005804:	d917      	bls.n	8005836 <_malloc_r+0xc2>
 8005806:	1961      	adds	r1, r4, r5
 8005808:	42a3      	cmp	r3, r4
 800580a:	6025      	str	r5, [r4, #0]
 800580c:	bf18      	it	ne
 800580e:	6059      	strne	r1, [r3, #4]
 8005810:	6863      	ldr	r3, [r4, #4]
 8005812:	bf08      	it	eq
 8005814:	f8c8 1000 	streq.w	r1, [r8]
 8005818:	5162      	str	r2, [r4, r5]
 800581a:	604b      	str	r3, [r1, #4]
 800581c:	4630      	mov	r0, r6
 800581e:	f000 f82f 	bl	8005880 <__malloc_unlock>
 8005822:	f104 000b 	add.w	r0, r4, #11
 8005826:	1d23      	adds	r3, r4, #4
 8005828:	f020 0007 	bic.w	r0, r0, #7
 800582c:	1ac2      	subs	r2, r0, r3
 800582e:	bf1c      	itt	ne
 8005830:	1a1b      	subne	r3, r3, r0
 8005832:	50a3      	strne	r3, [r4, r2]
 8005834:	e7af      	b.n	8005796 <_malloc_r+0x22>
 8005836:	6862      	ldr	r2, [r4, #4]
 8005838:	42a3      	cmp	r3, r4
 800583a:	bf0c      	ite	eq
 800583c:	f8c8 2000 	streq.w	r2, [r8]
 8005840:	605a      	strne	r2, [r3, #4]
 8005842:	e7eb      	b.n	800581c <_malloc_r+0xa8>
 8005844:	4623      	mov	r3, r4
 8005846:	6864      	ldr	r4, [r4, #4]
 8005848:	e7ae      	b.n	80057a8 <_malloc_r+0x34>
 800584a:	463c      	mov	r4, r7
 800584c:	687f      	ldr	r7, [r7, #4]
 800584e:	e7b6      	b.n	80057be <_malloc_r+0x4a>
 8005850:	461a      	mov	r2, r3
 8005852:	685b      	ldr	r3, [r3, #4]
 8005854:	42a3      	cmp	r3, r4
 8005856:	d1fb      	bne.n	8005850 <_malloc_r+0xdc>
 8005858:	2300      	movs	r3, #0
 800585a:	6053      	str	r3, [r2, #4]
 800585c:	e7de      	b.n	800581c <_malloc_r+0xa8>
 800585e:	230c      	movs	r3, #12
 8005860:	6033      	str	r3, [r6, #0]
 8005862:	4630      	mov	r0, r6
 8005864:	f000 f80c 	bl	8005880 <__malloc_unlock>
 8005868:	e794      	b.n	8005794 <_malloc_r+0x20>
 800586a:	6005      	str	r5, [r0, #0]
 800586c:	e7d6      	b.n	800581c <_malloc_r+0xa8>
 800586e:	bf00      	nop
 8005870:	2000037c 	.word	0x2000037c

08005874 <__malloc_lock>:
 8005874:	4801      	ldr	r0, [pc, #4]	@ (800587c <__malloc_lock+0x8>)
 8005876:	f7ff bf0f 	b.w	8005698 <__retarget_lock_acquire_recursive>
 800587a:	bf00      	nop
 800587c:	20000374 	.word	0x20000374

08005880 <__malloc_unlock>:
 8005880:	4801      	ldr	r0, [pc, #4]	@ (8005888 <__malloc_unlock+0x8>)
 8005882:	f7ff bf0a 	b.w	800569a <__retarget_lock_release_recursive>
 8005886:	bf00      	nop
 8005888:	20000374 	.word	0x20000374

0800588c <__ssputs_r>:
 800588c:	e92d 47f0 	stmdb	sp!, {r4, r5, r6, r7, r8, r9, sl, lr}
 8005890:	688e      	ldr	r6, [r1, #8]
 8005892:	461f      	mov	r7, r3
 8005894:	42be      	cmp	r6, r7
 8005896:	680b      	ldr	r3, [r1, #0]
 8005898:	4682      	mov	sl, r0
 800589a:	460c      	mov	r4, r1
 800589c:	4690      	mov	r8, r2
 800589e:	d82d      	bhi.n	80058fc <__ssputs_r+0x70>
 80058a0:	f9b1 200c 	ldrsh.w	r2, [r1, #12]
 80058a4:	f412 6f90 	tst.w	r2, #1152	@ 0x480
 80058a8:	d026      	beq.n	80058f8 <__ssputs_r+0x6c>
 80058aa:	6965      	ldr	r5, [r4, #20]
 80058ac:	6909      	ldr	r1, [r1, #16]
 80058ae:	eb05 0545 	add.w	r5, r5, r5, lsl #1
 80058b2:	eba3 0901 	sub.w	r9, r3, r1
 80058b6:	eb05 75d5 	add.w	r5, r5, r5, lsr #31
 80058ba:	1c7b      	adds	r3, r7, #1
 80058bc:	444b      	add	r3, r9
 80058be:	106d      	asrs	r5, r5, #1
 80058c0:	429d      	cmp	r5, r3
 80058c2:	bf38      	it	cc
 80058c4:	461d      	movcc	r5, r3
 80058c6:	0553      	lsls	r3, r2, #21
 80058c8:	d527      	bpl.n	800591a <__ssputs_r+0x8e>
 80058ca:	4629      	mov	r1, r5
 80058cc:	f7ff ff52 	bl	8005774 <_malloc_r>
 80058d0:	4606      	mov	r6, r0
 80058d2:	b360      	cbz	r0, 800592e <__ssputs_r+0xa2>
 80058d4:	6921      	ldr	r1, [r4, #16]
 80058d6:	464a      	mov	r2, r9
 80058d8:	f000 fae8 	bl	8005eac <memcpy>
 80058dc:	89a3      	ldrh	r3, [r4, #12]
 80058de:	f423 6390 	bic.w	r3, r3, #1152	@ 0x480
 80058e2:	f043 0380 	orr.w	r3, r3, #128	@ 0x80
 80058e6:	81a3      	strh	r3, [r4, #12]
 80058e8:	6126      	str	r6, [r4, #16]
 80058ea:	6165      	str	r5, [r4, #20]
 80058ec:	444e      	add	r6, r9
 80058ee:	eba5 0509 	sub.w	r5, r5, r9
 80058f2:	6026      	str	r6, [r4, #0]
 80058f4:	60a5      	str	r5, [r4, #8]
 80058f6:	463e      	mov	r6, r7
 80058f8:	42be      	cmp	r6, r7
 80058fa:	d900      	bls.n	80058fe <__ssputs_r+0x72>
 80058fc:	463e      	mov	r6, r7
 80058fe:	6820      	ldr	r0, [r4, #0]
 8005900:	4632      	mov	r2, r6
 8005902:	4641      	mov	r1, r8
 8005904:	f000 faa8 	bl	8005e58 <memmove>
 8005908:	68a3      	ldr	r3, [r4, #8]
 800590a:	1b9b      	subs	r3, r3, r6
 800590c:	60a3      	str	r3, [r4, #8]
 800590e:	6823      	ldr	r3, [r4, #0]
 8005910:	4433      	add	r3, r6
 8005912:	6023      	str	r3, [r4, #0]
 8005914:	2000      	movs	r0, #0
 8005916:	e8bd 87f0 	ldmia.w	sp!, {r4, r5, r6, r7, r8, r9, sl, pc}
 800591a:	462a      	mov	r2, r5
 800591c:	f000 fad4 	bl	8005ec8 <_realloc_r>
 8005920:	4606      	mov	r6, r0
 8005922:	2800      	cmp	r0, #0
 8005924:	d1e0      	bne.n	80058e8 <__ssputs_r+0x5c>
 8005926:	6921      	ldr	r1, [r4, #16]
 8005928:	4650      	mov	r0, sl
 800592a:	f7ff feb7 	bl	800569c <_free_r>
 800592e:	230c      	movs	r3, #12
 8005930:	f8ca 3000 	str.w	r3, [sl]
 8005934:	89a3      	ldrh	r3, [r4, #12]
 8005936:	f043 0340 	orr.w	r3, r3, #64	@ 0x40
 800593a:	81a3      	strh	r3, [r4, #12]
 800593c:	f04f 30ff 	mov.w	r0, #4294967295
 8005940:	e7e9      	b.n	8005916 <__ssputs_r+0x8a>
	...

08005944 <_svfiprintf_r>:
 8005944:	e92d 4ff0 	stmdb	sp!, {r4, r5, r6, r7, r8, r9, sl, fp, lr}
 8005948:	4698      	mov	r8, r3
 800594a:	898b      	ldrh	r3, [r1, #12]
 800594c:	061b      	lsls	r3, r3, #24
 800594e:	b09d      	sub	sp, #116	@ 0x74
 8005950:	4607      	mov	r7, r0
 8005952:	460d      	mov	r5, r1
 8005954:	4614      	mov	r4, r2
 8005956:	d510      	bpl.n	800597a <_svfiprintf_r+0x36>
 8005958:	690b      	ldr	r3, [r1, #16]
 800595a:	b973      	cbnz	r3, 800597a <_svfiprintf_r+0x36>
 800595c:	2140      	movs	r1, #64	@ 0x40
 800595e:	f7ff ff09 	bl	8005774 <_malloc_r>
 8005962:	6028      	str	r0, [r5, #0]
 8005964:	6128      	str	r0, [r5, #16]
 8005966:	b930      	cbnz	r0, 8005976 <_svfiprintf_r+0x32>
 8005968:	230c      	movs	r3, #12
 800596a:	603b      	str	r3, [r7, #0]
 800596c:	f04f 30ff 	mov.w	r0, #4294967295
 8005970:	b01d      	add	sp, #116	@ 0x74
 8005972:	e8bd 8ff0 	ldmia.w	sp!, {r4, r5, r6, r7, r8, r9, sl, fp, pc}
 8005976:	2340      	movs	r3, #64	@ 0x40
 8005978:	616b      	str	r3, [r5, #20]
 800597a:	2300      	movs	r3, #0
 800597c:	9309      	str	r3, [sp, #36]	@ 0x24
 800597e:	2320      	movs	r3, #32
 8005980:	f88d 3029 	strb.w	r3, [sp, #41]	@ 0x29
 8005984:	f8cd 800c 	str.w	r8, [sp, #12]
 8005988:	2330      	movs	r3, #48	@ 0x30
 800598a:	f8df 819c 	ldr.w	r8, [pc, #412]	@ 8005b28 <_svfiprintf_r+0x1e4>
 800598e:	f88d 302a 	strb.w	r3, [sp, #42]	@ 0x2a
 8005992:	f04f 0901 	mov.w	r9, #1
 8005996:	4623      	mov	r3, r4
 8005998:	469a      	mov	sl, r3
 800599a:	f813 2b01 	ldrb.w	r2, [r3], #1
 800599e:	b10a      	cbz	r2, 80059a4 <_svfiprintf_r+0x60>
 80059a0:	2a25      	cmp	r2, #37	@ 0x25
 80059a2:	d1f9      	bne.n	8005998 <_svfiprintf_r+0x54>
 80059a4:	ebba 0b04 	subs.w	fp, sl, r4
 80059a8:	d00b      	beq.n	80059c2 <_svfiprintf_r+0x7e>
 80059aa:	465b      	mov	r3, fp
 80059ac:	4622      	mov	r2, r4
 80059ae:	4629      	mov	r1, r5
 80059b0:	4638      	mov	r0, r7
 80059b2:	f7ff ff6b 	bl	800588c <__ssputs_r>
 80059b6:	3001      	adds	r0, #1
 80059b8:	f000 80a7 	beq.w	8005b0a <_svfiprintf_r+0x1c6>
 80059bc:	9a09      	ldr	r2, [sp, #36]	@ 0x24
 80059be:	445a      	add	r2, fp
 80059c0:	9209      	str	r2, [sp, #36]	@ 0x24
 80059c2:	f89a 3000 	ldrb.w	r3, [sl]
 80059c6:	2b00      	cmp	r3, #0
 80059c8:	f000 809f 	beq.w	8005b0a <_svfiprintf_r+0x1c6>
 80059cc:	2300      	movs	r3, #0
 80059ce:	f04f 32ff 	mov.w	r2, #4294967295
 80059d2:	e9cd 2305 	strd	r2, r3, [sp, #20]
 80059d6:	f10a 0a01 	add.w	sl, sl, #1
 80059da:	9304      	str	r3, [sp, #16]
 80059dc:	9307      	str	r3, [sp, #28]
 80059de:	f88d 3053 	strb.w	r3, [sp, #83]	@ 0x53
 80059e2:	931a      	str	r3, [sp, #104]	@ 0x68
 80059e4:	4654      	mov	r4, sl
 80059e6:	2205      	movs	r2, #5
 80059e8:	f814 1b01 	ldrb.w	r1, [r4], #1
 80059ec:	484e      	ldr	r0, [pc, #312]	@ (8005b28 <_svfiprintf_r+0x1e4>)
 80059ee:	f7fa fbf7 	bl	80001e0 <memchr>
 80059f2:	9a04      	ldr	r2, [sp, #16]
 80059f4:	b9d8      	cbnz	r0, 8005a2e <_svfiprintf_r+0xea>
 80059f6:	06d0      	lsls	r0, r2, #27
 80059f8:	bf44      	itt	mi
 80059fa:	2320      	movmi	r3, #32
 80059fc:	f88d 3053 	strbmi.w	r3, [sp, #83]	@ 0x53
 8005a00:	0711      	lsls	r1, r2, #28
 8005a02:	bf44      	itt	mi
 8005a04:	232b      	movmi	r3, #43	@ 0x2b
 8005a06:	f88d 3053 	strbmi.w	r3, [sp, #83]	@ 0x53
 8005a0a:	f89a 3000 	ldrb.w	r3, [sl]
 8005a0e:	2b2a      	cmp	r3, #42	@ 0x2a
 8005a10:	d015      	beq.n	8005a3e <_svfiprintf_r+0xfa>
 8005a12:	9a07      	ldr	r2, [sp, #28]
 8005a14:	4654      	mov	r4, sl
 8005a16:	2000      	movs	r0, #0
 8005a18:	f04f 0c0a 	mov.w	ip, #10
 8005a1c:	4621      	mov	r1, r4
 8005a1e:	f811 3b01 	ldrb.w	r3, [r1], #1
 8005a22:	3b30      	subs	r3, #48	@ 0x30
 8005a24:	2b09      	cmp	r3, #9
 8005a26:	d94b      	bls.n	8005ac0 <_svfiprintf_r+0x17c>
 8005a28:	b1b0      	cbz	r0, 8005a58 <_svfiprintf_r+0x114>
 8005a2a:	9207      	str	r2, [sp, #28]
 8005a2c:	e014      	b.n	8005a58 <_svfiprintf_r+0x114>
 8005a2e:	eba0 0308 	sub.w	r3, r0, r8
 8005a32:	fa09 f303 	lsl.w	r3, r9, r3
 8005a36:	4313      	orrs	r3, r2
 8005a38:	9304      	str	r3, [sp, #16]
 8005a3a:	46a2      	mov	sl, r4
 8005a3c:	e7d2      	b.n	80059e4 <_svfiprintf_r+0xa0>
 8005a3e:	9b03      	ldr	r3, [sp, #12]
 8005a40:	1d19      	adds	r1, r3, #4
 8005a42:	681b      	ldr	r3, [r3, #0]
 8005a44:	9103      	str	r1, [sp, #12]
 8005a46:	2b00      	cmp	r3, #0
 8005a48:	bfbb      	ittet	lt
 8005a4a:	425b      	neglt	r3, r3
 8005a4c:	f042 0202 	orrlt.w	r2, r2, #2
 8005a50:	9307      	strge	r3, [sp, #28]
 8005a52:	9307      	strlt	r3, [sp, #28]
 8005a54:	bfb8      	it	lt
 8005a56:	9204      	strlt	r2, [sp, #16]
 8005a58:	7823      	ldrb	r3, [r4, #0]
 8005a5a:	2b2e      	cmp	r3, #46	@ 0x2e
 8005a5c:	d10a      	bne.n	8005a74 <_svfiprintf_r+0x130>
 8005a5e:	7863      	ldrb	r3, [r4, #1]
 8005a60:	2b2a      	cmp	r3, #42	@ 0x2a
 8005a62:	d132      	bne.n	8005aca <_svfiprintf_r+0x186>
 8005a64:	9b03      	ldr	r3, [sp, #12]
 8005a66:	1d1a      	adds	r2, r3, #4
 8005a68:	681b      	ldr	r3, [r3, #0]
 8005a6a:	9203      	str	r2, [sp, #12]
 8005a6c:	ea43 73e3 	orr.w	r3, r3, r3, asr #31
 8005a70:	3402      	adds	r4, #2
 8005a72:	9305      	str	r3, [sp, #20]
 8005a74:	f8df a0c0 	ldr.w	sl, [pc, #192]	@ 8005b38 <_svfiprintf_r+0x1f4>
 8005a78:	7821      	ldrb	r1, [r4, #0]
 8005a7a:	2203      	movs	r2, #3
 8005a7c:	4650      	mov	r0, sl
 8005a7e:	f7fa fbaf 	bl	80001e0 <memchr>
 8005a82:	b138      	cbz	r0, 8005a94 <_svfiprintf_r+0x150>
 8005a84:	9b04      	ldr	r3, [sp, #16]
 8005a86:	eba0 000a 	sub.w	r0, r0, sl
 8005a8a:	2240      	movs	r2, #64	@ 0x40
 8005a8c:	4082      	lsls	r2, r0
 8005a8e:	4313      	orrs	r3, r2
 8005a90:	3401      	adds	r4, #1
 8005a92:	9304      	str	r3, [sp, #16]
 8005a94:	f814 1b01 	ldrb.w	r1, [r4], #1
 8005a98:	4824      	ldr	r0, [pc, #144]	@ (8005b2c <_svfiprintf_r+0x1e8>)
 8005a9a:	f88d 1028 	strb.w	r1, [sp, #40]	@ 0x28
 8005a9e:	2206      	movs	r2, #6
 8005aa0:	f7fa fb9e 	bl	80001e0 <memchr>
 8005aa4:	2800      	cmp	r0, #0
 8005aa6:	d036      	beq.n	8005b16 <_svfiprintf_r+0x1d2>
 8005aa8:	4b21      	ldr	r3, [pc, #132]	@ (8005b30 <_svfiprintf_r+0x1ec>)
 8005aaa:	bb1b      	cbnz	r3, 8005af4 <_svfiprintf_r+0x1b0>
 8005aac:	9b03      	ldr	r3, [sp, #12]
 8005aae:	3307      	adds	r3, #7
 8005ab0:	f023 0307 	bic.w	r3, r3, #7
 8005ab4:	3308      	adds	r3, #8
 8005ab6:	9303      	str	r3, [sp, #12]
 8005ab8:	9b09      	ldr	r3, [sp, #36]	@ 0x24
 8005aba:	4433      	add	r3, r6
 8005abc:	9309      	str	r3, [sp, #36]	@ 0x24
 8005abe:	e76a      	b.n	8005996 <_svfiprintf_r+0x52>
 8005ac0:	fb0c 3202 	mla	r2, ip, r2, r3
 8005ac4:	460c      	mov	r4, r1
 8005ac6:	2001      	movs	r0, #1
 8005ac8:	e7a8      	b.n	8005a1c <_svfiprintf_r+0xd8>
 8005aca:	2300      	movs	r3, #0
 8005acc:	3401      	adds	r4, #1
 8005ace:	9305      	str	r3, [sp, #20]
 8005ad0:	4619      	mov	r1, r3
 8005ad2:	f04f 0c0a 	mov.w	ip, #10
 8005ad6:	4620      	mov	r0, r4
 8005ad8:	f810 2b01 	ldrb.w	r2, [r0], #1
 8005adc:	3a30      	subs	r2, #48	@ 0x30
 8005ade:	2a09      	cmp	r2, #9
 8005ae0:	d903      	bls.n	8005aea <_svfiprintf_r+0x1a6>
 8005ae2:	2b00      	cmp	r3, #0
 8005ae4:	d0c6      	beq.n	8005a74 <_svfiprintf_r+0x130>
 8005ae6:	9105      	str	r1, [sp, #20]
 8005ae8:	e7c4      	b.n	8005a74 <_svfiprintf_r+0x130>
 8005aea:	fb0c 2101 	mla	r1, ip, r1, r2
 8005aee:	4604      	mov	r4, r0
 8005af0:	2301      	movs	r3, #1
 8005af2:	e7f0      	b.n	8005ad6 <_svfiprintf_r+0x192>
 8005af4:	ab03      	add	r3, sp, #12
 8005af6:	9300      	str	r3, [sp, #0]
 8005af8:	462a      	mov	r2, r5
 8005afa:	4b0e      	ldr	r3, [pc, #56]	@ (8005b34 <_svfiprintf_r+0x1f0>)
 8005afc:	a904      	add	r1, sp, #16
 8005afe:	4638      	mov	r0, r7
 8005b00:	f3af 8000 	nop.w
 8005b04:	1c42      	adds	r2, r0, #1
 8005b06:	4606      	mov	r6, r0
 8005b08:	d1d6      	bne.n	8005ab8 <_svfiprintf_r+0x174>
 8005b0a:	89ab      	ldrh	r3, [r5, #12]
 8005b0c:	065b      	lsls	r3, r3, #25
 8005b0e:	f53f af2d 	bmi.w	800596c <_svfiprintf_r+0x28>
 8005b12:	9809      	ldr	r0, [sp, #36]	@ 0x24
 8005b14:	e72c      	b.n	8005970 <_svfiprintf_r+0x2c>
 8005b16:	ab03      	add	r3, sp, #12
 8005b18:	9300      	str	r3, [sp, #0]
 8005b1a:	462a      	mov	r2, r5
 8005b1c:	4b05      	ldr	r3, [pc, #20]	@ (8005b34 <_svfiprintf_r+0x1f0>)
 8005b1e:	a904      	add	r1, sp, #16
 8005b20:	4638      	mov	r0, r7
 8005b22:	f000 f879 	bl	8005c18 <_printf_i>
 8005b26:	e7ed      	b.n	8005b04 <_svfiprintf_r+0x1c0>
 8005b28:	08005f90 	.word	0x08005f90
 8005b2c:	08005f9a 	.word	0x08005f9a
 8005b30:	00000000 	.word	0x00000000
 8005b34:	0800588d 	.word	0x0800588d
 8005b38:	08005f96 	.word	0x08005f96

08005b3c <_printf_common>:
 8005b3c:	e92d 47f0 	stmdb	sp!, {r4, r5, r6, r7, r8, r9, sl, lr}
 8005b40:	4616      	mov	r6, r2
 8005b42:	4698      	mov	r8, r3
 8005b44:	688a      	ldr	r2, [r1, #8]
 8005b46:	690b      	ldr	r3, [r1, #16]
 8005b48:	f8dd 9020 	ldr.w	r9, [sp, #32]
 8005b4c:	4293      	cmp	r3, r2
 8005b4e:	bfb8      	it	lt
 8005b50:	4613      	movlt	r3, r2
 8005b52:	6033      	str	r3, [r6, #0]
 8005b54:	f891 2043 	ldrb.w	r2, [r1, #67]	@ 0x43
 8005b58:	4607      	mov	r7, r0
 8005b5a:	460c      	mov	r4, r1
 8005b5c:	b10a      	cbz	r2, 8005b62 <_printf_common+0x26>
 8005b5e:	3301      	adds	r3, #1
 8005b60:	6033      	str	r3, [r6, #0]
 8005b62:	6823      	ldr	r3, [r4, #0]
 8005b64:	0699      	lsls	r1, r3, #26
 8005b66:	bf42      	ittt	mi
 8005b68:	6833      	ldrmi	r3, [r6, #0]
 8005b6a:	3302      	addmi	r3, #2
 8005b6c:	6033      	strmi	r3, [r6, #0]
 8005b6e:	6825      	ldr	r5, [r4, #0]
 8005b70:	f015 0506 	ands.w	r5, r5, #6
 8005b74:	d106      	bne.n	8005b84 <_printf_common+0x48>
 8005b76:	f104 0a19 	add.w	sl, r4, #25
 8005b7a:	68e3      	ldr	r3, [r4, #12]
 8005b7c:	6832      	ldr	r2, [r6, #0]
 8005b7e:	1a9b      	subs	r3, r3, r2
 8005b80:	42ab      	cmp	r3, r5
 8005b82:	dc26      	bgt.n	8005bd2 <_printf_common+0x96>
 8005b84:	f894 3043 	ldrb.w	r3, [r4, #67]	@ 0x43
 8005b88:	6822      	ldr	r2, [r4, #0]
 8005b8a:	3b00      	subs	r3, #0
 8005b8c:	bf18      	it	ne
 8005b8e:	2301      	movne	r3, #1
 8005b90:	0692      	lsls	r2, r2, #26
 8005b92:	d42b      	bmi.n	8005bec <_printf_common+0xb0>
 8005b94:	f104 0243 	add.w	r2, r4, #67	@ 0x43
 8005b98:	4641      	mov	r1, r8
 8005b9a:	4638      	mov	r0, r7
 8005b9c:	47c8      	blx	r9
 8005b9e:	3001      	adds	r0, #1
 8005ba0:	d01e      	beq.n	8005be0 <_printf_common+0xa4>
 8005ba2:	6823      	ldr	r3, [r4, #0]
 8005ba4:	6922      	ldr	r2, [r4, #16]
 8005ba6:	f003 0306 	and.w	r3, r3, #6
 8005baa:	2b04      	cmp	r3, #4
 8005bac:	bf02      	ittt	eq
 8005bae:	68e5      	ldreq	r5, [r4, #12]
 8005bb0:	6833      	ldreq	r3, [r6, #0]
 8005bb2:	1aed      	subeq	r5, r5, r3
 8005bb4:	68a3      	ldr	r3, [r4, #8]
 8005bb6:	bf0c      	ite	eq
 8005bb8:	ea25 75e5 	biceq.w	r5, r5, r5, asr #31
 8005bbc:	2500      	movne	r5, #0
 8005bbe:	4293      	cmp	r3, r2
 8005bc0:	bfc4      	itt	gt
 8005bc2:	1a9b      	subgt	r3, r3, r2
 8005bc4:	18ed      	addgt	r5, r5, r3
 8005bc6:	2600      	movs	r6, #0
 8005bc8:	341a      	adds	r4, #26
 8005bca:	42b5      	cmp	r5, r6
 8005bcc:	d11a      	bne.n	8005c04 <_printf_common+0xc8>
 8005bce:	2000      	movs	r0, #0
 8005bd0:	e008      	b.n	8005be4 <_printf_common+0xa8>
 8005bd2:	2301      	movs	r3, #1
 8005bd4:	4652      	mov	r2, sl
 8005bd6:	4641      	mov	r1, r8
 8005bd8:	4638      	mov	r0, r7
 8005bda:	47c8      	blx	r9
 8005bdc:	3001      	adds	r0, #1
 8005bde:	d103      	bne.n	8005be8 <_printf_common+0xac>
 8005be0:	f04f 30ff 	mov.w	r0, #4294967295
 8005be4:	e8bd 87f0 	ldmia.w	sp!, {r4, r5, r6, r7, r8, r9, sl, pc}
 8005be8:	3501      	adds	r5, #1
 8005bea:	e7c6      	b.n	8005b7a <_printf_common+0x3e>
 8005bec:	18e1      	adds	r1, r4, r3
 8005bee:	1c5a      	adds	r2, r3, #1
 8005bf0:	2030      	movs	r0, #48	@ 0x30
 8005bf2:	f881 0043 	strb.w	r0, [r1, #67]	@ 0x43
 8005bf6:	4422      	add	r2, r4
 8005bf8:	f894 1045 	ldrb.w	r1, [r4, #69]	@ 0x45
 8005bfc:	f882 1043 	strb.w	r1, [r2, #67]	@ 0x43
 8005c00:	3302      	adds	r3, #2
 8005c02:	e7c7      	b.n	8005b94 <_printf_common+0x58>
 8005c04:	2301      	movs	r3, #1
 8005c06:	4622      	mov	r2, r4
 8005c08:	4641      	mov	r1, r8
 8005c0a:	4638      	mov	r0, r7
 8005c0c:	47c8      	blx	r9
 8005c0e:	3001      	adds	r0, #1
 8005c10:	d0e6      	beq.n	8005be0 <_printf_common+0xa4>
 8005c12:	3601      	adds	r6, #1
 8005c14:	e7d9      	b.n	8005bca <_printf_common+0x8e>
	...

08005c18 <_printf_i>:
 8005c18:	e92d 47ff 	stmdb	sp!, {r0, r1, r2, r3, r4, r5, r6, r7, r8, r9, sl, lr}
 8005c1c:	7e0f      	ldrb	r7, [r1, #24]
 8005c1e:	9e0c      	ldr	r6, [sp, #48]	@ 0x30
 8005c20:	2f78      	cmp	r7, #120	@ 0x78
 8005c22:	4691      	mov	r9, r2
 8005c24:	4680      	mov	r8, r0
 8005c26:	460c      	mov	r4, r1
 8005c28:	469a      	mov	sl, r3
 8005c2a:	f101 0243 	add.w	r2, r1, #67	@ 0x43
 8005c2e:	d807      	bhi.n	8005c40 <_printf_i+0x28>
 8005c30:	2f62      	cmp	r7, #98	@ 0x62
 8005c32:	d80a      	bhi.n	8005c4a <_printf_i+0x32>
 8005c34:	2f00      	cmp	r7, #0
 8005c36:	f000 80d2 	beq.w	8005dde <_printf_i+0x1c6>
 8005c3a:	2f58      	cmp	r7, #88	@ 0x58
 8005c3c:	f000 80b9 	beq.w	8005db2 <_printf_i+0x19a>
 8005c40:	f104 0642 	add.w	r6, r4, #66	@ 0x42
 8005c44:	f884 7042 	strb.w	r7, [r4, #66]	@ 0x42
 8005c48:	e03a      	b.n	8005cc0 <_printf_i+0xa8>
 8005c4a:	f1a7 0363 	sub.w	r3, r7, #99	@ 0x63
 8005c4e:	2b15      	cmp	r3, #21
 8005c50:	d8f6      	bhi.n	8005c40 <_printf_i+0x28>
 8005c52:	a101      	add	r1, pc, #4	@ (adr r1, 8005c58 <_printf_i+0x40>)
 8005c54:	f851 f023 	ldr.w	pc, [r1, r3, lsl #2]
 8005c58:	08005cb1 	.word	0x08005cb1
 8005c5c:	08005cc5 	.word	0x08005cc5
 8005c60:	08005c41 	.word	0x08005c41
 8005c64:	08005c41 	.word	0x08005c41
 8005c68:	08005c41 	.word	0x08005c41
 8005c6c:	08005c41 	.word	0x08005c41
 8005c70:	08005cc5 	.word	0x08005cc5
 8005c74:	08005c41 	.word	0x08005c41
 8005c78:	08005c41 	.word	0x08005c41
 8005c7c:	08005c41 	.word	0x08005c41
 8005c80:	08005c41 	.word	0x08005c41
 8005c84:	08005dc5 	.word	0x08005dc5
 8005c88:	08005cef 	.word	0x08005cef
 8005c8c:	08005d7f 	.word	0x08005d7f
 8005c90:	08005c41 	.word	0x08005c41
 8005c94:	08005c41 	.word	0x08005c41
 8005c98:	08005de7 	.word	0x08005de7
 8005c9c:	08005c41 	.word	0x08005c41
 8005ca0:	08005cef 	.word	0x08005cef
 8005ca4:	08005c41 	.word	0x08005c41
 8005ca8:	08005c41 	.word	0x08005c41
 8005cac:	08005d87 	.word	0x08005d87
 8005cb0:	6833      	ldr	r3, [r6, #0]
 8005cb2:	1d1a      	adds	r2, r3, #4
 8005cb4:	681b      	ldr	r3, [r3, #0]
 8005cb6:	6032      	str	r2, [r6, #0]
 8005cb8:	f104 0642 	add.w	r6, r4, #66	@ 0x42
 8005cbc:	f884 3042 	strb.w	r3, [r4, #66]	@ 0x42
 8005cc0:	2301      	movs	r3, #1
 8005cc2:	e09d      	b.n	8005e00 <_printf_i+0x1e8>
 8005cc4:	6833      	ldr	r3, [r6, #0]
 8005cc6:	6820      	ldr	r0, [r4, #0]
 8005cc8:	1d19      	adds	r1, r3, #4
 8005cca:	6031      	str	r1, [r6, #0]
 8005ccc:	0606      	lsls	r6, r0, #24
 8005cce:	d501      	bpl.n	8005cd4 <_printf_i+0xbc>
 8005cd0:	681d      	ldr	r5, [r3, #0]
 8005cd2:	e003      	b.n	8005cdc <_printf_i+0xc4>
 8005cd4:	0645      	lsls	r5, r0, #25
 8005cd6:	d5fb      	bpl.n	8005cd0 <_printf_i+0xb8>
 8005cd8:	f9b3 5000 	ldrsh.w	r5, [r3]
 8005cdc:	2d00      	cmp	r5, #0
 8005cde:	da03      	bge.n	8005ce8 <_printf_i+0xd0>
 8005ce0:	232d      	movs	r3, #45	@ 0x2d
 8005ce2:	426d      	negs	r5, r5
 8005ce4:	f884 3043 	strb.w	r3, [r4, #67]	@ 0x43
 8005ce8:	4859      	ldr	r0, [pc, #356]	@ (8005e50 <_printf_i+0x238>)
 8005cea:	230a      	movs	r3, #10
 8005cec:	e011      	b.n	8005d12 <_printf_i+0xfa>
 8005cee:	6821      	ldr	r1, [r4, #0]
 8005cf0:	6833      	ldr	r3, [r6, #0]
 8005cf2:	0608      	lsls	r0, r1, #24
 8005cf4:	f853 5b04 	ldr.w	r5, [r3], #4
 8005cf8:	d402      	bmi.n	8005d00 <_printf_i+0xe8>
 8005cfa:	0649      	lsls	r1, r1, #25
 8005cfc:	bf48      	it	mi
 8005cfe:	b2ad      	uxthmi	r5, r5
 8005d00:	2f6f      	cmp	r7, #111	@ 0x6f
 8005d02:	4853      	ldr	r0, [pc, #332]	@ (8005e50 <_printf_i+0x238>)
 8005d04:	6033      	str	r3, [r6, #0]
 8005d06:	bf14      	ite	ne
 8005d08:	230a      	movne	r3, #10
 8005d0a:	2308      	moveq	r3, #8
 8005d0c:	2100      	movs	r1, #0
 8005d0e:	f884 1043 	strb.w	r1, [r4, #67]	@ 0x43
 8005d12:	6866      	ldr	r6, [r4, #4]
 8005d14:	60a6      	str	r6, [r4, #8]
 8005d16:	2e00      	cmp	r6, #0
 8005d18:	bfa2      	ittt	ge
 8005d1a:	6821      	ldrge	r1, [r4, #0]
 8005d1c:	f021 0104 	bicge.w	r1, r1, #4
 8005d20:	6021      	strge	r1, [r4, #0]
 8005d22:	b90d      	cbnz	r5, 8005d28 <_printf_i+0x110>
 8005d24:	2e00      	cmp	r6, #0
 8005d26:	d04b      	beq.n	8005dc0 <_printf_i+0x1a8>
 8005d28:	4616      	mov	r6, r2
 8005d2a:	fbb5 f1f3 	udiv	r1, r5, r3
 8005d2e:	fb03 5711 	mls	r7, r3, r1, r5
 8005d32:	5dc7      	ldrb	r7, [r0, r7]
 8005d34:	f806 7d01 	strb.w	r7, [r6, #-1]!
 8005d38:	462f      	mov	r7, r5
 8005d3a:	42bb      	cmp	r3, r7
 8005d3c:	460d      	mov	r5, r1
 8005d3e:	d9f4      	bls.n	8005d2a <_printf_i+0x112>
 8005d40:	2b08      	cmp	r3, #8
 8005d42:	d10b      	bne.n	8005d5c <_printf_i+0x144>
 8005d44:	6823      	ldr	r3, [r4, #0]
 8005d46:	07df      	lsls	r7, r3, #31
 8005d48:	d508      	bpl.n	8005d5c <_printf_i+0x144>
 8005d4a:	6923      	ldr	r3, [r4, #16]
 8005d4c:	6861      	ldr	r1, [r4, #4]
 8005d4e:	4299      	cmp	r1, r3
 8005d50:	bfde      	ittt	le
 8005d52:	2330      	movle	r3, #48	@ 0x30
 8005d54:	f806 3c01 	strble.w	r3, [r6, #-1]
 8005d58:	f106 36ff 	addle.w	r6, r6, #4294967295
 8005d5c:	1b92      	subs	r2, r2, r6
 8005d5e:	6122      	str	r2, [r4, #16]
 8005d60:	f8cd a000 	str.w	sl, [sp]
 8005d64:	464b      	mov	r3, r9
 8005d66:	aa03      	add	r2, sp, #12
 8005d68:	4621      	mov	r1, r4
 8005d6a:	4640      	mov	r0, r8
 8005d6c:	f7ff fee6 	bl	8005b3c <_printf_common>
 8005d70:	3001      	adds	r0, #1
 8005d72:	d14a      	bne.n	8005e0a <_printf_i+0x1f2>
 8005d74:	f04f 30ff 	mov.w	r0, #4294967295
 8005d78:	b004      	add	sp, #16
 8005d7a:	e8bd 87f0 	ldmia.w	sp!, {r4, r5, r6, r7, r8, r9, sl, pc}
 8005d7e:	6823      	ldr	r3, [r4, #0]
 8005d80:	f043 0320 	orr.w	r3, r3, #32
 8005d84:	6023      	str	r3, [r4, #0]
 8005d86:	4833      	ldr	r0, [pc, #204]	@ (8005e54 <_printf_i+0x23c>)
 8005d88:	2778      	movs	r7, #120	@ 0x78
 8005d8a:	f884 7045 	strb.w	r7, [r4, #69]	@ 0x45
 8005d8e:	6823      	ldr	r3, [r4, #0]
 8005d90:	6831      	ldr	r1, [r6, #0]
 8005d92:	061f      	lsls	r7, r3, #24
 8005d94:	f851 5b04 	ldr.w	r5, [r1], #4
 8005d98:	d402      	bmi.n	8005da0 <_printf_i+0x188>
 8005d9a:	065f      	lsls	r7, r3, #25
 8005d9c:	bf48      	it	mi
 8005d9e:	b2ad      	uxthmi	r5, r5
 8005da0:	6031      	str	r1, [r6, #0]
 8005da2:	07d9      	lsls	r1, r3, #31
 8005da4:	bf44      	itt	mi
 8005da6:	f043 0320 	orrmi.w	r3, r3, #32
 8005daa:	6023      	strmi	r3, [r4, #0]
 8005dac:	b11d      	cbz	r5, 8005db6 <_printf_i+0x19e>
 8005dae:	2310      	movs	r3, #16
 8005db0:	e7ac      	b.n	8005d0c <_printf_i+0xf4>
 8005db2:	4827      	ldr	r0, [pc, #156]	@ (8005e50 <_printf_i+0x238>)
 8005db4:	e7e9      	b.n	8005d8a <_printf_i+0x172>
 8005db6:	6823      	ldr	r3, [r4, #0]
 8005db8:	f023 0320 	bic.w	r3, r3, #32
 8005dbc:	6023      	str	r3, [r4, #0]
 8005dbe:	e7f6      	b.n	8005dae <_printf_i+0x196>
 8005dc0:	4616      	mov	r6, r2
 8005dc2:	e7bd      	b.n	8005d40 <_printf_i+0x128>
 8005dc4:	6833      	ldr	r3, [r6, #0]
 8005dc6:	6825      	ldr	r5, [r4, #0]
 8005dc8:	6961      	ldr	r1, [r4, #20]
 8005dca:	1d18      	adds	r0, r3, #4
 8005dcc:	6030      	str	r0, [r6, #0]
 8005dce:	062e      	lsls	r6, r5, #24
 8005dd0:	681b      	ldr	r3, [r3, #0]
 8005dd2:	d501      	bpl.n	8005dd8 <_printf_i+0x1c0>
 8005dd4:	6019      	str	r1, [r3, #0]
 8005dd6:	e002      	b.n	8005dde <_printf_i+0x1c6>
 8005dd8:	0668      	lsls	r0, r5, #25
 8005dda:	d5fb      	bpl.n	8005dd4 <_printf_i+0x1bc>
 8005ddc:	8019      	strh	r1, [r3, #0]
 8005dde:	2300      	movs	r3, #0
 8005de0:	6123      	str	r3, [r4, #16]
 8005de2:	4616      	mov	r6, r2
 8005de4:	e7bc      	b.n	8005d60 <_printf_i+0x148>
 8005de6:	6833      	ldr	r3, [r6, #0]
 8005de8:	1d1a      	adds	r2, r3, #4
 8005dea:	6032      	str	r2, [r6, #0]
 8005dec:	681e      	ldr	r6, [r3, #0]
 8005dee:	6862      	ldr	r2, [r4, #4]
 8005df0:	2100      	movs	r1, #0
 8005df2:	4630      	mov	r0, r6
 8005df4:	f7fa f9f4 	bl	80001e0 <memchr>
 8005df8:	b108      	cbz	r0, 8005dfe <_printf_i+0x1e6>
 8005dfa:	1b80      	subs	r0, r0, r6
 8005dfc:	6060      	str	r0, [r4, #4]
 8005dfe:	6863      	ldr	r3, [r4, #4]
 8005e00:	6123      	str	r3, [r4, #16]
 8005e02:	2300      	movs	r3, #0
 8005e04:	f884 3043 	strb.w	r3, [r4, #67]	@ 0x43
 8005e08:	e7aa      	b.n	8005d60 <_printf_i+0x148>
 8005e0a:	6923      	ldr	r3, [r4, #16]
 8005e0c:	4632      	mov	r2, r6
 8005e0e:	4649      	mov	r1, r9
 8005e10:	4640      	mov	r0, r8
 8005e12:	47d0      	blx	sl
 8005e14:	3001      	adds	r0, #1
 8005e16:	d0ad      	beq.n	8005d74 <_printf_i+0x15c>
 8005e18:	6823      	ldr	r3, [r4, #0]
 8005e1a:	079b      	lsls	r3, r3, #30
 8005e1c:	d413      	bmi.n	8005e46 <_printf_i+0x22e>
 8005e1e:	68e0      	ldr	r0, [r4, #12]
 8005e20:	9b03      	ldr	r3, [sp, #12]
 8005e22:	4298      	cmp	r0, r3
 8005e24:	bfb8      	it	lt
 8005e26:	4618      	movlt	r0, r3
 8005e28:	e7a6      	b.n	8005d78 <_printf_i+0x160>
 8005e2a:	2301      	movs	r3, #1
 8005e2c:	4632      	mov	r2, r6
 8005e2e:	4649      	mov	r1, r9
 8005e30:	4640      	mov	r0, r8
 8005e32:	47d0      	blx	sl
 8005e34:	3001      	adds	r0, #1
 8005e36:	d09d      	beq.n	8005d74 <_printf_i+0x15c>
 8005e38:	3501      	adds	r5, #1
 8005e3a:	68e3      	ldr	r3, [r4, #12]
 8005e3c:	9903      	ldr	r1, [sp, #12]
 8005e3e:	1a5b      	subs	r3, r3, r1
 8005e40:	42ab      	cmp	r3, r5
 8005e42:	dcf2      	bgt.n	8005e2a <_printf_i+0x212>
 8005e44:	e7eb      	b.n	8005e1e <_printf_i+0x206>
 8005e46:	2500      	movs	r5, #0
 8005e48:	f104 0619 	add.w	r6, r4, #25
 8005e4c:	e7f5      	b.n	8005e3a <_printf_i+0x222>
 8005e4e:	bf00      	nop
 8005e50:	08005fa1 	.word	0x08005fa1
 8005e54:	08005fb2 	.word	0x08005fb2

08005e58 <memmove>:
 8005e58:	4288      	cmp	r0, r1
 8005e5a:	b510      	push	{r4, lr}
 8005e5c:	eb01 0402 	add.w	r4, r1, r2
 8005e60:	d902      	bls.n	8005e68 <memmove+0x10>
 8005e62:	4284      	cmp	r4, r0
 8005e64:	4623      	mov	r3, r4
 8005e66:	d807      	bhi.n	8005e78 <memmove+0x20>
 8005e68:	1e43      	subs	r3, r0, #1
 8005e6a:	42a1      	cmp	r1, r4
 8005e6c:	d008      	beq.n	8005e80 <memmove+0x28>
 8005e6e:	f811 2b01 	ldrb.w	r2, [r1], #1
 8005e72:	f803 2f01 	strb.w	r2, [r3, #1]!
 8005e76:	e7f8      	b.n	8005e6a <memmove+0x12>
 8005e78:	4402      	add	r2, r0
 8005e7a:	4601      	mov	r1, r0
 8005e7c:	428a      	cmp	r2, r1
 8005e7e:	d100      	bne.n	8005e82 <memmove+0x2a>
 8005e80:	bd10      	pop	{r4, pc}
 8005e82:	f813 4d01 	ldrb.w	r4, [r3, #-1]!
 8005e86:	f802 4d01 	strb.w	r4, [r2, #-1]!
 8005e8a:	e7f7      	b.n	8005e7c <memmove+0x24>

08005e8c <_sbrk_r>:
 8005e8c:	b538      	push	{r3, r4, r5, lr}
 8005e8e:	4d06      	ldr	r5, [pc, #24]	@ (8005ea8 <_sbrk_r+0x1c>)
 8005e90:	2300      	movs	r3, #0
 8005e92:	4604      	mov	r4, r0
 8005e94:	4608      	mov	r0, r1
 8005e96:	602b      	str	r3, [r5, #0]
 8005e98:	f7fb fc92 	bl	80017c0 <_sbrk>
 8005e9c:	1c43      	adds	r3, r0, #1
 8005e9e:	d102      	bne.n	8005ea6 <_sbrk_r+0x1a>
 8005ea0:	682b      	ldr	r3, [r5, #0]
 8005ea2:	b103      	cbz	r3, 8005ea6 <_sbrk_r+0x1a>
 8005ea4:	6023      	str	r3, [r4, #0]
 8005ea6:	bd38      	pop	{r3, r4, r5, pc}
 8005ea8:	20000370 	.word	0x20000370

08005eac <memcpy>:
 8005eac:	440a      	add	r2, r1
 8005eae:	4291      	cmp	r1, r2
 8005eb0:	f100 33ff 	add.w	r3, r0, #4294967295
 8005eb4:	d100      	bne.n	8005eb8 <memcpy+0xc>
 8005eb6:	4770      	bx	lr
 8005eb8:	b510      	push	{r4, lr}
 8005eba:	f811 4b01 	ldrb.w	r4, [r1], #1
 8005ebe:	f803 4f01 	strb.w	r4, [r3, #1]!
 8005ec2:	4291      	cmp	r1, r2
 8005ec4:	d1f9      	bne.n	8005eba <memcpy+0xe>
 8005ec6:	bd10      	pop	{r4, pc}

08005ec8 <_realloc_r>:
 8005ec8:	e92d 41f0 	stmdb	sp!, {r4, r5, r6, r7, r8, lr}
 8005ecc:	4680      	mov	r8, r0
 8005ece:	4615      	mov	r5, r2
 8005ed0:	460c      	mov	r4, r1
 8005ed2:	b921      	cbnz	r1, 8005ede <_realloc_r+0x16>
 8005ed4:	e8bd 41f0 	ldmia.w	sp!, {r4, r5, r6, r7, r8, lr}
 8005ed8:	4611      	mov	r1, r2
 8005eda:	f7ff bc4b 	b.w	8005774 <_malloc_r>
 8005ede:	b92a      	cbnz	r2, 8005eec <_realloc_r+0x24>
 8005ee0:	f7ff fbdc 	bl	800569c <_free_r>
 8005ee4:	2400      	movs	r4, #0
 8005ee6:	4620      	mov	r0, r4
 8005ee8:	e8bd 81f0 	ldmia.w	sp!, {r4, r5, r6, r7, r8, pc}
 8005eec:	f000 f81a 	bl	8005f24 <_malloc_usable_size_r>
 8005ef0:	4285      	cmp	r5, r0
 8005ef2:	4606      	mov	r6, r0
 8005ef4:	d802      	bhi.n	8005efc <_realloc_r+0x34>
 8005ef6:	ebb5 0f50 	cmp.w	r5, r0, lsr #1
 8005efa:	d8f4      	bhi.n	8005ee6 <_realloc_r+0x1e>
 8005efc:	4629      	mov	r1, r5
 8005efe:	4640      	mov	r0, r8
 8005f00:	f7ff fc38 	bl	8005774 <_malloc_r>
 8005f04:	4607      	mov	r7, r0
 8005f06:	2800      	cmp	r0, #0
 8005f08:	d0ec      	beq.n	8005ee4 <_realloc_r+0x1c>
 8005f0a:	42b5      	cmp	r5, r6
 8005f0c:	462a      	mov	r2, r5
 8005f0e:	4621      	mov	r1, r4
 8005f10:	bf28      	it	cs
 8005f12:	4632      	movcs	r2, r6
 8005f14:	f7ff ffca 	bl	8005eac <memcpy>
 8005f18:	4621      	mov	r1, r4
 8005f1a:	4640      	mov	r0, r8
 8005f1c:	f7ff fbbe 	bl	800569c <_free_r>
 8005f20:	463c      	mov	r4, r7
 8005f22:	e7e0      	b.n	8005ee6 <_realloc_r+0x1e>

08005f24 <_malloc_usable_size_r>:
 8005f24:	f851 3c04 	ldr.w	r3, [r1, #-4]
 8005f28:	1f18      	subs	r0, r3, #4
 8005f2a:	2b00      	cmp	r3, #0
 8005f2c:	bfbc      	itt	lt
 8005f2e:	580b      	ldrlt	r3, [r1, r0]
 8005f30:	18c0      	addlt	r0, r0, r3
 8005f32:	4770      	bx	lr

08005f34 <_init>:
 8005f34:	b5f8      	push	{r3, r4, r5, r6, r7, lr}
 8005f36:	bf00      	nop
 8005f38:	bcf8      	pop	{r3, r4, r5, r6, r7}
 8005f3a:	bc08      	pop	{r3}
 8005f3c:	469e      	mov	lr, r3
 8005f3e:	4770      	bx	lr

08005f40 <_fini>:
 8005f40:	b5f8      	push	{r3, r4, r5, r6, r7, lr}
 8005f42:	bf00      	nop
 8005f44:	bcf8      	pop	{r3, r4, r5, r6, r7}
 8005f46:	bc08      	pop	{r3}
 8005f48:	469e      	mov	lr, r3
 8005f4a:	4770      	bx	lr
