
flying_arm_test.elf:     file format elf32-littlearm

Sections:
Idx Name          Size      VMA       LMA       File off  Algn
  0 .isr_vector   00000188  08000000  08000000  00001000  2**0
                  CONTENTS, ALLOC, LOAD, READONLY, DATA
  1 .text         00005d4c  08000190  08000190  00001190  2**4
                  CONTENTS, ALLOC, LOAD, READONLY, CODE
  2 .rodata       00000078  08005edc  08005edc  00006edc  2**2
                  CONTENTS, ALLOC, LOAD, READONLY, DATA
  3 .ARM.extab    00000000  08005f54  08005f54  00007074  2**0
                  CONTENTS
  4 .ARM          00000008  08005f54  08005f54  00006f54  2**2
                  CONTENTS, ALLOC, LOAD, READONLY, DATA
  5 .preinit_array 00000000  08005f5c  08005f5c  00007074  2**0
                  CONTENTS, ALLOC, LOAD, DATA
  6 .init_array   00000004  08005f5c  08005f5c  00006f5c  2**2
                  CONTENTS, ALLOC, LOAD, READONLY, DATA
  7 .fini_array   00000004  08005f60  08005f60  00006f60  2**2
                  CONTENTS, ALLOC, LOAD, READONLY, DATA
  8 .data         00000074  20000000  08005f64  00007000  2**2
                  CONTENTS, ALLOC, LOAD, DATA
  9 .ccmram       00000000  10000000  10000000  00007074  2**0
                  CONTENTS
 10 .bss          00000308  20000078  20000078  00007078  2**3
                  ALLOC
 11 ._user_heap_stack 00000600  20000380  20000380  00007078  2**0
                  ALLOC
 12 .ARM.attributes 00000030  00000000  00000000  00007074  2**0
                  CONTENTS, READONLY
 13 .debug_info   00011d1a  00000000  00000000  000070a4  2**0
                  CONTENTS, READONLY, DEBUGGING, OCTETS
 14 .debug_abbrev 000025c8  00000000  00000000  00018dbe  2**0
                  CONTENTS, READONLY, DEBUGGING, OCTETS
 15 .debug_aranges 00001098  00000000  00000000  0001b388  2**3
                  CONTENTS, READONLY, DEBUGGING, OCTETS
 16 .debug_rnglists 00000d2e  00000000  00000000  0001c420  2**0
                  CONTENTS, READONLY, DEBUGGING, OCTETS
 17 .debug_macro  0002371c  00000000  00000000  0001d14e  2**0
                  CONTENTS, READONLY, DEBUGGING, OCTETS
 18 .debug_line   00015484  00000000  00000000  0004086a  2**0
                  CONTENTS, READONLY, DEBUGGING, OCTETS
 19 .debug_str    000db24e  00000000  00000000  00055cee  2**0
                  CONTENTS, READONLY, DEBUGGING, OCTETS
 20 .comment      00000043  00000000  00000000  00130f3c  2**0
                  CONTENTS, READONLY
 21 .debug_frame  00004d44  00000000  00000000  00130f80  2**2
                  CONTENTS, READONLY, DEBUGGING, OCTETS
 22 .debug_line_str 0000005e  00000000  00000000  00135cc4  2**0
                  CONTENTS, READONLY, DEBUGGING, OCTETS

Disassembly of section .text:

08000190 <__do_global_dtors_aux>:
 8000190:	b510      	push	{r4, lr}
 8000192:	4c05      	ldr	r4, [pc, #20]	@ (80001a8 <__do_global_dtors_aux+0x18>)
 8000194:	7823      	ldrb	r3, [r4, #0]
 8000196:	b933      	cbnz	r3, 80001a6 <__do_global_dtors_aux+0x16>
 8000198:	4b04      	ldr	r3, [pc, #16]	@ (80001ac <__do_global_dtors_aux+0x1c>)
 800019a:	b113      	cbz	r3, 80001a2 <__do_global_dtors_aux+0x12>
 800019c:	4804      	ldr	r0, [pc, #16]	@ (80001b0 <__do_global_dtors_aux+0x20>)
 800019e:	f3af 8000 	nop.w
 80001a2:	2301      	movs	r3, #1
 80001a4:	7023      	strb	r3, [r4, #0]
 80001a6:	bd10      	pop	{r4, pc}
 80001a8:	20000078 	.word	0x20000078
 80001ac:	00000000 	.word	0x00000000
 80001b0:	08005ec4 	.word	0x08005ec4

080001b4 <frame_dummy>:
 80001b4:	b508      	push	{r3, lr}
 80001b6:	4b03      	ldr	r3, [pc, #12]	@ (80001c4 <frame_dummy+0x10>)
 80001b8:	b11b      	cbz	r3, 80001c2 <frame_dummy+0xe>
 80001ba:	4903      	ldr	r1, [pc, #12]	@ (80001c8 <frame_dummy+0x14>)
 80001bc:	4803      	ldr	r0, [pc, #12]	@ (80001cc <frame_dummy+0x18>)
 80001be:	f3af 8000 	nop.w
 80001c2:	bd08      	pop	{r3, pc}
 80001c4:	00000000 	.word	0x00000000
 80001c8:	2000007c 	.word	0x2000007c
 80001cc:	08005ec4 	.word	0x08005ec4

080001d0 <strlen>:
 80001d0:	4603      	mov	r3, r0
 80001d2:	f813 2b01 	ldrb.w	r2, [r3], #1
 80001d6:	2a00      	cmp	r2, #0
 80001d8:	d1fb      	bne.n	80001d2 <strlen+0x2>
 80001da:	1a18      	subs	r0, r3, r0
 80001dc:	3801      	subs	r0, #1
 80001de:	4770      	bx	lr

080001e0 <memchr>:
 80001e0:	f001 01ff 	and.w	r1, r1, #255	@ 0xff
 80001e4:	2a10      	cmp	r2, #16
 80001e6:	db2b      	blt.n	8000240 <memchr+0x60>
 80001e8:	f010 0f07 	tst.w	r0, #7
 80001ec:	d008      	beq.n	8000200 <memchr+0x20>
 80001ee:	f810 3b01 	ldrb.w	r3, [r0], #1
 80001f2:	3a01      	subs	r2, #1
 80001f4:	428b      	cmp	r3, r1
 80001f6:	d02d      	beq.n	8000254 <memchr+0x74>
 80001f8:	f010 0f07 	tst.w	r0, #7
 80001fc:	b342      	cbz	r2, 8000250 <memchr+0x70>
 80001fe:	d1f6      	bne.n	80001ee <memchr+0xe>
 8000200:	b4f0      	push	{r4, r5, r6, r7}
 8000202:	ea41 2101 	orr.w	r1, r1, r1, lsl #8
 8000206:	ea41 4101 	orr.w	r1, r1, r1, lsl #16
 800020a:	f022 0407 	bic.w	r4, r2, #7
 800020e:	f07f 0700 	mvns.w	r7, #0
 8000212:	2300      	movs	r3, #0
 8000214:	e8f0 5602 	ldrd	r5, r6, [r0], #8
 8000218:	3c08      	subs	r4, #8
 800021a:	ea85 0501 	eor.w	r5, r5, r1
 800021e:	ea86 0601 	eor.w	r6, r6, r1
 8000222:	fa85 f547 	uadd8	r5, r5, r7
 8000226:	faa3 f587 	sel	r5, r3, r7
 800022a:	fa86 f647 	uadd8	r6, r6, r7
 800022e:	faa5 f687 	sel	r6, r5, r7
 8000232:	b98e      	cbnz	r6, 8000258 <memchr+0x78>
 8000234:	d1ee      	bne.n	8000214 <memchr+0x34>
 8000236:	bcf0      	pop	{r4, r5, r6, r7}
 8000238:	f001 01ff 	and.w	r1, r1, #255	@ 0xff
 800023c:	f002 0207 	and.w	r2, r2, #7
 8000240:	b132      	cbz	r2, 8000250 <memchr+0x70>
 8000242:	f810 3b01 	ldrb.w	r3, [r0], #1
 8000246:	3a01      	subs	r2, #1
 8000248:	ea83 0301 	eor.w	r3, r3, r1
 800024c:	b113      	cbz	r3, 8000254 <memchr+0x74>
 800024e:	d1f8      	bne.n	8000242 <memchr+0x62>
 8000250:	2000      	movs	r0, #0
 8000252:	4770      	bx	lr
 8000254:	3801      	subs	r0, #1
 8000256:	4770      	bx	lr
 8000258:	2d00      	cmp	r5, #0
 800025a:	bf06      	itte	eq
 800025c:	4635      	moveq	r5, r6
 800025e:	3803      	subeq	r0, #3
 8000260:	3807      	subne	r0, #7
 8000262:	f015 0f01 	tst.w	r5, #1
 8000266:	d107      	bne.n	8000278 <memchr+0x98>
 8000268:	3001      	adds	r0, #1
 800026a:	f415 7f80 	tst.w	r5, #256	@ 0x100
 800026e:	bf02      	ittt	eq
 8000270:	3001      	addeq	r0, #1
 8000272:	f415 3fc0 	tsteq.w	r5, #98304	@ 0x18000
 8000276:	3001      	addeq	r0, #1
 8000278:	bcf0      	pop	{r4, r5, r6, r7}
 800027a:	3801      	subs	r0, #1
 800027c:	4770      	bx	lr
 800027e:	bf00      	nop

08000280 <__aeabi_drsub>:
 8000280:	f081 4100 	eor.w	r1, r1, #2147483648	@ 0x80000000
 8000284:	e002      	b.n	800028c <__adddf3>
 8000286:	bf00      	nop

08000288 <__aeabi_dsub>:
 8000288:	f083 4300 	eor.w	r3, r3, #2147483648	@ 0x80000000

0800028c <__adddf3>:
 800028c:	b530      	push	{r4, r5, lr}
 800028e:	ea4f 0441 	mov.w	r4, r1, lsl #1
 8000292:	ea4f 0543 	mov.w	r5, r3, lsl #1
 8000296:	ea94 0f05 	teq	r4, r5
 800029a:	bf08      	it	eq
 800029c:	ea90 0f02 	teqeq	r0, r2
 80002a0:	bf1f      	itttt	ne
 80002a2:	ea54 0c00 	orrsne.w	ip, r4, r0
 80002a6:	ea55 0c02 	orrsne.w	ip, r5, r2
 80002aa:	ea7f 5c64 	mvnsne.w	ip, r4, asr #21
 80002ae:	ea7f 5c65 	mvnsne.w	ip, r5, asr #21
 80002b2:	f000 80e2 	beq.w	800047a <__adddf3+0x1ee>
 80002b6:	ea4f 5454 	mov.w	r4, r4, lsr #21
 80002ba:	ebd4 5555 	rsbs	r5, r4, r5, lsr #21
 80002be:	bfb8      	it	lt
 80002c0:	426d      	neglt	r5, r5
 80002c2:	dd0c      	ble.n	80002de <__adddf3+0x52>
 80002c4:	442c      	add	r4, r5
 80002c6:	ea80 0202 	eor.w	r2, r0, r2
 80002ca:	ea81 0303 	eor.w	r3, r1, r3
 80002ce:	ea82 0000 	eor.w	r0, r2, r0
 80002d2:	ea83 0101 	eor.w	r1, r3, r1
 80002d6:	ea80 0202 	eor.w	r2, r0, r2
 80002da:	ea81 0303 	eor.w	r3, r1, r3
 80002de:	2d36      	cmp	r5, #54	@ 0x36
 80002e0:	bf88      	it	hi
 80002e2:	bd30      	pophi	{r4, r5, pc}
 80002e4:	f011 4f00 	tst.w	r1, #2147483648	@ 0x80000000
 80002e8:	ea4f 3101 	mov.w	r1, r1, lsl #12
 80002ec:	f44f 1c80 	mov.w	ip, #1048576	@ 0x100000
 80002f0:	ea4c 3111 	orr.w	r1, ip, r1, lsr #12
 80002f4:	d002      	beq.n	80002fc <__adddf3+0x70>
 80002f6:	4240      	negs	r0, r0
 80002f8:	eb61 0141 	sbc.w	r1, r1, r1, lsl #1
 80002fc:	f013 4f00 	tst.w	r3, #2147483648	@ 0x80000000
 8000300:	ea4f 3303 	mov.w	r3, r3, lsl #12
 8000304:	ea4c 3313 	orr.w	r3, ip, r3, lsr #12
 8000308:	d002      	beq.n	8000310 <__adddf3+0x84>
 800030a:	4252      	negs	r2, r2
 800030c:	eb63 0343 	sbc.w	r3, r3, r3, lsl #1
 8000310:	ea94 0f05 	teq	r4, r5
 8000314:	f000 80a7 	beq.w	8000466 <__adddf3+0x1da>
 8000318:	f1a4 0401 	sub.w	r4, r4, #1
 800031c:	f1d5 0e20 	rsbs	lr, r5, #32
 8000320:	db0d      	blt.n	800033e <__adddf3+0xb2>
 8000322:	fa02 fc0e 	lsl.w	ip, r2, lr
 8000326:	fa22 f205 	lsr.w	r2, r2, r5
 800032a:	1880      	adds	r0, r0, r2
 800032c:	f141 0100 	adc.w	r1, r1, #0
 8000330:	fa03 f20e 	lsl.w	r2, r3, lr
 8000334:	1880      	adds	r0, r0, r2
 8000336:	fa43 f305 	asr.w	r3, r3, r5
 800033a:	4159      	adcs	r1, r3
 800033c:	e00e      	b.n	800035c <__adddf3+0xd0>
 800033e:	f1a5 0520 	sub.w	r5, r5, #32
 8000342:	f10e 0e20 	add.w	lr, lr, #32
 8000346:	2a01      	cmp	r2, #1
 8000348:	fa03 fc0e 	lsl.w	ip, r3, lr
 800034c:	bf28      	it	cs
 800034e:	f04c 0c02 	orrcs.w	ip, ip, #2
 8000352:	fa43 f305 	asr.w	r3, r3, r5
 8000356:	18c0      	adds	r0, r0, r3
 8000358:	eb51 71e3 	adcs.w	r1, r1, r3, asr #31
 800035c:	f001 4500 	and.w	r5, r1, #2147483648	@ 0x80000000
 8000360:	d507      	bpl.n	8000372 <__adddf3+0xe6>
 8000362:	f04f 0e00 	mov.w	lr, #0
 8000366:	f1dc 0c00 	rsbs	ip, ip, #0
 800036a:	eb7e 0000 	sbcs.w	r0, lr, r0
 800036e:	eb6e 0101 	sbc.w	r1, lr, r1
 8000372:	f5b1 1f80 	cmp.w	r1, #1048576	@ 0x100000
 8000376:	d31b      	bcc.n	80003b0 <__adddf3+0x124>
 8000378:	f5b1 1f00 	cmp.w	r1, #2097152	@ 0x200000
 800037c:	d30c      	bcc.n	8000398 <__adddf3+0x10c>
 800037e:	0849      	lsrs	r1, r1, #1
 8000380:	ea5f 0030 	movs.w	r0, r0, rrx
 8000384:	ea4f 0c3c 	mov.w	ip, ip, rrx
 8000388:	f104 0401 	add.w	r4, r4, #1
 800038c:	ea4f 5244 	mov.w	r2, r4, lsl #21
 8000390:	f512 0f80 	cmn.w	r2, #4194304	@ 0x400000
 8000394:	f080 809a 	bcs.w	80004cc <__adddf3+0x240>
 8000398:	f1bc 4f00 	cmp.w	ip, #2147483648	@ 0x80000000
 800039c:	bf08      	it	eq
 800039e:	ea5f 0c50 	movseq.w	ip, r0, lsr #1
 80003a2:	f150 0000 	adcs.w	r0, r0, #0
 80003a6:	eb41 5104 	adc.w	r1, r1, r4, lsl #20
 80003aa:	ea41 0105 	orr.w	r1, r1, r5
 80003ae:	bd30      	pop	{r4, r5, pc}
 80003b0:	ea5f 0c4c 	movs.w	ip, ip, lsl #1
 80003b4:	4140      	adcs	r0, r0
 80003b6:	eb41 0101 	adc.w	r1, r1, r1
 80003ba:	3c01      	subs	r4, #1
 80003bc:	bf28      	it	cs
 80003be:	f5b1 1f80 	cmpcs.w	r1, #1048576	@ 0x100000
 80003c2:	d2e9      	bcs.n	8000398 <__adddf3+0x10c>
 80003c4:	f091 0f00 	teq	r1, #0
 80003c8:	bf04      	itt	eq
 80003ca:	4601      	moveq	r1, r0
 80003cc:	2000      	moveq	r0, #0
 80003ce:	fab1 f381 	clz	r3, r1
 80003d2:	bf08      	it	eq
 80003d4:	3320      	addeq	r3, #32
 80003d6:	f1a3 030b 	sub.w	r3, r3, #11
 80003da:	f1b3 0220 	subs.w	r2, r3, #32
 80003de:	da0c      	bge.n	80003fa <__adddf3+0x16e>
 80003e0:	320c      	adds	r2, #12
 80003e2:	dd08      	ble.n	80003f6 <__adddf3+0x16a>
 80003e4:	f102 0c14 	add.w	ip, r2, #20
 80003e8:	f1c2 020c 	rsb	r2, r2, #12
 80003ec:	fa01 f00c 	lsl.w	r0, r1, ip
 80003f0:	fa21 f102 	lsr.w	r1, r1, r2
 80003f4:	e00c      	b.n	8000410 <__adddf3+0x184>
 80003f6:	f102 0214 	add.w	r2, r2, #20
 80003fa:	bfd8      	it	le
 80003fc:	f1c2 0c20 	rsble	ip, r2, #32
 8000400:	fa01 f102 	lsl.w	r1, r1, r2
 8000404:	fa20 fc0c 	lsr.w	ip, r0, ip
 8000408:	bfdc      	itt	le
 800040a:	ea41 010c 	orrle.w	r1, r1, ip
 800040e:	4090      	lslle	r0, r2
 8000410:	1ae4      	subs	r4, r4, r3
 8000412:	bfa2      	ittt	ge
 8000414:	eb01 5104 	addge.w	r1, r1, r4, lsl #20
 8000418:	4329      	orrge	r1, r5
 800041a:	bd30      	popge	{r4, r5, pc}
 800041c:	ea6f 0404 	mvn.w	r4, r4
 8000420:	3c1f      	subs	r4, #31
 8000422:	da1c      	bge.n	800045e <__adddf3+0x1d2>
 8000424:	340c      	adds	r4, #12
 8000426:	dc0e      	bgt.n	8000446 <__adddf3+0x1ba>
 8000428:	f104 0414 	add.w	r4, r4, #20
 800042c:	f1c4 0220 	rsb	r2, r4, #32
 8000430:	fa20 f004 	lsr.w	r0, r0, r4
 8000434:	fa01 f302 	lsl.w	r3, r1, r2
 8000438:	ea40 0003 	orr.w	r0, r0, r3
 800043c:	fa21 f304 	lsr.w	r3, r1, r4
 8000440:	ea45 0103 	orr.w	r1, r5, r3
 8000444:	bd30      	pop	{r4, r5, pc}
 8000446:	f1c4 040c 	rsb	r4, r4, #12
 800044a:	f1c4 0220 	rsb	r2, r4, #32
 800044e:	fa20 f002 	lsr.w	r0, r0, r2
 8000452:	fa01 f304 	lsl.w	r3, r1, r4
 8000456:	ea40 0003 	orr.w	r0, r0, r3
 800045a:	4629      	mov	r1, r5
 800045c:	bd30      	pop	{r4, r5, pc}
 800045e:	fa21 f004 	lsr.w	r0, r1, r4
 8000462:	4629      	mov	r1, r5
 8000464:	bd30      	pop	{r4, r5, pc}
 8000466:	f094 0f00 	teq	r4, #0
 800046a:	f483 1380 	eor.w	r3, r3, #1048576	@ 0x100000
 800046e:	bf06      	itte	eq
 8000470:	f481 1180 	eoreq.w	r1, r1, #1048576	@ 0x100000
 8000474:	3401      	addeq	r4, #1
 8000476:	3d01      	subne	r5, #1
 8000478:	e74e      	b.n	8000318 <__adddf3+0x8c>
 800047a:	ea7f 5c64 	mvns.w	ip, r4, asr #21
 800047e:	bf18      	it	ne
 8000480:	ea7f 5c65 	mvnsne.w	ip, r5, asr #21
 8000484:	d029      	beq.n	80004da <__adddf3+0x24e>
 8000486:	ea94 0f05 	teq	r4, r5
 800048a:	bf08      	it	eq
 800048c:	ea90 0f02 	teqeq	r0, r2
 8000490:	d005      	beq.n	800049e <__adddf3+0x212>
 8000492:	ea54 0c00 	orrs.w	ip, r4, r0
 8000496:	bf04      	itt	eq
 8000498:	4619      	moveq	r1, r3
 800049a:	4610      	moveq	r0, r2
 800049c:	bd30      	pop	{r4, r5, pc}
 800049e:	ea91 0f03 	teq	r1, r3
 80004a2:	bf1e      	ittt	ne
 80004a4:	2100      	movne	r1, #0
 80004a6:	2000      	movne	r0, #0
 80004a8:	bd30      	popne	{r4, r5, pc}
 80004aa:	ea5f 5c54 	movs.w	ip, r4, lsr #21
 80004ae:	d105      	bne.n	80004bc <__adddf3+0x230>
 80004b0:	0040      	lsls	r0, r0, #1
 80004b2:	4149      	adcs	r1, r1
 80004b4:	bf28      	it	cs
 80004b6:	f041 4100 	orrcs.w	r1, r1, #2147483648	@ 0x80000000
 80004ba:	bd30      	pop	{r4, r5, pc}
 80004bc:	f514 0480 	adds.w	r4, r4, #4194304	@ 0x400000
 80004c0:	bf3c      	itt	cc
 80004c2:	f501 1180 	addcc.w	r1, r1, #1048576	@ 0x100000
 80004c6:	bd30      	popcc	{r4, r5, pc}
 80004c8:	f001 4500 	and.w	r5, r1, #2147483648	@ 0x80000000
 80004cc:	f045 41fe 	orr.w	r1, r5, #2130706432	@ 0x7f000000
 80004d0:	f441 0170 	orr.w	r1, r1, #15728640	@ 0xf00000
 80004d4:	f04f 0000 	mov.w	r0, #0
 80004d8:	bd30      	pop	{r4, r5, pc}
 80004da:	ea7f 5c64 	mvns.w	ip, r4, asr #21
 80004de:	bf1a      	itte	ne
 80004e0:	4619      	movne	r1, r3
 80004e2:	4610      	movne	r0, r2
 80004e4:	ea7f 5c65 	mvnseq.w	ip, r5, asr #21
 80004e8:	bf1c      	itt	ne
 80004ea:	460b      	movne	r3, r1
 80004ec:	4602      	movne	r2, r0
 80004ee:	ea50 3401 	orrs.w	r4, r0, r1, lsl #12
 80004f2:	bf06      	itte	eq
 80004f4:	ea52 3503 	orrseq.w	r5, r2, r3, lsl #12
 80004f8:	ea91 0f03 	teqeq	r1, r3
 80004fc:	f441 2100 	orrne.w	r1, r1, #524288	@ 0x80000
 8000500:	bd30      	pop	{r4, r5, pc}
 8000502:	bf00      	nop

08000504 <__aeabi_ui2d>:
 8000504:	f090 0f00 	teq	r0, #0
 8000508:	bf04      	itt	eq
 800050a:	2100      	moveq	r1, #0
 800050c:	4770      	bxeq	lr
 800050e:	b530      	push	{r4, r5, lr}
 8000510:	f44f 6480 	mov.w	r4, #1024	@ 0x400
 8000514:	f104 0432 	add.w	r4, r4, #50	@ 0x32
 8000518:	f04f 0500 	mov.w	r5, #0
 800051c:	f04f 0100 	mov.w	r1, #0
 8000520:	e750      	b.n	80003c4 <__adddf3+0x138>
 8000522:	bf00      	nop

08000524 <__aeabi_i2d>:
 8000524:	f090 0f00 	teq	r0, #0
 8000528:	bf04      	itt	eq
 800052a:	2100      	moveq	r1, #0
 800052c:	4770      	bxeq	lr
 800052e:	b530      	push	{r4, r5, lr}
 8000530:	f44f 6480 	mov.w	r4, #1024	@ 0x400
 8000534:	f104 0432 	add.w	r4, r4, #50	@ 0x32
 8000538:	f010 4500 	ands.w	r5, r0, #2147483648	@ 0x80000000
 800053c:	bf48      	it	mi
 800053e:	4240      	negmi	r0, r0
 8000540:	f04f 0100 	mov.w	r1, #0
 8000544:	e73e      	b.n	80003c4 <__adddf3+0x138>
 8000546:	bf00      	nop

08000548 <__aeabi_f2d>:
 8000548:	0042      	lsls	r2, r0, #1
 800054a:	ea4f 01e2 	mov.w	r1, r2, asr #3
 800054e:	ea4f 0131 	mov.w	r1, r1, rrx
 8000552:	ea4f 7002 	mov.w	r0, r2, lsl #28
 8000556:	bf1f      	itttt	ne
 8000558:	f012 437f 	andsne.w	r3, r2, #4278190080	@ 0xff000000
 800055c:	f093 4f7f 	teqne	r3, #4278190080	@ 0xff000000
 8000560:	f081 5160 	eorne.w	r1, r1, #939524096	@ 0x38000000
 8000564:	4770      	bxne	lr
 8000566:	f032 427f 	bics.w	r2, r2, #4278190080	@ 0xff000000
 800056a:	bf08      	it	eq
 800056c:	4770      	bxeq	lr
 800056e:	f093 4f7f 	teq	r3, #4278190080	@ 0xff000000
 8000572:	bf04      	itt	eq
 8000574:	f441 2100 	orreq.w	r1, r1, #524288	@ 0x80000
 8000578:	4770      	bxeq	lr
 800057a:	b530      	push	{r4, r5, lr}
 800057c:	f44f 7460 	mov.w	r4, #896	@ 0x380
 8000580:	f001 4500 	and.w	r5, r1, #2147483648	@ 0x80000000
 8000584:	f021 4100 	bic.w	r1, r1, #2147483648	@ 0x80000000
 8000588:	e71c      	b.n	80003c4 <__adddf3+0x138>
 800058a:	bf00      	nop

0800058c <__aeabi_ul2d>:
 800058c:	ea50 0201 	orrs.w	r2, r0, r1
 8000590:	bf08      	it	eq
 8000592:	4770      	bxeq	lr
 8000594:	b530      	push	{r4, r5, lr}
 8000596:	f04f 0500 	mov.w	r5, #0
 800059a:	e00a      	b.n	80005b2 <__aeabi_l2d+0x16>

0800059c <__aeabi_l2d>:
 800059c:	ea50 0201 	orrs.w	r2, r0, r1
 80005a0:	bf08      	it	eq
 80005a2:	4770      	bxeq	lr
 80005a4:	b530      	push	{r4, r5, lr}
 80005a6:	f011 4500 	ands.w	r5, r1, #2147483648	@ 0x80000000
 80005aa:	d502      	bpl.n	80005b2 <__aeabi_l2d+0x16>
 80005ac:	4240      	negs	r0, r0
 80005ae:	eb61 0141 	sbc.w	r1, r1, r1, lsl #1
 80005b2:	f44f 6480 	mov.w	r4, #1024	@ 0x400
 80005b6:	f104 0432 	add.w	r4, r4, #50	@ 0x32
 80005ba:	ea5f 5c91 	movs.w	ip, r1, lsr #22
 80005be:	f43f aed8 	beq.w	8000372 <__adddf3+0xe6>
 80005c2:	f04f 0203 	mov.w	r2, #3
 80005c6:	ea5f 0cdc 	movs.w	ip, ip, lsr #3
 80005ca:	bf18      	it	ne
 80005cc:	3203      	addne	r2, #3
 80005ce:	ea5f 0cdc 	movs.w	ip, ip, lsr #3
 80005d2:	bf18      	it	ne
 80005d4:	3203      	addne	r2, #3
 80005d6:	eb02 02dc 	add.w	r2, r2, ip, lsr #3
 80005da:	f1c2 0320 	rsb	r3, r2, #32
 80005de:	fa00 fc03 	lsl.w	ip, r0, r3
 80005e2:	fa20 f002 	lsr.w	r0, r0, r2
 80005e6:	fa01 fe03 	lsl.w	lr, r1, r3
 80005ea:	ea40 000e 	orr.w	r0, r0, lr
 80005ee:	fa21 f102 	lsr.w	r1, r1, r2
 80005f2:	4414      	add	r4, r2
 80005f4:	e6bd      	b.n	8000372 <__adddf3+0xe6>
 80005f6:	bf00      	nop

080005f8 <__aeabi_dmul>:
 80005f8:	b570      	push	{r4, r5, r6, lr}
 80005fa:	f04f 0cff 	mov.w	ip, #255	@ 0xff
 80005fe:	f44c 6ce0 	orr.w	ip, ip, #1792	@ 0x700
 8000602:	ea1c 5411 	ands.w	r4, ip, r1, lsr #20
 8000606:	bf1d      	ittte	ne
 8000608:	ea1c 5513 	andsne.w	r5, ip, r3, lsr #20
 800060c:	ea94 0f0c 	teqne	r4, ip
 8000610:	ea95 0f0c 	teqne	r5, ip
 8000614:	f000 f8de 	bleq	80007d4 <__aeabi_dmul+0x1dc>
 8000618:	442c      	add	r4, r5
 800061a:	ea81 0603 	eor.w	r6, r1, r3
 800061e:	ea21 514c 	bic.w	r1, r1, ip, lsl #21
 8000622:	ea23 534c 	bic.w	r3, r3, ip, lsl #21
 8000626:	ea50 3501 	orrs.w	r5, r0, r1, lsl #12
 800062a:	bf18      	it	ne
 800062c:	ea52 3503 	orrsne.w	r5, r2, r3, lsl #12
 8000630:	f441 1180 	orr.w	r1, r1, #1048576	@ 0x100000
 8000634:	f443 1380 	orr.w	r3, r3, #1048576	@ 0x100000
 8000638:	d038      	beq.n	80006ac <__aeabi_dmul+0xb4>
 800063a:	fba0 ce02 	umull	ip, lr, r0, r2
 800063e:	f04f 0500 	mov.w	r5, #0
 8000642:	fbe1 e502 	umlal	lr, r5, r1, r2
 8000646:	f006 4200 	and.w	r2, r6, #2147483648	@ 0x80000000
 800064a:	fbe0 e503 	umlal	lr, r5, r0, r3
 800064e:	f04f 0600 	mov.w	r6, #0
 8000652:	fbe1 5603 	umlal	r5, r6, r1, r3
 8000656:	f09c 0f00 	teq	ip, #0
 800065a:	bf18      	it	ne
 800065c:	f04e 0e01 	orrne.w	lr, lr, #1
 8000660:	f1a4 04ff 	sub.w	r4, r4, #255	@ 0xff
 8000664:	f5b6 7f00 	cmp.w	r6, #512	@ 0x200
 8000668:	f564 7440 	sbc.w	r4, r4, #768	@ 0x300
 800066c:	d204      	bcs.n	8000678 <__aeabi_dmul+0x80>
 800066e:	ea5f 0e4e 	movs.w	lr, lr, lsl #1
 8000672:	416d      	adcs	r5, r5
 8000674:	eb46 0606 	adc.w	r6, r6, r6
 8000678:	ea42 21c6 	orr.w	r1, r2, r6, lsl #11
 800067c:	ea41 5155 	orr.w	r1, r1, r5, lsr #21
 8000680:	ea4f 20c5 	mov.w	r0, r5, lsl #11
 8000684:	ea40 505e 	orr.w	r0, r0, lr, lsr #21
 8000688:	ea4f 2ece 	mov.w	lr, lr, lsl #11
 800068c:	f1b4 0cfd 	subs.w	ip, r4, #253	@ 0xfd
 8000690:	bf88      	it	hi
 8000692:	f5bc 6fe0 	cmphi.w	ip, #1792	@ 0x700
 8000696:	d81e      	bhi.n	80006d6 <__aeabi_dmul+0xde>
 8000698:	f1be 4f00 	cmp.w	lr, #2147483648	@ 0x80000000
 800069c:	bf08      	it	eq
 800069e:	ea5f 0e50 	movseq.w	lr, r0, lsr #1
 80006a2:	f150 0000 	adcs.w	r0, r0, #0
 80006a6:	eb41 5104 	adc.w	r1, r1, r4, lsl #20
 80006aa:	bd70      	pop	{r4, r5, r6, pc}
 80006ac:	f006 4600 	and.w	r6, r6, #2147483648	@ 0x80000000
 80006b0:	ea46 0101 	orr.w	r1, r6, r1
 80006b4:	ea40 0002 	orr.w	r0, r0, r2
 80006b8:	ea81 0103 	eor.w	r1, r1, r3
 80006bc:	ebb4 045c 	subs.w	r4, r4, ip, lsr #1
 80006c0:	bfc2      	ittt	gt
 80006c2:	ebd4 050c 	rsbsgt	r5, r4, ip
 80006c6:	ea41 5104 	orrgt.w	r1, r1, r4, lsl #20
 80006ca:	bd70      	popgt	{r4, r5, r6, pc}
 80006cc:	f441 1180 	orr.w	r1, r1, #1048576	@ 0x100000
 80006d0:	f04f 0e00 	mov.w	lr, #0
 80006d4:	3c01      	subs	r4, #1
 80006d6:	f300 80ab 	bgt.w	8000830 <__aeabi_dmul+0x238>
 80006da:	f114 0f36 	cmn.w	r4, #54	@ 0x36
 80006de:	bfde      	ittt	le
 80006e0:	2000      	movle	r0, #0
 80006e2:	f001 4100 	andle.w	r1, r1, #2147483648	@ 0x80000000
 80006e6:	bd70      	pople	{r4, r5, r6, pc}
 80006e8:	f1c4 0400 	rsb	r4, r4, #0
 80006ec:	3c20      	subs	r4, #32
 80006ee:	da35      	bge.n	800075c <__aeabi_dmul+0x164>
 80006f0:	340c      	adds	r4, #12
 80006f2:	dc1b      	bgt.n	800072c <__aeabi_dmul+0x134>
 80006f4:	f104 0414 	add.w	r4, r4, #20
 80006f8:	f1c4 0520 	rsb	r5, r4, #32
 80006fc:	fa00 f305 	lsl.w	r3, r0, r5
 8000700:	fa20 f004 	lsr.w	r0, r0, r4
 8000704:	fa01 f205 	lsl.w	r2, r1, r5
 8000708:	ea40 0002 	orr.w	r0, r0, r2
 800070c:	f001 4200 	and.w	r2, r1, #2147483648	@ 0x80000000
 8000710:	f021 4100 	bic.w	r1, r1, #2147483648	@ 0x80000000
 8000714:	eb10 70d3 	adds.w	r0, r0, r3, lsr #31
 8000718:	fa21 f604 	lsr.w	r6, r1, r4
 800071c:	eb42 0106 	adc.w	r1, r2, r6
 8000720:	ea5e 0e43 	orrs.w	lr, lr, r3, lsl #1
 8000724:	bf08      	it	eq
 8000726:	ea20 70d3 	biceq.w	r0, r0, r3, lsr #31
 800072a:	bd70      	pop	{r4, r5, r6, pc}
 800072c:	f1c4 040c 	rsb	r4, r4, #12
 8000730:	f1c4 0520 	rsb	r5, r4, #32
 8000734:	fa00 f304 	lsl.w	r3, r0, r4
 8000738:	fa20 f005 	lsr.w	r0, r0, r5
 800073c:	fa01 f204 	lsl.w	r2, r1, r4
 8000740:	ea40 0002 	orr.w	r0, r0, r2
 8000744:	f001 4100 	and.w	r1, r1, #2147483648	@ 0x80000000
 8000748:	eb10 70d3 	adds.w	r0, r0, r3, lsr #31
 800074c:	f141 0100 	adc.w	r1, r1, #0
 8000750:	ea5e 0e43 	orrs.w	lr, lr, r3, lsl #1
 8000754:	bf08      	it	eq
 8000756:	ea20 70d3 	biceq.w	r0, r0, r3, lsr #31
 800075a:	bd70      	pop	{r4, r5, r6, pc}
 800075c:	f1c4 0520 	rsb	r5, r4, #32
 8000760:	fa00 f205 	lsl.w	r2, r0, r5
 8000764:	ea4e 0e02 	orr.w	lr, lr, r2
 8000768:	fa20 f304 	lsr.w	r3, r0, r4
 800076c:	fa01 f205 	lsl.w	r2, r1, r5
 8000770:	ea43 0302 	orr.w	r3, r3, r2
 8000774:	fa21 f004 	lsr.w	r0, r1, r4
 8000778:	f001 4100 	and.w	r1, r1, #2147483648	@ 0x80000000
 800077c:	fa21 f204 	lsr.w	r2, r1, r4
 8000780:	ea20 0002 	bic.w	r0, r0, r2
 8000784:	eb00 70d3 	add.w	r0, r0, r3, lsr #31
 8000788:	ea5e 0e43 	orrs.w	lr, lr, r3, lsl #1
 800078c:	bf08      	it	eq
 800078e:	ea20 70d3 	biceq.w	r0, r0, r3, lsr #31
 8000792:	bd70      	pop	{r4, r5, r6, pc}
 8000794:	f094 0f00 	teq	r4, #0
 8000798:	d10f      	bne.n	80007ba <__aeabi_dmul+0x1c2>
 800079a:	f001 4600 	and.w	r6, r1, #2147483648	@ 0x80000000
 800079e:	0040      	lsls	r0, r0, #1
 80007a0:	eb41 0101 	adc.w	r1, r1, r1
 80007a4:	f411 1f80 	tst.w	r1, #1048576	@ 0x100000
 80007a8:	bf08      	it	eq
 80007aa:	3c01      	subeq	r4, #1
 80007ac:	d0f7      	beq.n	800079e <__aeabi_dmul+0x1a6>
 80007ae:	ea41 0106 	orr.w	r1, r1, r6
 80007b2:	f095 0f00 	teq	r5, #0
 80007b6:	bf18      	it	ne
 80007b8:	4770      	bxne	lr
 80007ba:	f003 4600 	and.w	r6, r3, #2147483648	@ 0x80000000
 80007be:	0052      	lsls	r2, r2, #1
 80007c0:	eb43 0303 	adc.w	r3, r3, r3
 80007c4:	f413 1f80 	tst.w	r3, #1048576	@ 0x100000
 80007c8:	bf08      	it	eq
 80007ca:	3d01      	subeq	r5, #1
 80007cc:	d0f7      	beq.n	80007be <__aeabi_dmul+0x1c6>
 80007ce:	ea43 0306 	orr.w	r3, r3, r6
 80007d2:	4770      	bx	lr
 80007d4:	ea94 0f0c 	teq	r4, ip
 80007d8:	ea0c 5513 	and.w	r5, ip, r3, lsr #20
 80007dc:	bf18      	it	ne
 80007de:	ea95 0f0c 	teqne	r5, ip
 80007e2:	d00c      	beq.n	80007fe <__aeabi_dmul+0x206>
 80007e4:	ea50 0641 	orrs.w	r6, r0, r1, lsl #1
 80007e8:	bf18      	it	ne
 80007ea:	ea52 0643 	orrsne.w	r6, r2, r3, lsl #1
 80007ee:	d1d1      	bne.n	8000794 <__aeabi_dmul+0x19c>
 80007f0:	ea81 0103 	eor.w	r1, r1, r3
 80007f4:	f001 4100 	and.w	r1, r1, #2147483648	@ 0x80000000
 80007f8:	f04f 0000 	mov.w	r0, #0
 80007fc:	bd70      	pop	{r4, r5, r6, pc}
 80007fe:	ea50 0641 	orrs.w	r6, r0, r1, lsl #1
 8000802:	bf06      	itte	eq
 8000804:	4610      	moveq	r0, r2
 8000806:	4619      	moveq	r1, r3
 8000808:	ea52 0643 	orrsne.w	r6, r2, r3, lsl #1
 800080c:	d019      	beq.n	8000842 <__aeabi_dmul+0x24a>
 800080e:	ea94 0f0c 	teq	r4, ip
 8000812:	d102      	bne.n	800081a <__aeabi_dmul+0x222>
 8000814:	ea50 3601 	orrs.w	r6, r0, r1, lsl #12
 8000818:	d113      	bne.n	8000842 <__aeabi_dmul+0x24a>
 800081a:	ea95 0f0c 	teq	r5, ip
 800081e:	d105      	bne.n	800082c <__aeabi_dmul+0x234>
 8000820:	ea52 3603 	orrs.w	r6, r2, r3, lsl #12
 8000824:	bf1c      	itt	ne
 8000826:	4610      	movne	r0, r2
 8000828:	4619      	movne	r1, r3
 800082a:	d10a      	bne.n	8000842 <__aeabi_dmul+0x24a>
 800082c:	ea81 0103 	eor.w	r1, r1, r3
 8000830:	f001 4100 	and.w	r1, r1, #2147483648	@ 0x80000000
 8000834:	f041 41fe 	orr.w	r1, r1, #2130706432	@ 0x7f000000
 8000838:	f441 0170 	orr.w	r1, r1, #15728640	@ 0xf00000
 800083c:	f04f 0000 	mov.w	r0, #0
 8000840:	bd70      	pop	{r4, r5, r6, pc}
 8000842:	f041 41fe 	orr.w	r1, r1, #2130706432	@ 0x7f000000
 8000846:	f441 0178 	orr.w	r1, r1, #16252928	@ 0xf80000
 800084a:	bd70      	pop	{r4, r5, r6, pc}

0800084c <__aeabi_ddiv>:
 800084c:	b570      	push	{r4, r5, r6, lr}
 800084e:	f04f 0cff 	mov.w	ip, #255	@ 0xff
 8000852:	f44c 6ce0 	orr.w	ip, ip, #1792	@ 0x700
 8000856:	ea1c 5411 	ands.w	r4, ip, r1, lsr #20
 800085a:	bf1d      	ittte	ne
 800085c:	ea1c 5513 	andsne.w	r5, ip, r3, lsr #20
 8000860:	ea94 0f0c 	teqne	r4, ip
 8000864:	ea95 0f0c 	teqne	r5, ip
 8000868:	f000 f8a7 	bleq	80009ba <__aeabi_ddiv+0x16e>
 800086c:	eba4 0405 	sub.w	r4, r4, r5
 8000870:	ea81 0e03 	eor.w	lr, r1, r3
 8000874:	ea52 3503 	orrs.w	r5, r2, r3, lsl #12
 8000878:	ea4f 3101 	mov.w	r1, r1, lsl #12
 800087c:	f000 8088 	beq.w	8000990 <__aeabi_ddiv+0x144>
 8000880:	ea4f 3303 	mov.w	r3, r3, lsl #12
 8000884:	f04f 5580 	mov.w	r5, #268435456	@ 0x10000000
 8000888:	ea45 1313 	orr.w	r3, r5, r3, lsr #4
 800088c:	ea43 6312 	orr.w	r3, r3, r2, lsr #24
 8000890:	ea4f 2202 	mov.w	r2, r2, lsl #8
 8000894:	ea45 1511 	orr.w	r5, r5, r1, lsr #4
 8000898:	ea45 6510 	orr.w	r5, r5, r0, lsr #24
 800089c:	ea4f 2600 	mov.w	r6, r0, lsl #8
 80008a0:	f00e 4100 	and.w	r1, lr, #2147483648	@ 0x80000000
 80008a4:	429d      	cmp	r5, r3
 80008a6:	bf08      	it	eq
 80008a8:	4296      	cmpeq	r6, r2
 80008aa:	f144 04fd 	adc.w	r4, r4, #253	@ 0xfd
 80008ae:	f504 7440 	add.w	r4, r4, #768	@ 0x300
 80008b2:	d202      	bcs.n	80008ba <__aeabi_ddiv+0x6e>
 80008b4:	085b      	lsrs	r3, r3, #1
 80008b6:	ea4f 0232 	mov.w	r2, r2, rrx
 80008ba:	1ab6      	subs	r6, r6, r2
 80008bc:	eb65 0503 	sbc.w	r5, r5, r3
 80008c0:	085b      	lsrs	r3, r3, #1
 80008c2:	ea4f 0232 	mov.w	r2, r2, rrx
 80008c6:	f44f 1080 	mov.w	r0, #1048576	@ 0x100000
 80008ca:	f44f 2c00 	mov.w	ip, #524288	@ 0x80000
 80008ce:	ebb6 0e02 	subs.w	lr, r6, r2
 80008d2:	eb75 0e03 	sbcs.w	lr, r5, r3
 80008d6:	bf22      	ittt	cs
 80008d8:	1ab6      	subcs	r6, r6, r2
 80008da:	4675      	movcs	r5, lr
 80008dc:	ea40 000c 	orrcs.w	r0, r0, ip
 80008e0:	085b      	lsrs	r3, r3, #1
 80008e2:	ea4f 0232 	mov.w	r2, r2, rrx
 80008e6:	ebb6 0e02 	subs.w	lr, r6, r2
 80008ea:	eb75 0e03 	sbcs.w	lr, r5, r3
 80008ee:	bf22      	ittt	cs
 80008f0:	1ab6      	subcs	r6, r6, r2
 80008f2:	4675      	movcs	r5, lr
 80008f4:	ea40 005c 	orrcs.w	r0, r0, ip, lsr #1
 80008f8:	085b      	lsrs	r3, r3, #1
 80008fa:	ea4f 0232 	mov.w	r2, r2, rrx
 80008fe:	ebb6 0e02 	subs.w	lr, r6, r2
 8000902:	eb75 0e03 	sbcs.w	lr, r5, r3
 8000906:	bf22      	ittt	cs
 8000908:	1ab6      	subcs	r6, r6, r2
 800090a:	4675      	movcs	r5, lr
 800090c:	ea40 009c 	orrcs.w	r0, r0, ip, lsr #2
 8000910:	085b      	lsrs	r3, r3, #1
 8000912:	ea4f 0232 	mov.w	r2, r2, rrx
 8000916:	ebb6 0e02 	subs.w	lr, r6, r2
 800091a:	eb75 0e03 	sbcs.w	lr, r5, r3
 800091e:	bf22      	ittt	cs
 8000920:	1ab6      	subcs	r6, r6, r2
 8000922:	4675      	movcs	r5, lr
 8000924:	ea40 00dc 	orrcs.w	r0, r0, ip, lsr #3
 8000928:	ea55 0e06 	orrs.w	lr, r5, r6
 800092c:	d018      	beq.n	8000960 <__aeabi_ddiv+0x114>
 800092e:	ea4f 1505 	mov.w	r5, r5, lsl #4
 8000932:	ea45 7516 	orr.w	r5, r5, r6, lsr #28
 8000936:	ea4f 1606 	mov.w	r6, r6, lsl #4
 800093a:	ea4f 03c3 	mov.w	r3, r3, lsl #3
 800093e:	ea43 7352 	orr.w	r3, r3, r2, lsr #29
 8000942:	ea4f 02c2 	mov.w	r2, r2, lsl #3
 8000946:	ea5f 1c1c 	movs.w	ip, ip, lsr #4
 800094a:	d1c0      	bne.n	80008ce <__aeabi_ddiv+0x82>
 800094c:	f411 1f80 	tst.w	r1, #1048576	@ 0x100000
 8000950:	d10b      	bne.n	800096a <__aeabi_ddiv+0x11e>
 8000952:	ea41 0100 	orr.w	r1, r1, r0
 8000956:	f04f 0000 	mov.w	r0, #0
 800095a:	f04f 4c00 	mov.w	ip, #2147483648	@ 0x80000000
 800095e:	e7b6      	b.n	80008ce <__aeabi_ddiv+0x82>
 8000960:	f411 1f80 	tst.w	r1, #1048576	@ 0x100000
 8000964:	bf04      	itt	eq
 8000966:	4301      	orreq	r1, r0
 8000968:	2000      	moveq	r0, #0
 800096a:	f1b4 0cfd 	subs.w	ip, r4, #253	@ 0xfd
 800096e:	bf88      	it	hi
 8000970:	f5bc 6fe0 	cmphi.w	ip, #1792	@ 0x700
 8000974:	f63f aeaf 	bhi.w	80006d6 <__aeabi_dmul+0xde>
 8000978:	ebb5 0c03 	subs.w	ip, r5, r3
 800097c:	bf04      	itt	eq
 800097e:	ebb6 0c02 	subseq.w	ip, r6, r2
 8000982:	ea5f 0c50 	movseq.w	ip, r0, lsr #1
 8000986:	f150 0000 	adcs.w	r0, r0, #0
 800098a:	eb41 5104 	adc.w	r1, r1, r4, lsl #20
 800098e:	bd70      	pop	{r4, r5, r6, pc}
 8000990:	f00e 4e00 	and.w	lr, lr, #2147483648	@ 0x80000000
 8000994:	ea4e 3111 	orr.w	r1, lr, r1, lsr #12
 8000998:	eb14 045c 	adds.w	r4, r4, ip, lsr #1
 800099c:	bfc2      	ittt	gt
 800099e:	ebd4 050c 	rsbsgt	r5, r4, ip
 80009a2:	ea41 5104 	orrgt.w	r1, r1, r4, lsl #20
 80009a6:	bd70      	popgt	{r4, r5, r6, pc}
 80009a8:	f441 1180 	orr.w	r1, r1, #1048576	@ 0x100000
 80009ac:	f04f 0e00 	mov.w	lr, #0
 80009b0:	3c01      	subs	r4, #1
 80009b2:	e690      	b.n	80006d6 <__aeabi_dmul+0xde>
 80009b4:	ea45 0e06 	orr.w	lr, r5, r6
 80009b8:	e68d      	b.n	80006d6 <__aeabi_dmul+0xde>
 80009ba:	ea0c 5513 	and.w	r5, ip, r3, lsr #20
 80009be:	ea94 0f0c 	teq	r4, ip
 80009c2:	bf08      	it	eq
 80009c4:	ea95 0f0c 	teqeq	r5, ip
 80009c8:	f43f af3b 	beq.w	8000842 <__aeabi_dmul+0x24a>
 80009cc:	ea94 0f0c 	teq	r4, ip
 80009d0:	d10a      	bne.n	80009e8 <__aeabi_ddiv+0x19c>
 80009d2:	ea50 3401 	orrs.w	r4, r0, r1, lsl #12
 80009d6:	f47f af34 	bne.w	8000842 <__aeabi_dmul+0x24a>
 80009da:	ea95 0f0c 	teq	r5, ip
 80009de:	f47f af25 	bne.w	800082c <__aeabi_dmul+0x234>
 80009e2:	4610      	mov	r0, r2
 80009e4:	4619      	mov	r1, r3
 80009e6:	e72c      	b.n	8000842 <__aeabi_dmul+0x24a>
 80009e8:	ea95 0f0c 	teq	r5, ip
 80009ec:	d106      	bne.n	80009fc <__aeabi_ddiv+0x1b0>
 80009ee:	ea52 3503 	orrs.w	r5, r2, r3, lsl #12
 80009f2:	f43f aefd 	beq.w	80007f0 <__aeabi_dmul+0x1f8>
 80009f6:	4610      	mov	r0, r2
 80009f8:	4619      	mov	r1, r3
 80009fa:	e722      	b.n	8000842 <__aeabi_dmul+0x24a>
 80009fc:	ea50 0641 	orrs.w	r6, r0, r1, lsl #1
 8000a00:	bf18      	it	ne
 8000a02:	ea52 0643 	orrsne.w	r6, r2, r3, lsl #1
 8000a06:	f47f aec5 	bne.w	8000794 <__aeabi_dmul+0x19c>
 8000a0a:	ea50 0441 	orrs.w	r4, r0, r1, lsl #1
 8000a0e:	f47f af0d 	bne.w	800082c <__aeabi_dmul+0x234>
 8000a12:	ea52 0543 	orrs.w	r5, r2, r3, lsl #1
 8000a16:	f47f aeeb 	bne.w	80007f0 <__aeabi_dmul+0x1f8>
 8000a1a:	e712      	b.n	8000842 <__aeabi_dmul+0x24a>

08000a1c <__aeabi_d2iz>:
 8000a1c:	ea4f 0241 	mov.w	r2, r1, lsl #1
 8000a20:	f512 1200 	adds.w	r2, r2, #2097152	@ 0x200000
 8000a24:	d215      	bcs.n	8000a52 <__aeabi_d2iz+0x36>
 8000a26:	d511      	bpl.n	8000a4c <__aeabi_d2iz+0x30>
 8000a28:	f46f 7378 	mvn.w	r3, #992	@ 0x3e0
 8000a2c:	ebb3 5262 	subs.w	r2, r3, r2, asr #21
 8000a30:	d912      	bls.n	8000a58 <__aeabi_d2iz+0x3c>
 8000a32:	ea4f 23c1 	mov.w	r3, r1, lsl #11
 8000a36:	f043 4300 	orr.w	r3, r3, #2147483648	@ 0x80000000
 8000a3a:	ea43 5350 	orr.w	r3, r3, r0, lsr #21
 8000a3e:	f011 4f00 	tst.w	r1, #2147483648	@ 0x80000000
 8000a42:	fa23 f002 	lsr.w	r0, r3, r2
 8000a46:	bf18      	it	ne
 8000a48:	4240      	negne	r0, r0
 8000a4a:	4770      	bx	lr
 8000a4c:	f04f 0000 	mov.w	r0, #0
 8000a50:	4770      	bx	lr
 8000a52:	ea50 3001 	orrs.w	r0, r0, r1, lsl #12
 8000a56:	d105      	bne.n	8000a64 <__aeabi_d2iz+0x48>
 8000a58:	f011 4000 	ands.w	r0, r1, #2147483648	@ 0x80000000
 8000a5c:	bf08      	it	eq
 8000a5e:	f06f 4000 	mvneq.w	r0, #2147483648	@ 0x80000000
 8000a62:	4770      	bx	lr
 8000a64:	f04f 0000 	mov.w	r0, #0
 8000a68:	4770      	bx	lr
 8000a6a:	bf00      	nop

08000a6c <__aeabi_uldivmod>:
 8000a6c:	b953      	cbnz	r3, 8000a84 <__aeabi_uldivmod+0x18>
 8000a6e:	b94a      	cbnz	r2, 8000a84 <__aeabi_uldivmod+0x18>
 8000a70:	2900      	cmp	r1, #0
 8000a72:	bf08      	it	eq
 8000a74:	2800      	cmpeq	r0, #0
 8000a76:	bf1c      	itt	ne
 8000a78:	f04f 31ff 	movne.w	r1, #4294967295
 8000a7c:	f04f 30ff 	movne.w	r0, #4294967295
 8000a80:	f000 b96a 	b.w	8000d58 <__aeabi_idiv0>
 8000a84:	f1ad 0c08 	sub.w	ip, sp, #8
 8000a88:	e96d ce04 	strd	ip, lr, [sp, #-16]!
 8000a8c:	f000 f806 	bl	8000a9c <__udivmoddi4>
 8000a90:	f8dd e004 	ldr.w	lr, [sp, #4]
 8000a94:	e9dd 2302 	ldrd	r2, r3, [sp, #8]
 8000a98:	b004      	add	sp, #16
 8000a9a:	4770      	bx	lr

08000a9c <__udivmoddi4>:
 8000a9c:	e92d 47f0 	stmdb	sp!, {r4, r5, r6, r7, r8, r9, sl, lr}
 8000aa0:	9d08      	ldr	r5, [sp, #32]
 8000aa2:	460c      	mov	r4, r1
 8000aa4:	2b00      	cmp	r3, #0
 8000aa6:	d14e      	bne.n	8000b46 <__udivmoddi4+0xaa>
 8000aa8:	4694      	mov	ip, r2
 8000aaa:	458c      	cmp	ip, r1
 8000aac:	4686      	mov	lr, r0
 8000aae:	fab2 f282 	clz	r2, r2
 8000ab2:	d962      	bls.n	8000b7a <__udivmoddi4+0xde>
 8000ab4:	b14a      	cbz	r2, 8000aca <__udivmoddi4+0x2e>
 8000ab6:	f1c2 0320 	rsb	r3, r2, #32
 8000aba:	4091      	lsls	r1, r2
 8000abc:	fa20 f303 	lsr.w	r3, r0, r3
 8000ac0:	fa0c fc02 	lsl.w	ip, ip, r2
 8000ac4:	4319      	orrs	r1, r3
 8000ac6:	fa00 fe02 	lsl.w	lr, r0, r2
 8000aca:	ea4f 471c 	mov.w	r7, ip, lsr #16
 8000ace:	fa1f f68c 	uxth.w	r6, ip
 8000ad2:	fbb1 f4f7 	udiv	r4, r1, r7
 8000ad6:	ea4f 431e 	mov.w	r3, lr, lsr #16
 8000ada:	fb07 1114 	mls	r1, r7, r4, r1
 8000ade:	ea43 4301 	orr.w	r3, r3, r1, lsl #16
 8000ae2:	fb04 f106 	mul.w	r1, r4, r6
 8000ae6:	4299      	cmp	r1, r3
 8000ae8:	d90a      	bls.n	8000b00 <__udivmoddi4+0x64>
 8000aea:	eb1c 0303 	adds.w	r3, ip, r3
 8000aee:	f104 30ff 	add.w	r0, r4, #4294967295
 8000af2:	f080 8112 	bcs.w	8000d1a <__udivmoddi4+0x27e>
 8000af6:	4299      	cmp	r1, r3
 8000af8:	f240 810f 	bls.w	8000d1a <__udivmoddi4+0x27e>
 8000afc:	3c02      	subs	r4, #2
 8000afe:	4463      	add	r3, ip
 8000b00:	1a59      	subs	r1, r3, r1
 8000b02:	fa1f f38e 	uxth.w	r3, lr
 8000b06:	fbb1 f0f7 	udiv	r0, r1, r7
 8000b0a:	fb07 1110 	mls	r1, r7, r0, r1
 8000b0e:	ea43 4301 	orr.w	r3, r3, r1, lsl #16
 8000b12:	fb00 f606 	mul.w	r6, r0, r6
 8000b16:	429e      	cmp	r6, r3
 8000b18:	d90a      	bls.n	8000b30 <__udivmoddi4+0x94>
 8000b1a:	eb1c 0303 	adds.w	r3, ip, r3
 8000b1e:	f100 31ff 	add.w	r1, r0, #4294967295
 8000b22:	f080 80fc 	bcs.w	8000d1e <__udivmoddi4+0x282>
 8000b26:	429e      	cmp	r6, r3
 8000b28:	f240 80f9 	bls.w	8000d1e <__udivmoddi4+0x282>
 8000b2c:	4463      	add	r3, ip
 8000b2e:	3802      	subs	r0, #2
 8000b30:	1b9b      	subs	r3, r3, r6
 8000b32:	ea40 4004 	orr.w	r0, r0, r4, lsl #16
 8000b36:	2100      	movs	r1, #0
 8000b38:	b11d      	cbz	r5, 8000b42 <__udivmoddi4+0xa6>
 8000b3a:	40d3      	lsrs	r3, r2
 8000b3c:	2200      	movs	r2, #0
 8000b3e:	e9c5 3200 	strd	r3, r2, [r5]
 8000b42:	e8bd 87f0 	ldmia.w	sp!, {r4, r5, r6, r7, r8, r9, sl, pc}
 8000b46:	428b      	cmp	r3, r1
 8000b48:	d905      	bls.n	8000b56 <__udivmoddi4+0xba>
 8000b4a:	b10d      	cbz	r5, 8000b50 <__udivmoddi4+0xb4>
 8000b4c:	e9c5 0100 	strd	r0, r1, [r5]
 8000b50:	2100      	movs	r1, #0
 8000b52:	4608      	mov	r0, r1
 8000b54:	e7f5      	b.n	8000b42 <__udivmoddi4+0xa6>
 8000b56:	fab3 f183 	clz	r1, r3
 8000b5a:	2900      	cmp	r1, #0
 8000b5c:	d146      	bne.n	8000bec <__udivmoddi4+0x150>
 8000b5e:	42a3      	cmp	r3, r4
 8000b60:	d302      	bcc.n	8000b68 <__udivmoddi4+0xcc>
 8000b62:	4290      	cmp	r0, r2
 8000b64:	f0c0 80f0 	bcc.w	8000d48 <__udivmoddi4+0x2ac>
 8000b68:	1a86      	subs	r6, r0, r2
 8000b6a:	eb64 0303 	sbc.w	r3, r4, r3
 8000b6e:	2001      	movs	r0, #1
 8000b70:	2d00      	cmp	r5, #0
 8000b72:	d0e6      	beq.n	8000b42 <__udivmoddi4+0xa6>
 8000b74:	e9c5 6300 	strd	r6, r3, [r5]
 8000b78:	e7e3      	b.n	8000b42 <__udivmoddi4+0xa6>
 8000b7a:	2a00      	cmp	r2, #0
 8000b7c:	f040 8090 	bne.w	8000ca0 <__udivmoddi4+0x204>
 8000b80:	eba1 040c 	sub.w	r4, r1, ip
 8000b84:	ea4f 481c 	mov.w	r8, ip, lsr #16
 8000b88:	fa1f f78c 	uxth.w	r7, ip
 8000b8c:	2101      	movs	r1, #1
 8000b8e:	fbb4 f6f8 	udiv	r6, r4, r8
 8000b92:	ea4f 431e 	mov.w	r3, lr, lsr #16
 8000b96:	fb08 4416 	mls	r4, r8, r6, r4
 8000b9a:	ea43 4304 	orr.w	r3, r3, r4, lsl #16
 8000b9e:	fb07 f006 	mul.w	r0, r7, r6
 8000ba2:	4298      	cmp	r0, r3
 8000ba4:	d908      	bls.n	8000bb8 <__udivmoddi4+0x11c>
 8000ba6:	eb1c 0303 	adds.w	r3, ip, r3
 8000baa:	f106 34ff 	add.w	r4, r6, #4294967295
 8000bae:	d202      	bcs.n	8000bb6 <__udivmoddi4+0x11a>
 8000bb0:	4298      	cmp	r0, r3
 8000bb2:	f200 80cd 	bhi.w	8000d50 <__udivmoddi4+0x2b4>
 8000bb6:	4626      	mov	r6, r4
 8000bb8:	1a1c      	subs	r4, r3, r0
 8000bba:	fa1f f38e 	uxth.w	r3, lr
 8000bbe:	fbb4 f0f8 	udiv	r0, r4, r8
 8000bc2:	fb08 4410 	mls	r4, r8, r0, r4
 8000bc6:	ea43 4304 	orr.w	r3, r3, r4, lsl #16
 8000bca:	fb00 f707 	mul.w	r7, r0, r7
 8000bce:	429f      	cmp	r7, r3
 8000bd0:	d908      	bls.n	8000be4 <__udivmoddi4+0x148>
 8000bd2:	eb1c 0303 	adds.w	r3, ip, r3
 8000bd6:	f100 34ff 	add.w	r4, r0, #4294967295
 8000bda:	d202      	bcs.n	8000be2 <__udivmoddi4+0x146>
 8000bdc:	429f      	cmp	r7, r3
 8000bde:	f200 80b0 	bhi.w	8000d42 <__udivmoddi4+0x2a6>
 8000be2:	4620      	mov	r0, r4
 8000be4:	1bdb      	subs	r3, r3, r7
 8000be6:	ea40 4006 	orr.w	r0, r0, r6, lsl #16
 8000bea:	e7a5      	b.n	8000b38 <__udivmoddi4+0x9c>
 8000bec:	f1c1 0620 	rsb	r6, r1, #32
 8000bf0:	408b      	lsls	r3, r1
 8000bf2:	fa22 f706 	lsr.w	r7, r2, r6
 8000bf6:	431f      	orrs	r7, r3
 8000bf8:	fa20 fc06 	lsr.w	ip, r0, r6
 8000bfc:	fa04 f301 	lsl.w	r3, r4, r1
 8000c00:	ea43 030c 	orr.w	r3, r3, ip
 8000c04:	40f4      	lsrs	r4, r6
 8000c06:	fa00 f801 	lsl.w	r8, r0, r1
 8000c0a:	0c38      	lsrs	r0, r7, #16
 8000c0c:	ea4f 4913 	mov.w	r9, r3, lsr #16
 8000c10:	fbb4 fef0 	udiv	lr, r4, r0
 8000c14:	fa1f fc87 	uxth.w	ip, r7
 8000c18:	fb00 441e 	mls	r4, r0, lr, r4
 8000c1c:	ea49 4404 	orr.w	r4, r9, r4, lsl #16
 8000c20:	fb0e f90c 	mul.w	r9, lr, ip
 8000c24:	45a1      	cmp	r9, r4
 8000c26:	fa02 f201 	lsl.w	r2, r2, r1
 8000c2a:	d90a      	bls.n	8000c42 <__udivmoddi4+0x1a6>
 8000c2c:	193c      	adds	r4, r7, r4
 8000c2e:	f10e 3aff 	add.w	sl, lr, #4294967295
 8000c32:	f080 8084 	bcs.w	8000d3e <__udivmoddi4+0x2a2>
 8000c36:	45a1      	cmp	r9, r4
 8000c38:	f240 8081 	bls.w	8000d3e <__udivmoddi4+0x2a2>
 8000c3c:	f1ae 0e02 	sub.w	lr, lr, #2
 8000c40:	443c      	add	r4, r7
 8000c42:	eba4 0409 	sub.w	r4, r4, r9
 8000c46:	fa1f f983 	uxth.w	r9, r3
 8000c4a:	fbb4 f3f0 	udiv	r3, r4, r0
 8000c4e:	fb00 4413 	mls	r4, r0, r3, r4
 8000c52:	ea49 4404 	orr.w	r4, r9, r4, lsl #16
 8000c56:	fb03 fc0c 	mul.w	ip, r3, ip
 8000c5a:	45a4      	cmp	ip, r4
 8000c5c:	d907      	bls.n	8000c6e <__udivmoddi4+0x1d2>
 8000c5e:	193c      	adds	r4, r7, r4
 8000c60:	f103 30ff 	add.w	r0, r3, #4294967295
 8000c64:	d267      	bcs.n	8000d36 <__udivmoddi4+0x29a>
 8000c66:	45a4      	cmp	ip, r4
 8000c68:	d965      	bls.n	8000d36 <__udivmoddi4+0x29a>
 8000c6a:	3b02      	subs	r3, #2
 8000c6c:	443c      	add	r4, r7
 8000c6e:	ea43 400e 	orr.w	r0, r3, lr, lsl #16
 8000c72:	fba0 9302 	umull	r9, r3, r0, r2
 8000c76:	eba4 040c 	sub.w	r4, r4, ip
 8000c7a:	429c      	cmp	r4, r3
 8000c7c:	46ce      	mov	lr, r9
 8000c7e:	469c      	mov	ip, r3
 8000c80:	d351      	bcc.n	8000d26 <__udivmoddi4+0x28a>
 8000c82:	d04e      	beq.n	8000d22 <__udivmoddi4+0x286>
 8000c84:	b155      	cbz	r5, 8000c9c <__udivmoddi4+0x200>
 8000c86:	ebb8 030e 	subs.w	r3, r8, lr
 8000c8a:	eb64 040c 	sbc.w	r4, r4, ip
 8000c8e:	fa04 f606 	lsl.w	r6, r4, r6
 8000c92:	40cb      	lsrs	r3, r1
 8000c94:	431e      	orrs	r6, r3
 8000c96:	40cc      	lsrs	r4, r1
 8000c98:	e9c5 6400 	strd	r6, r4, [r5]
 8000c9c:	2100      	movs	r1, #0
 8000c9e:	e750      	b.n	8000b42 <__udivmoddi4+0xa6>
 8000ca0:	f1c2 0320 	rsb	r3, r2, #32
 8000ca4:	fa20 f103 	lsr.w	r1, r0, r3
 8000ca8:	fa0c fc02 	lsl.w	ip, ip, r2
 8000cac:	fa24 f303 	lsr.w	r3, r4, r3
 8000cb0:	4094      	lsls	r4, r2
 8000cb2:	430c      	orrs	r4, r1
 8000cb4:	ea4f 481c 	mov.w	r8, ip, lsr #16
 8000cb8:	fa00 fe02 	lsl.w	lr, r0, r2
 8000cbc:	fa1f f78c 	uxth.w	r7, ip
 8000cc0:	fbb3 f0f8 	udiv	r0, r3, r8
 8000cc4:	fb08 3110 	mls	r1, r8, r0, r3
 8000cc8:	0c23      	lsrs	r3, r4, #16
 8000cca:	ea43 4301 	orr.w	r3, r3, r1, lsl #16
 8000cce:	fb00 f107 	mul.w	r1, r0, r7
 8000cd2:	4299      	cmp	r1, r3
 8000cd4:	d908      	bls.n	8000ce8 <__udivmoddi4+0x24c>
 8000cd6:	eb1c 0303 	adds.w	r3, ip, r3
 8000cda:	f100 36ff 	add.w	r6, r0, #4294967295
 8000cde:	d22c      	bcs.n	8000d3a <__udivmoddi4+0x29e>
 8000ce0:	4299      	cmp	r1, r3
 8000ce2:	d92a      	bls.n	8000d3a <__udivmoddi4+0x29e>
 8000ce4:	3802      	subs	r0, #2
 8000ce6:	4463      	add	r3, ip
 8000ce8:	1a5b      	subs	r3, r3, r1
 8000cea:	b2a4      	uxth	r4, r4
 8000cec:	fbb3 f1f8 	udiv	r1, r3, r8
 8000cf0:	fb08 3311 	mls	r3, r8, r1, r3
 8000cf4:	ea44 4403 	orr.w	r4, r4, r3, lsl #16
 8000cf8:	fb01 f307 	mul.w	r3, r1, r7
 8000cfc:	42a3      	cmp	r3, r4
 8000cfe:	d908      	bls.n	8000d12 <__udivmoddi4+0x276>
 8000d00:	eb1c 0404 	adds.w	r4, ip, r4
 8000d04:	f101 36ff 	add.w	r6, r1, #4294967295
 8000d08:	d213      	bcs.n	8000d32 <__udivmoddi4+0x296>
 8000d0a:	42a3      	cmp	r3, r4
 8000d0c:	d911      	bls.n	8000d32 <__udivmoddi4+0x296>
 8000d0e:	3902      	subs	r1, #2
 8000d10:	4464      	add	r4, ip
 8000d12:	1ae4      	subs	r4, r4, r3
 8000d14:	ea41 4100 	orr.w	r1, r1, r0, lsl #16
 8000d18:	e739      	b.n	8000b8e <__udivmoddi4+0xf2>
 8000d1a:	4604      	mov	r4, r0
 8000d1c:	e6f0      	b.n	8000b00 <__udivmoddi4+0x64>
 8000d1e:	4608      	mov	r0, r1
 8000d20:	e706      	b.n	8000b30 <__udivmoddi4+0x94>
 8000d22:	45c8      	cmp	r8, r9
 8000d24:	d2ae      	bcs.n	8000c84 <__udivmoddi4+0x1e8>
 8000d26:	ebb9 0e02 	subs.w	lr, r9, r2
 8000d2a:	eb63 0c07 	sbc.w	ip, r3, r7
 8000d2e:	3801      	subs	r0, #1
 8000d30:	e7a8      	b.n	8000c84 <__udivmoddi4+0x1e8>
 8000d32:	4631      	mov	r1, r6
 8000d34:	e7ed      	b.n	8000d12 <__udivmoddi4+0x276>
 8000d36:	4603      	mov	r3, r0
 8000d38:	e799      	b.n	8000c6e <__udivmoddi4+0x1d2>
 8000d3a:	4630      	mov	r0, r6
 8000d3c:	e7d4      	b.n	8000ce8 <__udivmoddi4+0x24c>
 8000d3e:	46d6      	mov	lr, sl
 8000d40:	e77f      	b.n	8000c42 <__udivmoddi4+0x1a6>
 8000d42:	4463      	add	r3, ip
 8000d44:	3802      	subs	r0, #2
 8000d46:	e74d      	b.n	8000be4 <__udivmoddi4+0x148>
 8000d48:	4606      	mov	r6, r0
 8000d4a:	4623      	mov	r3, r4
 8000d4c:	4608      	mov	r0, r1
 8000d4e:	e70f      	b.n	8000b70 <__udivmoddi4+0xd4>
 8000d50:	3e02      	subs	r6, #2
 8000d52:	4463      	add	r3, ip
 8000d54:	e730      	b.n	8000bb8 <__udivmoddi4+0x11c>
 8000d56:	bf00      	nop

08000d58 <__aeabi_idiv0>:
 8000d58:	4770      	bx	lr
 8000d5a:	bf00      	nop

08000d5c <main>:
/**
  * @brief  The application entry point.
  * @retval int
  */
int main(void)
{
 8000d5c:	b580      	push	{r7, lr}
 8000d5e:	b094      	sub	sp, #80	@ 0x50
 8000d60:	af00      	add	r7, sp, #0
  /* USER CODE END 1 */

  /* MCU Configuration--------------------------------------------------------*/

  /* Reset of all peripherals, Initializes the Flash interface and the Systick. */
  HAL_Init();
 8000d62:	f001 f977 	bl	8002054 <HAL_Init>
  /* USER CODE BEGIN Init */

  /* USER CODE END Init */

  /* Configure the system clock */
  SystemClock_Config();
 8000d66:	f000 f90f 	bl	8000f88 <SystemClock_Config>
  /* USER CODE BEGIN SysInit */

  /* USER CODE END SysInit */

  /* Initialize all configured peripherals */
  MX_GPIO_Init();
 8000d6a:	f000 fa6f 	bl	800124c <MX_GPIO_Init>
  MX_ADC1_Init();
 8000d6e:	f000 f969 	bl	8001044 <MX_ADC1_Init>
  MX_I2C3_Init();
 8000d72:	f000 f9c7 	bl	8001104 <MX_I2C3_Init>
  MX_TIM4_Init();
 8000d76:	f000 f9f3 	bl	8001160 <MX_TIM4_Init>
  //MX_USART2_UART_Init();
  /* USER CODE BEGIN 2 */

  IMU_initialize(115200);
 8000d7a:	f44f 30e1 	mov.w	r0, #115200	@ 0x1c200
 8000d7e:	f000 fd87 	bl	8001890 <IMU_initialize>
  Lcd_PinType pins[] = {FA_Data4_Pin, FA_Data5_Pin, FA_Data6_Pin, FA_Data7_Pin};
  Lcd_HandleTypeDef lcd = Lcd_create(ports, pins, FA_RS_GPIO_Port, FA_RS_Pin, FA_EN_GPIO_Port, FA_EN_Pin, LCD_4_BIT_MODE);*/

  Lcd_HandleTypeDef lcd;

  Lcd_init(&lcd);
 8000d82:	f107 032c 	add.w	r3, r7, #44	@ 0x2c
 8000d86:	4618      	mov	r0, r3
 8000d88:	f001 f822 	bl	8001dd0 <Lcd_init>

  Lcd_clear(&lcd);
 8000d8c:	f107 032c 	add.w	r3, r7, #44	@ 0x2c
 8000d90:	4618      	mov	r0, r3
 8000d92:	f001 f8b7 	bl	8001f04 <Lcd_clear>
  Lcd_cursor(&lcd,0,0);
 8000d96:	f107 032c 	add.w	r3, r7, #44	@ 0x2c
 8000d9a:	2200      	movs	r2, #0
 8000d9c:	2100      	movs	r1, #0
 8000d9e:	4618      	mov	r0, r3
 8000da0:	f001 f896 	bl	8001ed0 <Lcd_cursor>
  Lcd_string(&lcd, "Starting...");
 8000da4:	f107 032c 	add.w	r3, r7, #44	@ 0x2c
 8000da8:	4970      	ldr	r1, [pc, #448]	@ (8000f6c <main+0x210>)
 8000daa:	4618      	mov	r0, r3
 8000dac:	f001 f870 	bl	8001e90 <Lcd_string>

  HAL_Delay(500);
 8000db0:	f44f 70fa 	mov.w	r0, #500	@ 0x1f4
 8000db4:	f001 f9c0 	bl	8002138 <HAL_Delay>

  Lcd_clear(&lcd);
 8000db8:	f107 032c 	add.w	r3, r7, #44	@ 0x2c
 8000dbc:	4618      	mov	r0, r3
 8000dbe:	f001 f8a1 	bl	8001f04 <Lcd_clear>

  //float adc_value[2];


  uint8_t tram_value[11] = {0};
 8000dc2:	2300      	movs	r3, #0
 8000dc4:	623b      	str	r3, [r7, #32]
 8000dc6:	f107 0324 	add.w	r3, r7, #36	@ 0x24
 8000dca:	2200      	movs	r2, #0
 8000dcc:	601a      	str	r2, [r3, #0]
 8000dce:	f8c3 2003 	str.w	r2, [r3, #3]
  uint8_t raw_data[30] = {0};
 8000dd2:	2300      	movs	r3, #0
 8000dd4:	603b      	str	r3, [r7, #0]
 8000dd6:	1d3b      	adds	r3, r7, #4
 8000dd8:	2200      	movs	r2, #0
 8000dda:	601a      	str	r2, [r3, #0]
 8000ddc:	605a      	str	r2, [r3, #4]
 8000dde:	609a      	str	r2, [r3, #8]
 8000de0:	60da      	str	r2, [r3, #12]
 8000de2:	611a      	str	r2, [r3, #16]
 8000de4:	615a      	str	r2, [r3, #20]
 8000de6:	831a      	strh	r2, [r3, #24]
  uint8_t state = 0;
 8000de8:	2300      	movs	r3, #0
 8000dea:	f887 304f 	strb.w	r3, [r7, #79]	@ 0x4f

		  _GyroValueUpdated = 0;
	  }*/


	  HAL_UART_Receive(&huart2, raw_data, data_lgth, HAL_MAX_DELAY);
 8000dee:	4639      	mov	r1, r7
 8000df0:	f04f 33ff 	mov.w	r3, #4294967295
 8000df4:	2214      	movs	r2, #20
 8000df6:	485e      	ldr	r0, [pc, #376]	@ (8000f70 <main+0x214>)
 8000df8:	f003 fbb1 	bl	800455e <HAL_UART_Receive>

	  state = 0;
 8000dfc:	2300      	movs	r3, #0
 8000dfe:	f887 304f 	strb.w	r3, [r7, #79]	@ 0x4f

	  for(int i = 0 ; i < data_lgth ; i++){
 8000e02:	2300      	movs	r3, #0
 8000e04:	64bb      	str	r3, [r7, #72]	@ 0x48
 8000e06:	e029      	b.n	8000e5c <main+0x100>

		  //if(raw_data[i] == 0x55 && raw_data[i+1] == 0x52){
		  if(raw_data[i] == 0x55 && raw_data[i+1] == 0x52){
 8000e08:	463a      	mov	r2, r7
 8000e0a:	6cbb      	ldr	r3, [r7, #72]	@ 0x48
 8000e0c:	4413      	add	r3, r2
 8000e0e:	781b      	ldrb	r3, [r3, #0]
 8000e10:	2b55      	cmp	r3, #85	@ 0x55
 8000e12:	d10a      	bne.n	8000e2a <main+0xce>
 8000e14:	6cbb      	ldr	r3, [r7, #72]	@ 0x48
 8000e16:	3301      	adds	r3, #1
 8000e18:	3350      	adds	r3, #80	@ 0x50
 8000e1a:	443b      	add	r3, r7
 8000e1c:	f813 3c50 	ldrb.w	r3, [r3, #-80]
 8000e20:	2b52      	cmp	r3, #82	@ 0x52
 8000e22:	d102      	bne.n	8000e2a <main+0xce>
			  state = i;
 8000e24:	6cbb      	ldr	r3, [r7, #72]	@ 0x48
 8000e26:	f887 304f 	strb.w	r3, [r7, #79]	@ 0x4f
		  }

		  if(state > 0 && i <= state + 11){
 8000e2a:	f897 304f 	ldrb.w	r3, [r7, #79]	@ 0x4f
 8000e2e:	2b00      	cmp	r3, #0
 8000e30:	d011      	beq.n	8000e56 <main+0xfa>
 8000e32:	f897 304f 	ldrb.w	r3, [r7, #79]	@ 0x4f
 8000e36:	330b      	adds	r3, #11
 8000e38:	6cba      	ldr	r2, [r7, #72]	@ 0x48
 8000e3a:	429a      	cmp	r2, r3
 8000e3c:	dc0b      	bgt.n	8000e56 <main+0xfa>

			  tram_value[i - state] = raw_data[i];
 8000e3e:	f897 304f 	ldrb.w	r3, [r7, #79]	@ 0x4f
 8000e42:	6cba      	ldr	r2, [r7, #72]	@ 0x48
 8000e44:	1ad3      	subs	r3, r2, r3
 8000e46:	4639      	mov	r1, r7
 8000e48:	6cba      	ldr	r2, [r7, #72]	@ 0x48
 8000e4a:	440a      	add	r2, r1
 8000e4c:	7812      	ldrb	r2, [r2, #0]
 8000e4e:	3350      	adds	r3, #80	@ 0x50
 8000e50:	443b      	add	r3, r7
 8000e52:	f803 2c30 	strb.w	r2, [r3, #-48]
	  for(int i = 0 ; i < data_lgth ; i++){
 8000e56:	6cbb      	ldr	r3, [r7, #72]	@ 0x48
 8000e58:	3301      	adds	r3, #1
 8000e5a:	64bb      	str	r3, [r7, #72]	@ 0x48
 8000e5c:	6cbb      	ldr	r3, [r7, #72]	@ 0x48
 8000e5e:	2b13      	cmp	r3, #19
 8000e60:	ddd2      	ble.n	8000e08 <main+0xac>
			  if(position < 0){ position = 0; }

		  }
	  }*/

	  Decode_IMU_Data(tram_value);
 8000e62:	f107 0320 	add.w	r3, r7, #32
 8000e66:	4618      	mov	r0, r3
 8000e68:	f000 fdc0 	bl	80019ec <Decode_IMU_Data>

	  Lcd_cursor(&lcd, 1, 0);
 8000e6c:	f107 032c 	add.w	r3, r7, #44	@ 0x2c
 8000e70:	2200      	movs	r2, #0
 8000e72:	2101      	movs	r1, #1
 8000e74:	4618      	mov	r0, r3
 8000e76:	f001 f82b 	bl	8001ed0 <Lcd_cursor>
	  Lcd_int(&lcd, gyro[1]);
 8000e7a:	4b3e      	ldr	r3, [pc, #248]	@ (8000f74 <main+0x218>)
 8000e7c:	e9d3 2302 	ldrd	r2, r3, [r3, #8]
 8000e80:	4610      	mov	r0, r2
 8000e82:	4619      	mov	r1, r3
 8000e84:	f7ff fdca 	bl	8000a1c <__aeabi_d2iz>
 8000e88:	4602      	mov	r2, r0
 8000e8a:	f107 032c 	add.w	r3, r7, #44	@ 0x2c
 8000e8e:	4611      	mov	r1, r2
 8000e90:	4618      	mov	r0, r3
 8000e92:	f000 ffe5 	bl	8001e60 <Lcd_int>
	  Lcd_string(&lcd, "  ");
 8000e96:	f107 032c 	add.w	r3, r7, #44	@ 0x2c
 8000e9a:	4937      	ldr	r1, [pc, #220]	@ (8000f78 <main+0x21c>)
 8000e9c:	4618      	mov	r0, r3
 8000e9e:	f000 fff7 	bl	8001e90 <Lcd_string>
	  Lcd_int(&lcd, angle[0]);
 8000ea2:	4b36      	ldr	r3, [pc, #216]	@ (8000f7c <main+0x220>)
 8000ea4:	e9d3 2300 	ldrd	r2, r3, [r3]
 8000ea8:	4610      	mov	r0, r2
 8000eaa:	4619      	mov	r1, r3
 8000eac:	f7ff fdb6 	bl	8000a1c <__aeabi_d2iz>
 8000eb0:	4602      	mov	r2, r0
 8000eb2:	f107 032c 	add.w	r3, r7, #44	@ 0x2c
 8000eb6:	4611      	mov	r1, r2
 8000eb8:	4618      	mov	r0, r3
 8000eba:	f000 ffd1 	bl	8001e60 <Lcd_int>
	  Lcd_string(&lcd, "  ");
 8000ebe:	f107 032c 	add.w	r3, r7, #44	@ 0x2c
 8000ec2:	492d      	ldr	r1, [pc, #180]	@ (8000f78 <main+0x21c>)
 8000ec4:	4618      	mov	r0, r3
 8000ec6:	f000 ffe3 	bl	8001e90 <Lcd_string>
	  Lcd_int(&lcd, angle[1]);
 8000eca:	4b2c      	ldr	r3, [pc, #176]	@ (8000f7c <main+0x220>)
 8000ecc:	e9d3 2302 	ldrd	r2, r3, [r3, #8]
 8000ed0:	4610      	mov	r0, r2
 8000ed2:	4619      	mov	r1, r3
 8000ed4:	f7ff fda2 	bl	8000a1c <__aeabi_d2iz>
 8000ed8:	4602      	mov	r2, r0
 8000eda:	f107 032c 	add.w	r3, r7, #44	@ 0x2c
 8000ede:	4611      	mov	r1, r2
 8000ee0:	4618      	mov	r0, r3
 8000ee2:	f000 ffbd 	bl	8001e60 <Lcd_int>
	  Lcd_string(&lcd, "  ");
 8000ee6:	f107 032c 	add.w	r3, r7, #44	@ 0x2c
 8000eea:	4923      	ldr	r1, [pc, #140]	@ (8000f78 <main+0x21c>)
 8000eec:	4618      	mov	r0, r3
 8000eee:	f000 ffcf 	bl	8001e90 <Lcd_string>
	  Lcd_int(&lcd, angle[2]);
 8000ef2:	4b22      	ldr	r3, [pc, #136]	@ (8000f7c <main+0x220>)
 8000ef4:	e9d3 2304 	ldrd	r2, r3, [r3, #16]
 8000ef8:	4610      	mov	r0, r2
 8000efa:	4619      	mov	r1, r3
 8000efc:	f7ff fd8e 	bl	8000a1c <__aeabi_d2iz>
 8000f00:	4602      	mov	r2, r0
 8000f02:	f107 032c 	add.w	r3, r7, #44	@ 0x2c
 8000f06:	4611      	mov	r1, r2
 8000f08:	4618      	mov	r0, r3
 8000f0a:	f000 ffa9 	bl	8001e60 <Lcd_int>
	  Lcd_string(&lcd, "  ");
 8000f0e:	f107 032c 	add.w	r3, r7, #44	@ 0x2c
 8000f12:	4919      	ldr	r1, [pc, #100]	@ (8000f78 <main+0x21c>)
 8000f14:	4618      	mov	r0, r3
 8000f16:	f000 ffbb 	bl	8001e90 <Lcd_string>

	  Lcd_cursor(&lcd, 0, 0);
 8000f1a:	f107 032c 	add.w	r3, r7, #44	@ 0x2c
 8000f1e:	2200      	movs	r2, #0
 8000f20:	2100      	movs	r1, #0
 8000f22:	4618      	mov	r0, r3
 8000f24:	f000 ffd4 	bl	8001ed0 <Lcd_cursor>
	  for(int i = 0 ; i < 11 ; i++){
 8000f28:	2300      	movs	r3, #0
 8000f2a:	647b      	str	r3, [r7, #68]	@ 0x44
 8000f2c:	e014      	b.n	8000f58 <main+0x1fc>

		  Lcd_int(&lcd, tram_value[i]);
 8000f2e:	f107 0220 	add.w	r2, r7, #32
 8000f32:	6c7b      	ldr	r3, [r7, #68]	@ 0x44
 8000f34:	4413      	add	r3, r2
 8000f36:	781b      	ldrb	r3, [r3, #0]
 8000f38:	461a      	mov	r2, r3
 8000f3a:	f107 032c 	add.w	r3, r7, #44	@ 0x2c
 8000f3e:	4611      	mov	r1, r2
 8000f40:	4618      	mov	r0, r3
 8000f42:	f000 ff8d 	bl	8001e60 <Lcd_int>
		  Lcd_string(&lcd, " ");
 8000f46:	f107 032c 	add.w	r3, r7, #44	@ 0x2c
 8000f4a:	490d      	ldr	r1, [pc, #52]	@ (8000f80 <main+0x224>)
 8000f4c:	4618      	mov	r0, r3
 8000f4e:	f000 ff9f 	bl	8001e90 <Lcd_string>
	  for(int i = 0 ; i < 11 ; i++){
 8000f52:	6c7b      	ldr	r3, [r7, #68]	@ 0x44
 8000f54:	3301      	adds	r3, #1
 8000f56:	647b      	str	r3, [r7, #68]	@ 0x44
 8000f58:	6c7b      	ldr	r3, [r7, #68]	@ 0x44
 8000f5a:	2b0a      	cmp	r3, #10
 8000f5c:	dde7      	ble.n	8000f2e <main+0x1d2>
	  }
	  Lcd_string(&lcd, "           ");
 8000f5e:	f107 032c 	add.w	r3, r7, #44	@ 0x2c
 8000f62:	4908      	ldr	r1, [pc, #32]	@ (8000f84 <main+0x228>)
 8000f64:	4618      	mov	r0, r3
 8000f66:	f000 ff93 	bl	8001e90 <Lcd_string>
	  HAL_UART_Receive(&huart2, raw_data, data_lgth, HAL_MAX_DELAY);
 8000f6a:	e740      	b.n	8000dee <main+0x92>
 8000f6c:	08005edc 	.word	0x08005edc
 8000f70:	20000188 	.word	0x20000188
 8000f74:	200001e8 	.word	0x200001e8
 8000f78:	08005ee8 	.word	0x08005ee8
 8000f7c:	20000200 	.word	0x20000200
 8000f80:	08005eec 	.word	0x08005eec
 8000f84:	08005ef0 	.word	0x08005ef0

08000f88 <SystemClock_Config>:
/**
  * @brief System Clock Configuration
  * @retval None
  */
void SystemClock_Config(void)
{
 8000f88:	b580      	push	{r7, lr}
 8000f8a:	b094      	sub	sp, #80	@ 0x50
 8000f8c:	af00      	add	r7, sp, #0
  RCC_OscInitTypeDef RCC_OscInitStruct = {0};
 8000f8e:	f107 0320 	add.w	r3, r7, #32
 8000f92:	2230      	movs	r2, #48	@ 0x30
 8000f94:	2100      	movs	r1, #0
 8000f96:	4618      	mov	r0, r3
 8000f98:	f004 fb14 	bl	80055c4 <memset>
  RCC_ClkInitTypeDef RCC_ClkInitStruct = {0};
 8000f9c:	f107 030c 	add.w	r3, r7, #12
 8000fa0:	2200      	movs	r2, #0
 8000fa2:	601a      	str	r2, [r3, #0]
 8000fa4:	605a      	str	r2, [r3, #4]
 8000fa6:	609a      	str	r2, [r3, #8]
 8000fa8:	60da      	str	r2, [r3, #12]
 8000faa:	611a      	str	r2, [r3, #16]

  /** Configure the main internal regulator output voltage
  */
  __HAL_RCC_PWR_CLK_ENABLE();
 8000fac:	2300      	movs	r3, #0
 8000fae:	60bb      	str	r3, [r7, #8]
 8000fb0:	4b22      	ldr	r3, [pc, #136]	@ (800103c <SystemClock_Config+0xb4>)
 8000fb2:	6c1b      	ldr	r3, [r3, #64]	@ 0x40
 8000fb4:	4a21      	ldr	r2, [pc, #132]	@ (800103c <SystemClock_Config+0xb4>)
 8000fb6:	f043 5380 	orr.w	r3, r3, #268435456	@ 0x10000000
 8000fba:	6413      	str	r3, [r2, #64]	@ 0x40
 8000fbc:	4b1f      	ldr	r3, [pc, #124]	@ (800103c <SystemClock_Config+0xb4>)
 8000fbe:	6c1b      	ldr	r3, [r3, #64]	@ 0x40
 8000fc0:	f003 5380 	and.w	r3, r3, #268435456	@ 0x10000000
 8000fc4:	60bb      	str	r3, [r7, #8]
 8000fc6:	68bb      	ldr	r3, [r7, #8]
  __HAL_PWR_VOLTAGESCALING_CONFIG(PWR_REGULATOR_VOLTAGE_SCALE1);
 8000fc8:	2300      	movs	r3, #0
 8000fca:	607b      	str	r3, [r7, #4]
 8000fcc:	4b1c      	ldr	r3, [pc, #112]	@ (8001040 <SystemClock_Config+0xb8>)
 8000fce:	681b      	ldr	r3, [r3, #0]
 8000fd0:	4a1b      	ldr	r2, [pc, #108]	@ (8001040 <SystemClock_Config+0xb8>)
 8000fd2:	f443 4380 	orr.w	r3, r3, #16384	@ 0x4000
 8000fd6:	6013      	str	r3, [r2, #0]
 8000fd8:	4b19      	ldr	r3, [pc, #100]	@ (8001040 <SystemClock_Config+0xb8>)
 8000fda:	681b      	ldr	r3, [r3, #0]
 8000fdc:	f403 4380 	and.w	r3, r3, #16384	@ 0x4000
 8000fe0:	607b      	str	r3, [r7, #4]
 8000fe2:	687b      	ldr	r3, [r7, #4]

  /** Initializes the RCC Oscillators according to the specified parameters
  * in the RCC_OscInitTypeDef structure.
  */
  RCC_OscInitStruct.OscillatorType = RCC_OSCILLATORTYPE_HSI;
 8000fe4:	2302      	movs	r3, #2
 8000fe6:	623b      	str	r3, [r7, #32]
  RCC_OscInitStruct.HSIState = RCC_HSI_ON;
 8000fe8:	2301      	movs	r3, #1
 8000fea:	62fb      	str	r3, [r7, #44]	@ 0x2c
  RCC_OscInitStruct.HSICalibrationValue = RCC_HSICALIBRATION_DEFAULT;
 8000fec:	2310      	movs	r3, #16
 8000fee:	633b      	str	r3, [r7, #48]	@ 0x30
  RCC_OscInitStruct.PLL.PLLState = RCC_PLL_NONE;
 8000ff0:	2300      	movs	r3, #0
 8000ff2:	63bb      	str	r3, [r7, #56]	@ 0x38
  if (HAL_RCC_OscConfig(&RCC_OscInitStruct) != HAL_OK)
 8000ff4:	f107 0320 	add.w	r3, r7, #32
 8000ff8:	4618      	mov	r0, r3
 8000ffa:	f001 ffd9 	bl	8002fb0 <HAL_RCC_OscConfig>
 8000ffe:	4603      	mov	r3, r0
 8001000:	2b00      	cmp	r3, #0
 8001002:	d001      	beq.n	8001008 <SystemClock_Config+0x80>
  {
    Error_Handler();
 8001004:	f000 fa09 	bl	800141a <Error_Handler>
  }

  /** Initializes the CPU, AHB and APB buses clocks
  */
  RCC_ClkInitStruct.ClockType = RCC_CLOCKTYPE_HCLK|RCC_CLOCKTYPE_SYSCLK
 8001008:	230f      	movs	r3, #15
 800100a:	60fb      	str	r3, [r7, #12]
                              |RCC_CLOCKTYPE_PCLK1|RCC_CLOCKTYPE_PCLK2;
  RCC_ClkInitStruct.SYSCLKSource = RCC_SYSCLKSOURCE_HSI;
 800100c:	2300      	movs	r3, #0
 800100e:	613b      	str	r3, [r7, #16]
  RCC_ClkInitStruct.AHBCLKDivider = RCC_SYSCLK_DIV1;
 8001010:	2300      	movs	r3, #0
 8001012:	617b      	str	r3, [r7, #20]
  RCC_ClkInitStruct.APB1CLKDivider = RCC_HCLK_DIV1;
 8001014:	2300      	movs	r3, #0
 8001016:	61bb      	str	r3, [r7, #24]
  RCC_ClkInitStruct.APB2CLKDivider = RCC_HCLK_DIV1;
 8001018:	2300      	movs	r3, #0
 800101a:	61fb      	str	r3, [r7, #28]

  if (HAL_RCC_ClockConfig(&RCC_ClkInitStruct, FLASH_LATENCY_0) != HAL_OK)
 800101c:	f107 030c 	add.w	r3, r7, #12
 8001020:	2100      	movs	r1, #0
 8001022:	4618      	mov	r0, r3
 8001024:	f002 fa3c 	bl	80034a0 <HAL_RCC_ClockConfig>
 8001028:	4603      	mov	r3, r0
 800102a:	2b00      	cmp	r3, #0
 800102c:	d001      	beq.n	8001032 <SystemClock_Config+0xaa>
  {
    Error_Handler();
 800102e:	f000 f9f4 	bl	800141a <Error_Handler>
  }
}
 8001032:	bf00      	nop
 8001034:	3750      	adds	r7, #80	@ 0x50
 8001036:	46bd      	mov	sp, r7
 8001038:	bd80      	pop	{r7, pc}
 800103a:	bf00      	nop
 800103c:	40023800 	.word	0x40023800
 8001040:	40007000 	.word	0x40007000

08001044 <MX_ADC1_Init>:
  * @brief ADC1 Initialization Function
  * @param None
  * @retval None
  */
static void MX_ADC1_Init(void)
{
 8001044:	b580      	push	{r7, lr}
 8001046:	b084      	sub	sp, #16
 8001048:	af00      	add	r7, sp, #0

  /* USER CODE BEGIN ADC1_Init 0 */

  /* USER CODE END ADC1_Init 0 */

  ADC_ChannelConfTypeDef sConfig = {0};
 800104a:	463b      	mov	r3, r7
 800104c:	2200      	movs	r2, #0
 800104e:	601a      	str	r2, [r3, #0]
 8001050:	605a      	str	r2, [r3, #4]
 8001052:	609a      	str	r2, [r3, #8]
 8001054:	60da      	str	r2, [r3, #12]

  /* USER CODE END ADC1_Init 1 */

  /** Configure the global features of the ADC (Clock, Resolution, Data Alignment and number of conversion)
  */
  hadc1.Instance = ADC1;
 8001056:	4b28      	ldr	r3, [pc, #160]	@ (80010f8 <MX_ADC1_Init+0xb4>)
 8001058:	4a28      	ldr	r2, [pc, #160]	@ (80010fc <MX_ADC1_Init+0xb8>)
 800105a:	601a      	str	r2, [r3, #0]
  hadc1.Init.ClockPrescaler = ADC_CLOCK_SYNC_PCLK_DIV2;
 800105c:	4b26      	ldr	r3, [pc, #152]	@ (80010f8 <MX_ADC1_Init+0xb4>)
 800105e:	2200      	movs	r2, #0
 8001060:	605a      	str	r2, [r3, #4]
  hadc1.Init.Resolution = ADC_RESOLUTION_12B;
 8001062:	4b25      	ldr	r3, [pc, #148]	@ (80010f8 <MX_ADC1_Init+0xb4>)
 8001064:	2200      	movs	r2, #0
 8001066:	609a      	str	r2, [r3, #8]
  hadc1.Init.ScanConvMode = ENABLE;
 8001068:	4b23      	ldr	r3, [pc, #140]	@ (80010f8 <MX_ADC1_Init+0xb4>)
 800106a:	2201      	movs	r2, #1
 800106c:	611a      	str	r2, [r3, #16]
  hadc1.Init.ContinuousConvMode = ENABLE;
 800106e:	4b22      	ldr	r3, [pc, #136]	@ (80010f8 <MX_ADC1_Init+0xb4>)
 8001070:	2201      	movs	r2, #1
 8001072:	761a      	strb	r2, [r3, #24]
  hadc1.Init.DiscontinuousConvMode = DISABLE;
 8001074:	4b20      	ldr	r3, [pc, #128]	@ (80010f8 <MX_ADC1_Init+0xb4>)
 8001076:	2200      	movs	r2, #0
 8001078:	f883 2020 	strb.w	r2, [r3, #32]
  hadc1.Init.ExternalTrigConvEdge = ADC_EXTERNALTRIGCONVEDGE_NONE;
 800107c:	4b1e      	ldr	r3, [pc, #120]	@ (80010f8 <MX_ADC1_Init+0xb4>)
 800107e:	2200      	movs	r2, #0
 8001080:	62da      	str	r2, [r3, #44]	@ 0x2c
  hadc1.Init.ExternalTrigConv = ADC_SOFTWARE_START;
 8001082:	4b1d      	ldr	r3, [pc, #116]	@ (80010f8 <MX_ADC1_Init+0xb4>)
 8001084:	4a1e      	ldr	r2, [pc, #120]	@ (8001100 <MX_ADC1_Init+0xbc>)
 8001086:	629a      	str	r2, [r3, #40]	@ 0x28
  hadc1.Init.DataAlign = ADC_DATAALIGN_RIGHT;
 8001088:	4b1b      	ldr	r3, [pc, #108]	@ (80010f8 <MX_ADC1_Init+0xb4>)
 800108a:	2200      	movs	r2, #0
 800108c:	60da      	str	r2, [r3, #12]
  hadc1.Init.NbrOfConversion = 2;
 800108e:	4b1a      	ldr	r3, [pc, #104]	@ (80010f8 <MX_ADC1_Init+0xb4>)
 8001090:	2202      	movs	r2, #2
 8001092:	61da      	str	r2, [r3, #28]
  hadc1.Init.DMAContinuousRequests = DISABLE;
 8001094:	4b18      	ldr	r3, [pc, #96]	@ (80010f8 <MX_ADC1_Init+0xb4>)
 8001096:	2200      	movs	r2, #0
 8001098:	f883 2030 	strb.w	r2, [r3, #48]	@ 0x30
  hadc1.Init.EOCSelection = ADC_EOC_SINGLE_CONV;
 800109c:	4b16      	ldr	r3, [pc, #88]	@ (80010f8 <MX_ADC1_Init+0xb4>)
 800109e:	2201      	movs	r2, #1
 80010a0:	615a      	str	r2, [r3, #20]
  if (HAL_ADC_Init(&hadc1) != HAL_OK)
 80010a2:	4815      	ldr	r0, [pc, #84]	@ (80010f8 <MX_ADC1_Init+0xb4>)
 80010a4:	f001 f86c 	bl	8002180 <HAL_ADC_Init>
 80010a8:	4603      	mov	r3, r0
 80010aa:	2b00      	cmp	r3, #0
 80010ac:	d001      	beq.n	80010b2 <MX_ADC1_Init+0x6e>
  {
    Error_Handler();
 80010ae:	f000 f9b4 	bl	800141a <Error_Handler>
  }

  /** Configure for the selected ADC regular channel its corresponding rank in the sequencer and its sample time.
  */
  sConfig.Channel = ADC_CHANNEL_10;
 80010b2:	230a      	movs	r3, #10
 80010b4:	603b      	str	r3, [r7, #0]
  sConfig.Rank = 1;
 80010b6:	2301      	movs	r3, #1
 80010b8:	607b      	str	r3, [r7, #4]
  sConfig.SamplingTime = ADC_SAMPLETIME_28CYCLES;
 80010ba:	2302      	movs	r3, #2
 80010bc:	60bb      	str	r3, [r7, #8]
  if (HAL_ADC_ConfigChannel(&hadc1, &sConfig) != HAL_OK)
 80010be:	463b      	mov	r3, r7
 80010c0:	4619      	mov	r1, r3
 80010c2:	480d      	ldr	r0, [pc, #52]	@ (80010f8 <MX_ADC1_Init+0xb4>)
 80010c4:	f001 f8a0 	bl	8002208 <HAL_ADC_ConfigChannel>
 80010c8:	4603      	mov	r3, r0
 80010ca:	2b00      	cmp	r3, #0
 80010cc:	d001      	beq.n	80010d2 <MX_ADC1_Init+0x8e>
  {
    Error_Handler();
 80010ce:	f000 f9a4 	bl	800141a <Error_Handler>
  }

  /** Configure for the selected ADC regular channel its corresponding rank in the sequencer and its sample time.
  */
  sConfig.Channel = ADC_CHANNEL_12;
 80010d2:	230c      	movs	r3, #12
 80010d4:	603b      	str	r3, [r7, #0]
  sConfig.Rank = 2;
 80010d6:	2302      	movs	r3, #2
 80010d8:	607b      	str	r3, [r7, #4]
  if (HAL_ADC_ConfigChannel(&hadc1, &sConfig) != HAL_OK)
 80010da:	463b      	mov	r3, r7
 80010dc:	4619      	mov	r1, r3
 80010de:	4806      	ldr	r0, [pc, #24]	@ (80010f8 <MX_ADC1_Init+0xb4>)
 80010e0:	f001 f892 	bl	8002208 <HAL_ADC_ConfigChannel>
 80010e4:	4603      	mov	r3, r0
 80010e6:	2b00      	cmp	r3, #0
 80010e8:	d001      	beq.n	80010ee <MX_ADC1_Init+0xaa>
  {
    Error_Handler();
 80010ea:	f000 f996 	bl	800141a <Error_Handler>
  }
  /* USER CODE BEGIN ADC1_Init 2 */

  /* USER CODE END ADC1_Init 2 */

}
 80010ee:	bf00      	nop
 80010f0:	3710      	adds	r7, #16
 80010f2:	46bd      	mov	sp, r7
 80010f4:	bd80      	pop	{r7, pc}
 80010f6:	bf00      	nop
 80010f8:	20000094 	.word	0x20000094
 80010fc:	40012000 	.word	0x40012000
 8001100:	0f000001 	.word	0x0f000001

08001104 <MX_I2C3_Init>:
  * @brief I2C3 Initialization Function
  * @param None
  * @retval None
  */
static void MX_I2C3_Init(void)
{
 8001104:	b580      	push	{r7, lr}
 8001106:	af00      	add	r7, sp, #0
  /* USER CODE END I2C3_Init 0 */

  /* USER CODE BEGIN I2C3_Init 1 */

  /* USER CODE END I2C3_Init 1 */
  hi2c3.Instance = I2C3;
 8001108:	4b12      	ldr	r3, [pc, #72]	@ (8001154 <MX_I2C3_Init+0x50>)
 800110a:	4a13      	ldr	r2, [pc, #76]	@ (8001158 <MX_I2C3_Init+0x54>)
 800110c:	601a      	str	r2, [r3, #0]
  hi2c3.Init.ClockSpeed = 400000;
 800110e:	4b11      	ldr	r3, [pc, #68]	@ (8001154 <MX_I2C3_Init+0x50>)
 8001110:	4a12      	ldr	r2, [pc, #72]	@ (800115c <MX_I2C3_Init+0x58>)
 8001112:	605a      	str	r2, [r3, #4]
  hi2c3.Init.DutyCycle = I2C_DUTYCYCLE_2;
 8001114:	4b0f      	ldr	r3, [pc, #60]	@ (8001154 <MX_I2C3_Init+0x50>)
 8001116:	2200      	movs	r2, #0
 8001118:	609a      	str	r2, [r3, #8]
  hi2c3.Init.OwnAddress1 = 0;
 800111a:	4b0e      	ldr	r3, [pc, #56]	@ (8001154 <MX_I2C3_Init+0x50>)
 800111c:	2200      	movs	r2, #0
 800111e:	60da      	str	r2, [r3, #12]
  hi2c3.Init.AddressingMode = I2C_ADDRESSINGMODE_7BIT;
 8001120:	4b0c      	ldr	r3, [pc, #48]	@ (8001154 <MX_I2C3_Init+0x50>)
 8001122:	f44f 4280 	mov.w	r2, #16384	@ 0x4000
 8001126:	611a      	str	r2, [r3, #16]
  hi2c3.Init.DualAddressMode = I2C_DUALADDRESS_DISABLE;
 8001128:	4b0a      	ldr	r3, [pc, #40]	@ (8001154 <MX_I2C3_Init+0x50>)
 800112a:	2200      	movs	r2, #0
 800112c:	615a      	str	r2, [r3, #20]
  hi2c3.Init.OwnAddress2 = 0;
 800112e:	4b09      	ldr	r3, [pc, #36]	@ (8001154 <MX_I2C3_Init+0x50>)
 8001130:	2200      	movs	r2, #0
 8001132:	619a      	str	r2, [r3, #24]
  hi2c3.Init.GeneralCallMode = I2C_GENERALCALL_DISABLE;
 8001134:	4b07      	ldr	r3, [pc, #28]	@ (8001154 <MX_I2C3_Init+0x50>)
 8001136:	2200      	movs	r2, #0
 8001138:	61da      	str	r2, [r3, #28]
  hi2c3.Init.NoStretchMode = I2C_NOSTRETCH_DISABLE;
 800113a:	4b06      	ldr	r3, [pc, #24]	@ (8001154 <MX_I2C3_Init+0x50>)
 800113c:	2200      	movs	r2, #0
 800113e:	621a      	str	r2, [r3, #32]
  if (HAL_I2C_Init(&hi2c3) != HAL_OK)
 8001140:	4804      	ldr	r0, [pc, #16]	@ (8001154 <MX_I2C3_Init+0x50>)
 8001142:	f001 fdf1 	bl	8002d28 <HAL_I2C_Init>
 8001146:	4603      	mov	r3, r0
 8001148:	2b00      	cmp	r3, #0
 800114a:	d001      	beq.n	8001150 <MX_I2C3_Init+0x4c>
  {
    Error_Handler();
 800114c:	f000 f965 	bl	800141a <Error_Handler>
  }
  /* USER CODE BEGIN I2C3_Init 2 */

  /* USER CODE END I2C3_Init 2 */

}
 8001150:	bf00      	nop
 8001152:	bd80      	pop	{r7, pc}
 8001154:	200000dc 	.word	0x200000dc
 8001158:	40005c00 	.word	0x40005c00
 800115c:	00061a80 	.word	0x00061a80

08001160 <MX_TIM4_Init>:
  * @brief TIM4 Initialization Function
  * @param None
  * @retval None
  */
static void MX_TIM4_Init(void)
{
 8001160:	b580      	push	{r7, lr}
 8001162:	b08e      	sub	sp, #56	@ 0x38
 8001164:	af00      	add	r7, sp, #0

  /* USER CODE BEGIN TIM4_Init 0 */

  /* USER CODE END TIM4_Init 0 */

  TIM_ClockConfigTypeDef sClockSourceConfig = {0};
 8001166:	f107 0328 	add.w	r3, r7, #40	@ 0x28
 800116a:	2200      	movs	r2, #0
 800116c:	601a      	str	r2, [r3, #0]
 800116e:	605a      	str	r2, [r3, #4]
 8001170:	609a      	str	r2, [r3, #8]
 8001172:	60da      	str	r2, [r3, #12]
  TIM_MasterConfigTypeDef sMasterConfig = {0};
 8001174:	f107 0320 	add.w	r3, r7, #32
 8001178:	2200      	movs	r2, #0
 800117a:	601a      	str	r2, [r3, #0]
 800117c:	605a      	str	r2, [r3, #4]
  TIM_OC_InitTypeDef sConfigOC = {0};
 800117e:	1d3b      	adds	r3, r7, #4
 8001180:	2200      	movs	r2, #0
 8001182:	601a      	str	r2, [r3, #0]
 8001184:	605a      	str	r2, [r3, #4]
 8001186:	609a      	str	r2, [r3, #8]
 8001188:	60da      	str	r2, [r3, #12]
 800118a:	611a      	str	r2, [r3, #16]
 800118c:	615a      	str	r2, [r3, #20]
 800118e:	619a      	str	r2, [r3, #24]

  /* USER CODE BEGIN TIM4_Init 1 */

  /* USER CODE END TIM4_Init 1 */
  htim4.Instance = TIM4;
 8001190:	4b2c      	ldr	r3, [pc, #176]	@ (8001244 <MX_TIM4_Init+0xe4>)
 8001192:	4a2d      	ldr	r2, [pc, #180]	@ (8001248 <MX_TIM4_Init+0xe8>)
 8001194:	601a      	str	r2, [r3, #0]
  htim4.Init.Prescaler = 204;
 8001196:	4b2b      	ldr	r3, [pc, #172]	@ (8001244 <MX_TIM4_Init+0xe4>)
 8001198:	22cc      	movs	r2, #204	@ 0xcc
 800119a:	605a      	str	r2, [r3, #4]
  htim4.Init.CounterMode = TIM_COUNTERMODE_UP;
 800119c:	4b29      	ldr	r3, [pc, #164]	@ (8001244 <MX_TIM4_Init+0xe4>)
 800119e:	2200      	movs	r2, #0
 80011a0:	609a      	str	r2, [r3, #8]
  htim4.Init.Period = 4095;
 80011a2:	4b28      	ldr	r3, [pc, #160]	@ (8001244 <MX_TIM4_Init+0xe4>)
 80011a4:	f640 72ff 	movw	r2, #4095	@ 0xfff
 80011a8:	60da      	str	r2, [r3, #12]
  htim4.Init.ClockDivision = TIM_CLOCKDIVISION_DIV1;
 80011aa:	4b26      	ldr	r3, [pc, #152]	@ (8001244 <MX_TIM4_Init+0xe4>)
 80011ac:	2200      	movs	r2, #0
 80011ae:	611a      	str	r2, [r3, #16]
  htim4.Init.AutoReloadPreload = TIM_AUTORELOAD_PRELOAD_DISABLE;
 80011b0:	4b24      	ldr	r3, [pc, #144]	@ (8001244 <MX_TIM4_Init+0xe4>)
 80011b2:	2200      	movs	r2, #0
 80011b4:	619a      	str	r2, [r3, #24]
  if (HAL_TIM_Base_Init(&htim4) != HAL_OK)
 80011b6:	4823      	ldr	r0, [pc, #140]	@ (8001244 <MX_TIM4_Init+0xe4>)
 80011b8:	f002 fb52 	bl	8003860 <HAL_TIM_Base_Init>
 80011bc:	4603      	mov	r3, r0
 80011be:	2b00      	cmp	r3, #0
 80011c0:	d001      	beq.n	80011c6 <MX_TIM4_Init+0x66>
  {
    Error_Handler();
 80011c2:	f000 f92a 	bl	800141a <Error_Handler>
  }
  sClockSourceConfig.ClockSource = TIM_CLOCKSOURCE_INTERNAL;
 80011c6:	f44f 5380 	mov.w	r3, #4096	@ 0x1000
 80011ca:	62bb      	str	r3, [r7, #40]	@ 0x28
  if (HAL_TIM_ConfigClockSource(&htim4, &sClockSourceConfig) != HAL_OK)
 80011cc:	f107 0328 	add.w	r3, r7, #40	@ 0x28
 80011d0:	4619      	mov	r1, r3
 80011d2:	481c      	ldr	r0, [pc, #112]	@ (8001244 <MX_TIM4_Init+0xe4>)
 80011d4:	f002 fcae 	bl	8003b34 <HAL_TIM_ConfigClockSource>
 80011d8:	4603      	mov	r3, r0
 80011da:	2b00      	cmp	r3, #0
 80011dc:	d001      	beq.n	80011e2 <MX_TIM4_Init+0x82>
  {
    Error_Handler();
 80011de:	f000 f91c 	bl	800141a <Error_Handler>
  }
  if (HAL_TIM_PWM_Init(&htim4) != HAL_OK)
 80011e2:	4818      	ldr	r0, [pc, #96]	@ (8001244 <MX_TIM4_Init+0xe4>)
 80011e4:	f002 fb8b 	bl	80038fe <HAL_TIM_PWM_Init>
 80011e8:	4603      	mov	r3, r0
 80011ea:	2b00      	cmp	r3, #0
 80011ec:	d001      	beq.n	80011f2 <MX_TIM4_Init+0x92>
  {
    Error_Handler();
 80011ee:	f000 f914 	bl	800141a <Error_Handler>
  }
  sMasterConfig.MasterOutputTrigger = TIM_TRGO_RESET;
 80011f2:	2300      	movs	r3, #0
 80011f4:	623b      	str	r3, [r7, #32]
  sMasterConfig.MasterSlaveMode = TIM_MASTERSLAVEMODE_DISABLE;
 80011f6:	2300      	movs	r3, #0
 80011f8:	627b      	str	r3, [r7, #36]	@ 0x24
  if (HAL_TIMEx_MasterConfigSynchronization(&htim4, &sMasterConfig) != HAL_OK)
 80011fa:	f107 0320 	add.w	r3, r7, #32
 80011fe:	4619      	mov	r1, r3
 8001200:	4810      	ldr	r0, [pc, #64]	@ (8001244 <MX_TIM4_Init+0xe4>)
 8001202:	f003 f855 	bl	80042b0 <HAL_TIMEx_MasterConfigSynchronization>
 8001206:	4603      	mov	r3, r0
 8001208:	2b00      	cmp	r3, #0
 800120a:	d001      	beq.n	8001210 <MX_TIM4_Init+0xb0>
  {
    Error_Handler();
 800120c:	f000 f905 	bl	800141a <Error_Handler>
  }
  sConfigOC.OCMode = TIM_OCMODE_PWM1;
 8001210:	2360      	movs	r3, #96	@ 0x60
 8001212:	607b      	str	r3, [r7, #4]
  sConfigOC.Pulse = 0;
 8001214:	2300      	movs	r3, #0
 8001216:	60bb      	str	r3, [r7, #8]
  sConfigOC.OCPolarity = TIM_OCPOLARITY_HIGH;
 8001218:	2300      	movs	r3, #0
 800121a:	60fb      	str	r3, [r7, #12]
  sConfigOC.OCFastMode = TIM_OCFAST_DISABLE;
 800121c:	2300      	movs	r3, #0
 800121e:	617b      	str	r3, [r7, #20]
  if (HAL_TIM_PWM_ConfigChannel(&htim4, &sConfigOC, TIM_CHANNEL_1) != HAL_OK)
 8001220:	1d3b      	adds	r3, r7, #4
 8001222:	2200      	movs	r2, #0
 8001224:	4619      	mov	r1, r3
 8001226:	4807      	ldr	r0, [pc, #28]	@ (8001244 <MX_TIM4_Init+0xe4>)
 8001228:	f002 fbc2 	bl	80039b0 <HAL_TIM_PWM_ConfigChannel>
 800122c:	4603      	mov	r3, r0
 800122e:	2b00      	cmp	r3, #0
 8001230:	d001      	beq.n	8001236 <MX_TIM4_Init+0xd6>
  {
    Error_Handler();
 8001232:	f000 f8f2 	bl	800141a <Error_Handler>
  }
  /* USER CODE BEGIN TIM4_Init 2 */

  /* USER CODE END TIM4_Init 2 */
  HAL_TIM_MspPostInit(&htim4);
 8001236:	4803      	ldr	r0, [pc, #12]	@ (8001244 <MX_TIM4_Init+0xe4>)
 8001238:	f000 f9ee 	bl	8001618 <HAL_TIM_MspPostInit>

}
 800123c:	bf00      	nop
 800123e:	3738      	adds	r7, #56	@ 0x38
 8001240:	46bd      	mov	sp, r7
 8001242:	bd80      	pop	{r7, pc}
 8001244:	20000130 	.word	0x20000130
 8001248:	40000800 	.word	0x40000800

0800124c <MX_GPIO_Init>:
  * @brief GPIO Initialization Function
  * @param None
  * @retval None
  */
static void MX_GPIO_Init(void)
{
 800124c:	b580      	push	{r7, lr}
 800124e:	b08a      	sub	sp, #40	@ 0x28
 8001250:	af00      	add	r7, sp, #0
  GPIO_InitTypeDef GPIO_InitStruct = {0};
 8001252:	f107 0314 	add.w	r3, r7, #20
 8001256:	2200      	movs	r2, #0
 8001258:	601a      	str	r2, [r3, #0]
 800125a:	605a      	str	r2, [r3, #4]
 800125c:	609a      	str	r2, [r3, #8]
 800125e:	60da      	str	r2, [r3, #12]
 8001260:	611a      	str	r2, [r3, #16]
/* USER CODE BEGIN MX_GPIO_Init_1 */
/* USER CODE END MX_GPIO_Init_1 */

  /* GPIO Ports Clock Enable */
  __HAL_RCC_GPIOC_CLK_ENABLE();
 8001262:	2300      	movs	r3, #0
 8001264:	613b      	str	r3, [r7, #16]
 8001266:	4b62      	ldr	r3, [pc, #392]	@ (80013f0 <MX_GPIO_Init+0x1a4>)
 8001268:	6b1b      	ldr	r3, [r3, #48]	@ 0x30
 800126a:	4a61      	ldr	r2, [pc, #388]	@ (80013f0 <MX_GPIO_Init+0x1a4>)
 800126c:	f043 0304 	orr.w	r3, r3, #4
 8001270:	6313      	str	r3, [r2, #48]	@ 0x30
 8001272:	4b5f      	ldr	r3, [pc, #380]	@ (80013f0 <MX_GPIO_Init+0x1a4>)
 8001274:	6b1b      	ldr	r3, [r3, #48]	@ 0x30
 8001276:	f003 0304 	and.w	r3, r3, #4
 800127a:	613b      	str	r3, [r7, #16]
 800127c:	693b      	ldr	r3, [r7, #16]
  __HAL_RCC_GPIOA_CLK_ENABLE();
 800127e:	2300      	movs	r3, #0
 8001280:	60fb      	str	r3, [r7, #12]
 8001282:	4b5b      	ldr	r3, [pc, #364]	@ (80013f0 <MX_GPIO_Init+0x1a4>)
 8001284:	6b1b      	ldr	r3, [r3, #48]	@ 0x30
 8001286:	4a5a      	ldr	r2, [pc, #360]	@ (80013f0 <MX_GPIO_Init+0x1a4>)
 8001288:	f043 0301 	orr.w	r3, r3, #1
 800128c:	6313      	str	r3, [r2, #48]	@ 0x30
 800128e:	4b58      	ldr	r3, [pc, #352]	@ (80013f0 <MX_GPIO_Init+0x1a4>)
 8001290:	6b1b      	ldr	r3, [r3, #48]	@ 0x30
 8001292:	f003 0301 	and.w	r3, r3, #1
 8001296:	60fb      	str	r3, [r7, #12]
 8001298:	68fb      	ldr	r3, [r7, #12]
  __HAL_RCC_GPIOE_CLK_ENABLE();
 800129a:	2300      	movs	r3, #0
 800129c:	60bb      	str	r3, [r7, #8]
 800129e:	4b54      	ldr	r3, [pc, #336]	@ (80013f0 <MX_GPIO_Init+0x1a4>)
 80012a0:	6b1b      	ldr	r3, [r3, #48]	@ 0x30
 80012a2:	4a53      	ldr	r2, [pc, #332]	@ (80013f0 <MX_GPIO_Init+0x1a4>)
 80012a4:	f043 0310 	orr.w	r3, r3, #16
 80012a8:	6313      	str	r3, [r2, #48]	@ 0x30
 80012aa:	4b51      	ldr	r3, [pc, #324]	@ (80013f0 <MX_GPIO_Init+0x1a4>)
 80012ac:	6b1b      	ldr	r3, [r3, #48]	@ 0x30
 80012ae:	f003 0310 	and.w	r3, r3, #16
 80012b2:	60bb      	str	r3, [r7, #8]
 80012b4:	68bb      	ldr	r3, [r7, #8]
  __HAL_RCC_GPIOB_CLK_ENABLE();
 80012b6:	2300      	movs	r3, #0
 80012b8:	607b      	str	r3, [r7, #4]
 80012ba:	4b4d      	ldr	r3, [pc, #308]	@ (80013f0 <MX_GPIO_Init+0x1a4>)
 80012bc:	6b1b      	ldr	r3, [r3, #48]	@ 0x30
 80012be:	4a4c      	ldr	r2, [pc, #304]	@ (80013f0 <MX_GPIO_Init+0x1a4>)
 80012c0:	f043 0302 	orr.w	r3, r3, #2
 80012c4:	6313      	str	r3, [r2, #48]	@ 0x30
 80012c6:	4b4a      	ldr	r3, [pc, #296]	@ (80013f0 <MX_GPIO_Init+0x1a4>)
 80012c8:	6b1b      	ldr	r3, [r3, #48]	@ 0x30
 80012ca:	f003 0302 	and.w	r3, r3, #2
 80012ce:	607b      	str	r3, [r7, #4]
 80012d0:	687b      	ldr	r3, [r7, #4]
  __HAL_RCC_GPIOD_CLK_ENABLE();
 80012d2:	2300      	movs	r3, #0
 80012d4:	603b      	str	r3, [r7, #0]
 80012d6:	4b46      	ldr	r3, [pc, #280]	@ (80013f0 <MX_GPIO_Init+0x1a4>)
 80012d8:	6b1b      	ldr	r3, [r3, #48]	@ 0x30
 80012da:	4a45      	ldr	r2, [pc, #276]	@ (80013f0 <MX_GPIO_Init+0x1a4>)
 80012dc:	f043 0308 	orr.w	r3, r3, #8
 80012e0:	6313      	str	r3, [r2, #48]	@ 0x30
 80012e2:	4b43      	ldr	r3, [pc, #268]	@ (80013f0 <MX_GPIO_Init+0x1a4>)
 80012e4:	6b1b      	ldr	r3, [r3, #48]	@ 0x30
 80012e6:	f003 0308 	and.w	r3, r3, #8
 80012ea:	603b      	str	r3, [r7, #0]
 80012ec:	683b      	ldr	r3, [r7, #0]

  /*Configure GPIO pin Output Level */
  HAL_GPIO_WritePin(FA_LED0_GPIO_Port, FA_LED0_Pin, GPIO_PIN_RESET);
 80012ee:	2200      	movs	r2, #0
 80012f0:	2102      	movs	r1, #2
 80012f2:	4840      	ldr	r0, [pc, #256]	@ (80013f4 <MX_GPIO_Init+0x1a8>)
 80012f4:	f001 fce6 	bl	8002cc4 <HAL_GPIO_WritePin>

  /*Configure GPIO pin Output Level */
  HAL_GPIO_WritePin(GPIOA, FA_LED1_Pin|FA_LED2_Pin, GPIO_PIN_RESET);
 80012f8:	2200      	movs	r2, #0
 80012fa:	2121      	movs	r1, #33	@ 0x21
 80012fc:	483e      	ldr	r0, [pc, #248]	@ (80013f8 <MX_GPIO_Init+0x1ac>)
 80012fe:	f001 fce1 	bl	8002cc4 <HAL_GPIO_WritePin>

  /*Configure GPIO pin Output Level */
  HAL_GPIO_WritePin(GPIOE, FA_Data7_Pin|FA_Data6_Pin|FA_Data5_Pin|FA_EN_Pin
 8001302:	2200      	movs	r2, #0
 8001304:	f64a 3180 	movw	r1, #43904	@ 0xab80
 8001308:	483c      	ldr	r0, [pc, #240]	@ (80013fc <MX_GPIO_Init+0x1b0>)
 800130a:	f001 fcdb 	bl	8002cc4 <HAL_GPIO_WritePin>
                          |FA_RS_Pin|FA_Data4_Pin, GPIO_PIN_RESET);

  /*Configure GPIO pin Output Level */
  HAL_GPIO_WritePin(FA_LED3_GPIO_Port, FA_LED3_Pin, GPIO_PIN_RESET);
 800130e:	2200      	movs	r2, #0
 8001310:	f44f 6100 	mov.w	r1, #2048	@ 0x800
 8001314:	483a      	ldr	r0, [pc, #232]	@ (8001400 <MX_GPIO_Init+0x1b4>)
 8001316:	f001 fcd5 	bl	8002cc4 <HAL_GPIO_WritePin>

  /*Configure GPIO pin : FA_LED0_Pin */
  GPIO_InitStruct.Pin = FA_LED0_Pin;
 800131a:	2302      	movs	r3, #2
 800131c:	617b      	str	r3, [r7, #20]
  GPIO_InitStruct.Mode = GPIO_MODE_OUTPUT_PP;
 800131e:	2301      	movs	r3, #1
 8001320:	61bb      	str	r3, [r7, #24]
  GPIO_InitStruct.Pull = GPIO_NOPULL;
 8001322:	2300      	movs	r3, #0
 8001324:	61fb      	str	r3, [r7, #28]
  GPIO_InitStruct.Speed = GPIO_SPEED_FREQ_LOW;
 8001326:	2300      	movs	r3, #0
 8001328:	623b      	str	r3, [r7, #32]
  HAL_GPIO_Init(FA_LED0_GPIO_Port, &GPIO_InitStruct);
 800132a:	f107 0314 	add.w	r3, r7, #20
 800132e:	4619      	mov	r1, r3
 8001330:	4830      	ldr	r0, [pc, #192]	@ (80013f4 <MX_GPIO_Init+0x1a8>)
 8001332:	f001 fb2b 	bl	800298c <HAL_GPIO_Init>

  /*Configure GPIO pin : FA_BP_Pin */
  GPIO_InitStruct.Pin = FA_BP_Pin;
 8001336:	2308      	movs	r3, #8
 8001338:	617b      	str	r3, [r7, #20]
  GPIO_InitStruct.Mode = GPIO_MODE_INPUT;
 800133a:	2300      	movs	r3, #0
 800133c:	61bb      	str	r3, [r7, #24]
  GPIO_InitStruct.Pull = GPIO_NOPULL;
 800133e:	2300      	movs	r3, #0
 8001340:	61fb      	str	r3, [r7, #28]
  HAL_GPIO_Init(FA_BP_GPIO_Port, &GPIO_InitStruct);
 8001342:	f107 0314 	add.w	r3, r7, #20
 8001346:	4619      	mov	r1, r3
 8001348:	482a      	ldr	r0, [pc, #168]	@ (80013f4 <MX_GPIO_Init+0x1a8>)
 800134a:	f001 fb1f 	bl	800298c <HAL_GPIO_Init>

  /*Configure GPIO pins : FA_LED1_Pin FA_LED2_Pin */
  GPIO_InitStruct.Pin = FA_LED1_Pin|FA_LED2_Pin;
 800134e:	2321      	movs	r3, #33	@ 0x21
 8001350:	617b      	str	r3, [r7, #20]
  GPIO_InitStruct.Mode = GPIO_MODE_OUTPUT_PP;
 8001352:	2301      	movs	r3, #1
 8001354:	61bb      	str	r3, [r7, #24]
  GPIO_InitStruct.Pull = GPIO_NOPULL;
 8001356:	2300      	movs	r3, #0
 8001358:	61fb      	str	r3, [r7, #28]
  GPIO_InitStruct.Speed = GPIO_SPEED_FREQ_LOW;
 800135a:	2300      	movs	r3, #0
 800135c:	623b      	str	r3, [r7, #32]
  HAL_GPIO_Init(GPIOA, &GPIO_InitStruct);
 800135e:	f107 0314 	add.w	r3, r7, #20
 8001362:	4619      	mov	r1, r3
 8001364:	4824      	ldr	r0, [pc, #144]	@ (80013f8 <MX_GPIO_Init+0x1ac>)
 8001366:	f001 fb11 	bl	800298c <HAL_GPIO_Init>

  /*Configure GPIO pins : FA_Cbit3_Pin FA_Cbit1_Pin FA_Cbit0_Pin FA_Cbit2_Pin */
  GPIO_InitStruct.Pin = FA_Cbit3_Pin|FA_Cbit1_Pin|FA_Cbit0_Pin|FA_Cbit2_Pin;
 800136a:	235a      	movs	r3, #90	@ 0x5a
 800136c:	617b      	str	r3, [r7, #20]
  GPIO_InitStruct.Mode = GPIO_MODE_INPUT;
 800136e:	2300      	movs	r3, #0
 8001370:	61bb      	str	r3, [r7, #24]
  GPIO_InitStruct.Pull = GPIO_NOPULL;
 8001372:	2300      	movs	r3, #0
 8001374:	61fb      	str	r3, [r7, #28]
  HAL_GPIO_Init(GPIOA, &GPIO_InitStruct);
 8001376:	f107 0314 	add.w	r3, r7, #20
 800137a:	4619      	mov	r1, r3
 800137c:	481e      	ldr	r0, [pc, #120]	@ (80013f8 <MX_GPIO_Init+0x1ac>)
 800137e:	f001 fb05 	bl	800298c <HAL_GPIO_Init>

  /*Configure GPIO pin : FA_CbitInterrupt_Pin */
  GPIO_InitStruct.Pin = FA_CbitInterrupt_Pin;
 8001382:	2304      	movs	r3, #4
 8001384:	617b      	str	r3, [r7, #20]
  GPIO_InitStruct.Mode = GPIO_MODE_IT_RISING;
 8001386:	f44f 1388 	mov.w	r3, #1114112	@ 0x110000
 800138a:	61bb      	str	r3, [r7, #24]
  GPIO_InitStruct.Pull = GPIO_NOPULL;
 800138c:	2300      	movs	r3, #0
 800138e:	61fb      	str	r3, [r7, #28]
  HAL_GPIO_Init(FA_CbitInterrupt_GPIO_Port, &GPIO_InitStruct);
 8001390:	f107 0314 	add.w	r3, r7, #20
 8001394:	4619      	mov	r1, r3
 8001396:	4818      	ldr	r0, [pc, #96]	@ (80013f8 <MX_GPIO_Init+0x1ac>)
 8001398:	f001 faf8 	bl	800298c <HAL_GPIO_Init>

  /*Configure GPIO pins : FA_Data7_Pin FA_Data6_Pin FA_Data5_Pin FA_EN_Pin
                           FA_RS_Pin FA_Data4_Pin */
  GPIO_InitStruct.Pin = FA_Data7_Pin|FA_Data6_Pin|FA_Data5_Pin|FA_EN_Pin
 800139c:	f64a 3380 	movw	r3, #43904	@ 0xab80
 80013a0:	617b      	str	r3, [r7, #20]
                          |FA_RS_Pin|FA_Data4_Pin;
  GPIO_InitStruct.Mode = GPIO_MODE_OUTPUT_PP;
 80013a2:	2301      	movs	r3, #1
 80013a4:	61bb      	str	r3, [r7, #24]
  GPIO_InitStruct.Pull = GPIO_NOPULL;
 80013a6:	2300      	movs	r3, #0
 80013a8:	61fb      	str	r3, [r7, #28]
  GPIO_InitStruct.Speed = GPIO_SPEED_FREQ_LOW;
 80013aa:	2300      	movs	r3, #0
 80013ac:	623b      	str	r3, [r7, #32]
  HAL_GPIO_Init(GPIOE, &GPIO_InitStruct);
 80013ae:	f107 0314 	add.w	r3, r7, #20
 80013b2:	4619      	mov	r1, r3
 80013b4:	4811      	ldr	r0, [pc, #68]	@ (80013fc <MX_GPIO_Init+0x1b0>)
 80013b6:	f001 fae9 	bl	800298c <HAL_GPIO_Init>

  /*Configure GPIO pin : FA_LED3_Pin */
  GPIO_InitStruct.Pin = FA_LED3_Pin;
 80013ba:	f44f 6300 	mov.w	r3, #2048	@ 0x800
 80013be:	617b      	str	r3, [r7, #20]
  GPIO_InitStruct.Mode = GPIO_MODE_OUTPUT_PP;
 80013c0:	2301      	movs	r3, #1
 80013c2:	61bb      	str	r3, [r7, #24]
  GPIO_InitStruct.Pull = GPIO_NOPULL;
 80013c4:	2300      	movs	r3, #0
 80013c6:	61fb      	str	r3, [r7, #28]
  GPIO_InitStruct.Speed = GPIO_SPEED_FREQ_LOW;
 80013c8:	2300      	movs	r3, #0
 80013ca:	623b      	str	r3, [r7, #32]
  HAL_GPIO_Init(FA_LED3_GPIO_Port, &GPIO_InitStruct);
 80013cc:	f107 0314 	add.w	r3, r7, #20
 80013d0:	4619      	mov	r1, r3
 80013d2:	480b      	ldr	r0, [pc, #44]	@ (8001400 <MX_GPIO_Init+0x1b4>)
 80013d4:	f001 fada 	bl	800298c <HAL_GPIO_Init>

  /* EXTI interrupt init*/
  HAL_NVIC_SetPriority(EXTI2_IRQn, 0, 0);
 80013d8:	2200      	movs	r2, #0
 80013da:	2100      	movs	r1, #0
 80013dc:	2008      	movs	r0, #8
 80013de:	f001 fa0c 	bl	80027fa <HAL_NVIC_SetPriority>
  HAL_NVIC_EnableIRQ(EXTI2_IRQn);
 80013e2:	2008      	movs	r0, #8
 80013e4:	f001 fa25 	bl	8002832 <HAL_NVIC_EnableIRQ>

/* USER CODE BEGIN MX_GPIO_Init_2 */
/* USER CODE END MX_GPIO_Init_2 */
}
 80013e8:	bf00      	nop
 80013ea:	3728      	adds	r7, #40	@ 0x28
 80013ec:	46bd      	mov	sp, r7
 80013ee:	bd80      	pop	{r7, pc}
 80013f0:	40023800 	.word	0x40023800
 80013f4:	40020800 	.word	0x40020800
 80013f8:	40020000 	.word	0x40020000
 80013fc:	40021000 	.word	0x40021000
 8001400:	40020400 	.word	0x40020400

08001404 <HAL_GPIO_EXTI_Callback>:

/* USER CODE BEGIN 4 */

void HAL_GPIO_EXTI_Callback(uint16_t GPIO_Pin) {
 8001404:	b480      	push	{r7}
 8001406:	b083      	sub	sp, #12
 8001408:	af00      	add	r7, sp, #0
 800140a:	4603      	mov	r3, r0
 800140c:	80fb      	strh	r3, [r7, #6]

}
 800140e:	bf00      	nop
 8001410:	370c      	adds	r7, #12
 8001412:	46bd      	mov	sp, r7
 8001414:	f85d 7b04 	ldr.w	r7, [sp], #4
 8001418:	4770      	bx	lr

0800141a <Error_Handler>:
/**
  * @brief  This function is executed in case of error occurrence.
  * @retval None
  */
void Error_Handler(void)
{
 800141a:	b480      	push	{r7}
 800141c:	af00      	add	r7, sp, #0
  \details Disables IRQ interrupts by setting special-purpose register PRIMASK.
           Can only be executed in Privileged modes.
 */
__STATIC_FORCEINLINE void __disable_irq(void)
{
  __ASM volatile ("cpsid i" : : : "memory");
 800141e:	b672      	cpsid	i
}
 8001420:	bf00      	nop
  /* USER CODE BEGIN Error_Handler_Debug */
  /* User can add his own implementation to report the HAL error return state */
  __disable_irq();
  while (1)
 8001422:	bf00      	nop
 8001424:	e7fd      	b.n	8001422 <Error_Handler+0x8>
	...

08001428 <HAL_MspInit>:
 8001428:	b480      	push	{r7}
 800142a:	b083      	sub	sp, #12
 800142c:	af00      	add	r7, sp, #0
 800142e:	2300      	movs	r3, #0
 8001430:	607b      	str	r3, [r7, #4]
 8001432:	4b10      	ldr	r3, [pc, #64]	@ (8001474 <HAL_MspInit+0x4c>)
 8001434:	6c5b      	ldr	r3, [r3, #68]	@ 0x44
 8001436:	4a0f      	ldr	r2, [pc, #60]	@ (8001474 <HAL_MspInit+0x4c>)
 8001438:	f443 4380 	orr.w	r3, r3, #16384	@ 0x4000
 800143c:	6453      	str	r3, [r2, #68]	@ 0x44
 800143e:	4b0d      	ldr	r3, [pc, #52]	@ (8001474 <HAL_MspInit+0x4c>)
 8001440:	6c5b      	ldr	r3, [r3, #68]	@ 0x44
 8001442:	f403 4380 	and.w	r3, r3, #16384	@ 0x4000
 8001446:	607b      	str	r3, [r7, #4]
 8001448:	687b      	ldr	r3, [r7, #4]
 800144a:	2300      	movs	r3, #0
 800144c:	603b      	str	r3, [r7, #0]
 800144e:	4b09      	ldr	r3, [pc, #36]	@ (8001474 <HAL_MspInit+0x4c>)
 8001450:	6c1b      	ldr	r3, [r3, #64]	@ 0x40
 8001452:	4a08      	ldr	r2, [pc, #32]	@ (8001474 <HAL_MspInit+0x4c>)
 8001454:	f043 5380 	orr.w	r3, r3, #268435456	@ 0x10000000
 8001458:	6413      	str	r3, [r2, #64]	@ 0x40
 800145a:	4b06      	ldr	r3, [pc, #24]	@ (8001474 <HAL_MspInit+0x4c>)
 800145c:	6c1b      	ldr	r3, [r3, #64]	@ 0x40
 800145e:	f003 5380 	and.w	r3, r3, #268435456	@ 0x10000000
 8001462:	603b      	str	r3, [r7, #0]
 8001464:	683b      	ldr	r3, [r7, #0]
 8001466:	bf00      	nop
 8001468:	370c      	adds	r7, #12
 800146a:	46bd      	mov	sp, r7
 800146c:	f85d 7b04 	ldr.w	r7, [sp], #4
 8001470:	4770      	bx	lr
 8001472:	bf00      	nop
 8001474:	40023800 	.word	0x40023800

08001478 <HAL_ADC_MspInit>:
 8001478:	b580      	push	{r7, lr}
 800147a:	b08a      	sub	sp, #40	@ 0x28
 800147c:	af00      	add	r7, sp, #0
 800147e:	6078      	str	r0, [r7, #4]
 8001480:	f107 0314 	add.w	r3, r7, #20
 8001484:	2200      	movs	r2, #0
 8001486:	601a      	str	r2, [r3, #0]
 8001488:	605a      	str	r2, [r3, #4]
 800148a:	609a      	str	r2, [r3, #8]
 800148c:	60da      	str	r2, [r3, #12]
 800148e:	611a      	str	r2, [r3, #16]
 8001490:	687b      	ldr	r3, [r7, #4]
 8001492:	681b      	ldr	r3, [r3, #0]
 8001494:	4a17      	ldr	r2, [pc, #92]	@ (80014f4 <HAL_ADC_MspInit+0x7c>)
 8001496:	4293      	cmp	r3, r2
 8001498:	d127      	bne.n	80014ea <HAL_ADC_MspInit+0x72>
 800149a:	2300      	movs	r3, #0
 800149c:	613b      	str	r3, [r7, #16]
 800149e:	4b16      	ldr	r3, [pc, #88]	@ (80014f8 <HAL_ADC_MspInit+0x80>)
 80014a0:	6c5b      	ldr	r3, [r3, #68]	@ 0x44
 80014a2:	4a15      	ldr	r2, [pc, #84]	@ (80014f8 <HAL_ADC_MspInit+0x80>)
 80014a4:	f443 7380 	orr.w	r3, r3, #256	@ 0x100
 80014a8:	6453      	str	r3, [r2, #68]	@ 0x44
 80014aa:	4b13      	ldr	r3, [pc, #76]	@ (80014f8 <HAL_ADC_MspInit+0x80>)
 80014ac:	6c5b      	ldr	r3, [r3, #68]	@ 0x44
 80014ae:	f403 7380 	and.w	r3, r3, #256	@ 0x100
 80014b2:	613b      	str	r3, [r7, #16]
 80014b4:	693b      	ldr	r3, [r7, #16]
 80014b6:	2300      	movs	r3, #0
 80014b8:	60fb      	str	r3, [r7, #12]
 80014ba:	4b0f      	ldr	r3, [pc, #60]	@ (80014f8 <HAL_ADC_MspInit+0x80>)
 80014bc:	6b1b      	ldr	r3, [r3, #48]	@ 0x30
 80014be:	4a0e      	ldr	r2, [pc, #56]	@ (80014f8 <HAL_ADC_MspInit+0x80>)
 80014c0:	f043 0304 	orr.w	r3, r3, #4
 80014c4:	6313      	str	r3, [r2, #48]	@ 0x30
 80014c6:	4b0c      	ldr	r3, [pc, #48]	@ (80014f8 <HAL_ADC_MspInit+0x80>)
 80014c8:	6b1b      	ldr	r3, [r3, #48]	@ 0x30
 80014ca:	f003 0304 	and.w	r3, r3, #4
 80014ce:	60fb      	str	r3, [r7, #12]
 80014d0:	68fb      	ldr	r3, [r7, #12]
 80014d2:	2305      	movs	r3, #5
 80014d4:	617b      	str	r3, [r7, #20]
 80014d6:	2303      	movs	r3, #3
 80014d8:	61bb      	str	r3, [r7, #24]
 80014da:	2300      	movs	r3, #0
 80014dc:	61fb      	str	r3, [r7, #28]
 80014de:	f107 0314 	add.w	r3, r7, #20
 80014e2:	4619      	mov	r1, r3
 80014e4:	4805      	ldr	r0, [pc, #20]	@ (80014fc <HAL_ADC_MspInit+0x84>)
 80014e6:	f001 fa51 	bl	800298c <HAL_GPIO_Init>
 80014ea:	bf00      	nop
 80014ec:	3728      	adds	r7, #40	@ 0x28
 80014ee:	46bd      	mov	sp, r7
 80014f0:	bd80      	pop	{r7, pc}
 80014f2:	bf00      	nop
 80014f4:	40012000 	.word	0x40012000
 80014f8:	40023800 	.word	0x40023800
 80014fc:	40020800 	.word	0x40020800

08001500 <HAL_I2C_MspInit>:
 8001500:	b580      	push	{r7, lr}
 8001502:	b08a      	sub	sp, #40	@ 0x28
 8001504:	af00      	add	r7, sp, #0
 8001506:	6078      	str	r0, [r7, #4]
 8001508:	f107 0314 	add.w	r3, r7, #20
 800150c:	2200      	movs	r2, #0
 800150e:	601a      	str	r2, [r3, #0]
 8001510:	605a      	str	r2, [r3, #4]
 8001512:	609a      	str	r2, [r3, #8]
 8001514:	60da      	str	r2, [r3, #12]
 8001516:	611a      	str	r2, [r3, #16]
 8001518:	687b      	ldr	r3, [r7, #4]
 800151a:	681b      	ldr	r3, [r3, #0]
 800151c:	4a29      	ldr	r2, [pc, #164]	@ (80015c4 <HAL_I2C_MspInit+0xc4>)
 800151e:	4293      	cmp	r3, r2
 8001520:	d14b      	bne.n	80015ba <HAL_I2C_MspInit+0xba>
 8001522:	2300      	movs	r3, #0
 8001524:	613b      	str	r3, [r7, #16]
 8001526:	4b28      	ldr	r3, [pc, #160]	@ (80015c8 <HAL_I2C_MspInit+0xc8>)
 8001528:	6b1b      	ldr	r3, [r3, #48]	@ 0x30
 800152a:	4a27      	ldr	r2, [pc, #156]	@ (80015c8 <HAL_I2C_MspInit+0xc8>)
 800152c:	f043 0304 	orr.w	r3, r3, #4
 8001530:	6313      	str	r3, [r2, #48]	@ 0x30
 8001532:	4b25      	ldr	r3, [pc, #148]	@ (80015c8 <HAL_I2C_MspInit+0xc8>)
 8001534:	6b1b      	ldr	r3, [r3, #48]	@ 0x30
 8001536:	f003 0304 	and.w	r3, r3, #4
 800153a:	613b      	str	r3, [r7, #16]
 800153c:	693b      	ldr	r3, [r7, #16]
 800153e:	2300      	movs	r3, #0
 8001540:	60fb      	str	r3, [r7, #12]
 8001542:	4b21      	ldr	r3, [pc, #132]	@ (80015c8 <HAL_I2C_MspInit+0xc8>)
 8001544:	6b1b      	ldr	r3, [r3, #48]	@ 0x30
 8001546:	4a20      	ldr	r2, [pc, #128]	@ (80015c8 <HAL_I2C_MspInit+0xc8>)
 8001548:	f043 0301 	orr.w	r3, r3, #1
 800154c:	6313      	str	r3, [r2, #48]	@ 0x30
 800154e:	4b1e      	ldr	r3, [pc, #120]	@ (80015c8 <HAL_I2C_MspInit+0xc8>)
 8001550:	6b1b      	ldr	r3, [r3, #48]	@ 0x30
 8001552:	f003 0301 	and.w	r3, r3, #1
 8001556:	60fb      	str	r3, [r7, #12]
 8001558:	68fb      	ldr	r3, [r7, #12]
 800155a:	f44f 7300 	mov.w	r3, #512	@ 0x200
 800155e:	617b      	str	r3, [r7, #20]
 8001560:	2312      	movs	r3, #18
 8001562:	61bb      	str	r3, [r7, #24]
 8001564:	2300      	movs	r3, #0
 8001566:	61fb      	str	r3, [r7, #28]
 8001568:	2303      	movs	r3, #3
 800156a:	623b      	str	r3, [r7, #32]
 800156c:	2304      	movs	r3, #4
 800156e:	627b      	str	r3, [r7, #36]	@ 0x24
 8001570:	f107 0314 	add.w	r3, r7, #20
 8001574:	4619      	mov	r1, r3
 8001576:	4815      	ldr	r0, [pc, #84]	@ (80015cc <HAL_I2C_MspInit+0xcc>)
 8001578:	f001 fa08 	bl	800298c <HAL_GPIO_Init>
 800157c:	f44f 7380 	mov.w	r3, #256	@ 0x100
 8001580:	617b      	str	r3, [r7, #20]
 8001582:	2312      	movs	r3, #18
 8001584:	61bb      	str	r3, [r7, #24]
 8001586:	2300      	movs	r3, #0
 8001588:	61fb      	str	r3, [r7, #28]
 800158a:	2303      	movs	r3, #3
 800158c:	623b      	str	r3, [r7, #32]
 800158e:	2304      	movs	r3, #4
 8001590:	627b      	str	r3, [r7, #36]	@ 0x24
 8001592:	f107 0314 	add.w	r3, r7, #20
 8001596:	4619      	mov	r1, r3
 8001598:	480d      	ldr	r0, [pc, #52]	@ (80015d0 <HAL_I2C_MspInit+0xd0>)
 800159a:	f001 f9f7 	bl	800298c <HAL_GPIO_Init>
 800159e:	2300      	movs	r3, #0
 80015a0:	60bb      	str	r3, [r7, #8]
 80015a2:	4b09      	ldr	r3, [pc, #36]	@ (80015c8 <HAL_I2C_MspInit+0xc8>)
 80015a4:	6c1b      	ldr	r3, [r3, #64]	@ 0x40
 80015a6:	4a08      	ldr	r2, [pc, #32]	@ (80015c8 <HAL_I2C_MspInit+0xc8>)
 80015a8:	f443 0300 	orr.w	r3, r3, #8388608	@ 0x800000
 80015ac:	6413      	str	r3, [r2, #64]	@ 0x40
 80015ae:	4b06      	ldr	r3, [pc, #24]	@ (80015c8 <HAL_I2C_MspInit+0xc8>)
 80015b0:	6c1b      	ldr	r3, [r3, #64]	@ 0x40
 80015b2:	f403 0300 	and.w	r3, r3, #8388608	@ 0x800000
 80015b6:	60bb      	str	r3, [r7, #8]
 80015b8:	68bb      	ldr	r3, [r7, #8]
 80015ba:	bf00      	nop
 80015bc:	3728      	adds	r7, #40	@ 0x28
 80015be:	46bd      	mov	sp, r7
 80015c0:	bd80      	pop	{r7, pc}
 80015c2:	bf00      	nop
 80015c4:	40005c00 	.word	0x40005c00
 80015c8:	40023800 	.word	0x40023800
 80015cc:	40020800 	.word	0x40020800
 80015d0:	40020000 	.word	0x40020000

080015d4 <HAL_TIM_Base_MspInit>:
 80015d4:	b480      	push	{r7}
 80015d6:	b085      	sub	sp, #20
 80015d8:	af00      	add	r7, sp, #0
 80015da:	6078      	str	r0, [r7, #4]
 80015dc:	687b      	ldr	r3, [r7, #4]
 80015de:	681b      	ldr	r3, [r3, #0]
 80015e0:	4a0b      	ldr	r2, [pc, #44]	@ (8001610 <HAL_TIM_Base_MspInit+0x3c>)
 80015e2:	4293      	cmp	r3, r2
 80015e4:	d10d      	bne.n	8001602 <HAL_TIM_Base_MspInit+0x2e>
 80015e6:	2300      	movs	r3, #0
 80015e8:	60fb      	str	r3, [r7, #12]
 80015ea:	4b0a      	ldr	r3, [pc, #40]	@ (8001614 <HAL_TIM_Base_MspInit+0x40>)
 80015ec:	6c1b      	ldr	r3, [r3, #64]	@ 0x40
 80015ee:	4a09      	ldr	r2, [pc, #36]	@ (8001614 <HAL_TIM_Base_MspInit+0x40>)
 80015f0:	f043 0304 	orr.w	r3, r3, #4
 80015f4:	6413      	str	r3, [r2, #64]	@ 0x40
 80015f6:	4b07      	ldr	r3, [pc, #28]	@ (8001614 <HAL_TIM_Base_MspInit+0x40>)
 80015f8:	6c1b      	ldr	r3, [r3, #64]	@ 0x40
 80015fa:	f003 0304 	and.w	r3, r3, #4
 80015fe:	60fb      	str	r3, [r7, #12]
 8001600:	68fb      	ldr	r3, [r7, #12]
 8001602:	bf00      	nop
 8001604:	3714      	adds	r7, #20
 8001606:	46bd      	mov	sp, r7
 8001608:	f85d 7b04 	ldr.w	r7, [sp], #4
 800160c:	4770      	bx	lr
 800160e:	bf00      	nop
 8001610:	40000800 	.word	0x40000800
 8001614:	40023800 	.word	0x40023800

08001618 <HAL_TIM_MspPostInit>:
 8001618:	b580      	push	{r7, lr}
 800161a:	b088      	sub	sp, #32
 800161c:	af00      	add	r7, sp, #0
 800161e:	6078      	str	r0, [r7, #4]
 8001620:	f107 030c 	add.w	r3, r7, #12
 8001624:	2200      	movs	r2, #0
 8001626:	601a      	str	r2, [r3, #0]
 8001628:	605a      	str	r2, [r3, #4]
 800162a:	609a      	str	r2, [r3, #8]
 800162c:	60da      	str	r2, [r3, #12]
 800162e:	611a      	str	r2, [r3, #16]
 8001630:	687b      	ldr	r3, [r7, #4]
 8001632:	681b      	ldr	r3, [r3, #0]
 8001634:	4a12      	ldr	r2, [pc, #72]	@ (8001680 <HAL_TIM_MspPostInit+0x68>)
 8001636:	4293      	cmp	r3, r2
 8001638:	d11e      	bne.n	8001678 <HAL_TIM_MspPostInit+0x60>
 800163a:	2300      	movs	r3, #0
 800163c:	60bb      	str	r3, [r7, #8]
 800163e:	4b11      	ldr	r3, [pc, #68]	@ (8001684 <HAL_TIM_MspPostInit+0x6c>)
 8001640:	6b1b      	ldr	r3, [r3, #48]	@ 0x30
 8001642:	4a10      	ldr	r2, [pc, #64]	@ (8001684 <HAL_TIM_MspPostInit+0x6c>)
 8001644:	f043 0308 	orr.w	r3, r3, #8
 8001648:	6313      	str	r3, [r2, #48]	@ 0x30
 800164a:	4b0e      	ldr	r3, [pc, #56]	@ (8001684 <HAL_TIM_MspPostInit+0x6c>)
 800164c:	6b1b      	ldr	r3, [r3, #48]	@ 0x30
 800164e:	f003 0308 	and.w	r3, r3, #8
 8001652:	60bb      	str	r3, [r7, #8]
 8001654:	68bb      	ldr	r3, [r7, #8]
 8001656:	f44f 5380 	mov.w	r3, #4096	@ 0x1000
 800165a:	60fb      	str	r3, [r7, #12]
 800165c:	2302      	movs	r3, #2
 800165e:	613b      	str	r3, [r7, #16]
 8001660:	2300      	movs	r3, #0
 8001662:	617b      	str	r3, [r7, #20]
 8001664:	2300      	movs	r3, #0
 8001666:	61bb      	str	r3, [r7, #24]
 8001668:	2302      	movs	r3, #2
 800166a:	61fb      	str	r3, [r7, #28]
 800166c:	f107 030c 	add.w	r3, r7, #12
 8001670:	4619      	mov	r1, r3
 8001672:	4805      	ldr	r0, [pc, #20]	@ (8001688 <HAL_TIM_MspPostInit+0x70>)
 8001674:	f001 f98a 	bl	800298c <HAL_GPIO_Init>
 8001678:	bf00      	nop
 800167a:	3720      	adds	r7, #32
 800167c:	46bd      	mov	sp, r7
 800167e:	bd80      	pop	{r7, pc}
 8001680:	40000800 	.word	0x40000800
 8001684:	40023800 	.word	0x40023800
 8001688:	40020c00 	.word	0x40020c00

0800168c <HAL_UART_MspInit>:
 800168c:	b580      	push	{r7, lr}
 800168e:	b08a      	sub	sp, #40	@ 0x28
 8001690:	af00      	add	r7, sp, #0
 8001692:	6078      	str	r0, [r7, #4]
 8001694:	f107 0314 	add.w	r3, r7, #20
 8001698:	2200      	movs	r2, #0
 800169a:	601a      	str	r2, [r3, #0]
 800169c:	605a      	str	r2, [r3, #4]
 800169e:	609a      	str	r2, [r3, #8]
 80016a0:	60da      	str	r2, [r3, #12]
 80016a2:	611a      	str	r2, [r3, #16]
 80016a4:	687b      	ldr	r3, [r7, #4]
 80016a6:	681b      	ldr	r3, [r3, #0]
 80016a8:	4a1d      	ldr	r2, [pc, #116]	@ (8001720 <HAL_UART_MspInit+0x94>)
 80016aa:	4293      	cmp	r3, r2
 80016ac:	d133      	bne.n	8001716 <HAL_UART_MspInit+0x8a>
 80016ae:	2300      	movs	r3, #0
 80016b0:	613b      	str	r3, [r7, #16]
 80016b2:	4b1c      	ldr	r3, [pc, #112]	@ (8001724 <HAL_UART_MspInit+0x98>)
 80016b4:	6c1b      	ldr	r3, [r3, #64]	@ 0x40
 80016b6:	4a1b      	ldr	r2, [pc, #108]	@ (8001724 <HAL_UART_MspInit+0x98>)
 80016b8:	f443 3300 	orr.w	r3, r3, #131072	@ 0x20000
 80016bc:	6413      	str	r3, [r2, #64]	@ 0x40
 80016be:	4b19      	ldr	r3, [pc, #100]	@ (8001724 <HAL_UART_MspInit+0x98>)
 80016c0:	6c1b      	ldr	r3, [r3, #64]	@ 0x40
 80016c2:	f403 3300 	and.w	r3, r3, #131072	@ 0x20000
 80016c6:	613b      	str	r3, [r7, #16]
 80016c8:	693b      	ldr	r3, [r7, #16]
 80016ca:	2300      	movs	r3, #0
 80016cc:	60fb      	str	r3, [r7, #12]
 80016ce:	4b15      	ldr	r3, [pc, #84]	@ (8001724 <HAL_UART_MspInit+0x98>)
 80016d0:	6b1b      	ldr	r3, [r3, #48]	@ 0x30
 80016d2:	4a14      	ldr	r2, [pc, #80]	@ (8001724 <HAL_UART_MspInit+0x98>)
 80016d4:	f043 0308 	orr.w	r3, r3, #8
 80016d8:	6313      	str	r3, [r2, #48]	@ 0x30
 80016da:	4b12      	ldr	r3, [pc, #72]	@ (8001724 <HAL_UART_MspInit+0x98>)
 80016dc:	6b1b      	ldr	r3, [r3, #48]	@ 0x30
 80016de:	f003 0308 	and.w	r3, r3, #8
 80016e2:	60fb      	str	r3, [r7, #12]
 80016e4:	68fb      	ldr	r3, [r7, #12]
 80016e6:	2360      	movs	r3, #96	@ 0x60
 80016e8:	617b      	str	r3, [r7, #20]
 80016ea:	2302      	movs	r3, #2
 80016ec:	61bb      	str	r3, [r7, #24]
 80016ee:	2300      	movs	r3, #0
 80016f0:	61fb      	str	r3, [r7, #28]
 80016f2:	2303      	movs	r3, #3
 80016f4:	623b      	str	r3, [r7, #32]
 80016f6:	2307      	movs	r3, #7
 80016f8:	627b      	str	r3, [r7, #36]	@ 0x24
 80016fa:	f107 0314 	add.w	r3, r7, #20
 80016fe:	4619      	mov	r1, r3
 8001700:	4809      	ldr	r0, [pc, #36]	@ (8001728 <HAL_UART_MspInit+0x9c>)
 8001702:	f001 f943 	bl	800298c <HAL_GPIO_Init>
 8001706:	2200      	movs	r2, #0
 8001708:	2100      	movs	r1, #0
 800170a:	2026      	movs	r0, #38	@ 0x26
 800170c:	f001 f875 	bl	80027fa <HAL_NVIC_SetPriority>
 8001710:	2026      	movs	r0, #38	@ 0x26
 8001712:	f001 f88e 	bl	8002832 <HAL_NVIC_EnableIRQ>
 8001716:	bf00      	nop
 8001718:	3728      	adds	r7, #40	@ 0x28
 800171a:	46bd      	mov	sp, r7
 800171c:	bd80      	pop	{r7, pc}
 800171e:	bf00      	nop
 8001720:	40004400 	.word	0x40004400
 8001724:	40023800 	.word	0x40023800
 8001728:	40020c00 	.word	0x40020c00

0800172c <NMI_Handler>:
 800172c:	b480      	push	{r7}
 800172e:	af00      	add	r7, sp, #0
 8001730:	bf00      	nop
 8001732:	e7fd      	b.n	8001730 <NMI_Handler+0x4>

08001734 <HardFault_Handler>:
 8001734:	b480      	push	{r7}
 8001736:	af00      	add	r7, sp, #0
 8001738:	bf00      	nop
 800173a:	e7fd      	b.n	8001738 <HardFault_Handler+0x4>

0800173c <MemManage_Handler>:
 800173c:	b480      	push	{r7}
 800173e:	af00      	add	r7, sp, #0
 8001740:	bf00      	nop
 8001742:	e7fd      	b.n	8001740 <MemManage_Handler+0x4>

08001744 <BusFault_Handler>:
 8001744:	b480      	push	{r7}
 8001746:	af00      	add	r7, sp, #0
 8001748:	bf00      	nop
 800174a:	e7fd      	b.n	8001748 <BusFault_Handler+0x4>

0800174c <UsageFault_Handler>:
 800174c:	b480      	push	{r7}
 800174e:	af00      	add	r7, sp, #0
 8001750:	bf00      	nop
 8001752:	e7fd      	b.n	8001750 <UsageFault_Handler+0x4>

08001754 <SVC_Handler>:
 8001754:	b480      	push	{r7}
 8001756:	af00      	add	r7, sp, #0
 8001758:	bf00      	nop
 800175a:	46bd      	mov	sp, r7
 800175c:	f85d 7b04 	ldr.w	r7, [sp], #4
 8001760:	4770      	bx	lr

08001762 <DebugMon_Handler>:
 8001762:	b480      	push	{r7}
 8001764:	af00      	add	r7, sp, #0
 8001766:	bf00      	nop
 8001768:	46bd      	mov	sp, r7
 800176a:	f85d 7b04 	ldr.w	r7, [sp], #4
 800176e:	4770      	bx	lr

08001770 <PendSV_Handler>:
 8001770:	b480      	push	{r7}
 8001772:	af00      	add	r7, sp, #0
 8001774:	bf00      	nop
 8001776:	46bd      	mov	sp, r7
 8001778:	f85d 7b04 	ldr.w	r7, [sp], #4
 800177c:	4770      	bx	lr

0800177e <SysTick_Handler>:
 800177e:	b580      	push	{r7, lr}
 8001780:	af00      	add	r7, sp, #0
 8001782:	f000 fcb9 	bl	80020f8 <HAL_IncTick>
 8001786:	bf00      	nop
 8001788:	bd80      	pop	{r7, pc}

0800178a <EXTI2_IRQHandler>:
 800178a:	b580      	push	{r7, lr}
 800178c:	af00      	add	r7, sp, #0
 800178e:	2004      	movs	r0, #4
 8001790:	f001 fab2 	bl	8002cf8 <HAL_GPIO_EXTI_IRQHandler>
 8001794:	bf00      	nop
 8001796:	bd80      	pop	{r7, pc}

08001798 <USART2_IRQHandler>:
 8001798:	b580      	push	{r7, lr}
 800179a:	af00      	add	r7, sp, #0
 800179c:	4802      	ldr	r0, [pc, #8]	@ (80017a8 <USART2_IRQHandler+0x10>)
 800179e:	f002 ff9b 	bl	80046d8 <HAL_UART_IRQHandler>
 80017a2:	bf00      	nop
 80017a4:	bd80      	pop	{r7, pc}
 80017a6:	bf00      	nop
 80017a8:	20000188 	.word	0x20000188

080017ac <_sbrk>:
 80017ac:	b580      	push	{r7, lr}
 80017ae:	b086      	sub	sp, #24
 80017b0:	af00      	add	r7, sp, #0
 80017b2:	6078      	str	r0, [r7, #4]
 80017b4:	4a14      	ldr	r2, [pc, #80]	@ (8001808 <_sbrk+0x5c>)
 80017b6:	4b15      	ldr	r3, [pc, #84]	@ (800180c <_sbrk+0x60>)
 80017b8:	1ad3      	subs	r3, r2, r3
 80017ba:	617b      	str	r3, [r7, #20]
 80017bc:	697b      	ldr	r3, [r7, #20]
 80017be:	613b      	str	r3, [r7, #16]
 80017c0:	4b13      	ldr	r3, [pc, #76]	@ (8001810 <_sbrk+0x64>)
 80017c2:	681b      	ldr	r3, [r3, #0]
 80017c4:	2b00      	cmp	r3, #0
 80017c6:	d102      	bne.n	80017ce <_sbrk+0x22>
 80017c8:	4b11      	ldr	r3, [pc, #68]	@ (8001810 <_sbrk+0x64>)
 80017ca:	4a12      	ldr	r2, [pc, #72]	@ (8001814 <_sbrk+0x68>)
 80017cc:	601a      	str	r2, [r3, #0]
 80017ce:	4b10      	ldr	r3, [pc, #64]	@ (8001810 <_sbrk+0x64>)
 80017d0:	681a      	ldr	r2, [r3, #0]
 80017d2:	687b      	ldr	r3, [r7, #4]
 80017d4:	4413      	add	r3, r2
 80017d6:	693a      	ldr	r2, [r7, #16]
 80017d8:	429a      	cmp	r2, r3
 80017da:	d207      	bcs.n	80017ec <_sbrk+0x40>
 80017dc:	f003 fefa 	bl	80055d4 <__errno>
 80017e0:	4603      	mov	r3, r0
 80017e2:	220c      	movs	r2, #12
 80017e4:	601a      	str	r2, [r3, #0]
 80017e6:	f04f 33ff 	mov.w	r3, #4294967295
 80017ea:	e009      	b.n	8001800 <_sbrk+0x54>
 80017ec:	4b08      	ldr	r3, [pc, #32]	@ (8001810 <_sbrk+0x64>)
 80017ee:	681b      	ldr	r3, [r3, #0]
 80017f0:	60fb      	str	r3, [r7, #12]
 80017f2:	4b07      	ldr	r3, [pc, #28]	@ (8001810 <_sbrk+0x64>)
 80017f4:	681a      	ldr	r2, [r3, #0]
 80017f6:	687b      	ldr	r3, [r7, #4]
 80017f8:	4413      	add	r3, r2
 80017fa:	4a05      	ldr	r2, [pc, #20]	@ (8001810 <_sbrk+0x64>)
 80017fc:	6013      	str	r3, [r2, #0]
 80017fe:	68fb      	ldr	r3, [r7, #12]
 8001800:	4618      	mov	r0, r3
 8001802:	3718      	adds	r7, #24
 8001804:	46bd      	mov	sp, r7
 8001806:	bd80      	pop	{r7, pc}
 8001808:	20020000 	.word	0x20020000
 800180c:	00000400 	.word	0x00000400
 8001810:	20000178 	.word	0x20000178
 8001814:	20000380 	.word	0x20000380

08001818 <SystemInit>:
 8001818:	b480      	push	{r7}
 800181a:	af00      	add	r7, sp, #0
 800181c:	4b06      	ldr	r3, [pc, #24]	@ (8001838 <SystemInit+0x20>)
 800181e:	f8d3 3088 	ldr.w	r3, [r3, #136]	@ 0x88
 8001822:	4a05      	ldr	r2, [pc, #20]	@ (8001838 <SystemInit+0x20>)
 8001824:	f443 0370 	orr.w	r3, r3, #15728640	@ 0xf00000
 8001828:	f8c2 3088 	str.w	r3, [r2, #136]	@ 0x88
 800182c:	bf00      	nop
 800182e:	46bd      	mov	sp, r7
 8001830:	f85d 7b04 	ldr.w	r7, [sp], #4
 8001834:	4770      	bx	lr
 8001836:	bf00      	nop
 8001838:	e000ed00 	.word	0xe000ed00

0800183c <Reset_Handler>:
 800183c:	f8df d034 	ldr.w	sp, [pc, #52]	@ 8001874 <LoopFillZerobss+0xe>
 8001840:	f7ff ffea 	bl	8001818 <SystemInit>
 8001844:	480c      	ldr	r0, [pc, #48]	@ (8001878 <LoopFillZerobss+0x12>)
 8001846:	490d      	ldr	r1, [pc, #52]	@ (800187c <LoopFillZerobss+0x16>)
 8001848:	4a0d      	ldr	r2, [pc, #52]	@ (8001880 <LoopFillZerobss+0x1a>)
 800184a:	2300      	movs	r3, #0
 800184c:	e002      	b.n	8001854 <LoopCopyDataInit>

0800184e <CopyDataInit>:
 800184e:	58d4      	ldr	r4, [r2, r3]
 8001850:	50c4      	str	r4, [r0, r3]
 8001852:	3304      	adds	r3, #4

08001854 <LoopCopyDataInit>:
 8001854:	18c4      	adds	r4, r0, r3
 8001856:	428c      	cmp	r4, r1
 8001858:	d3f9      	bcc.n	800184e <CopyDataInit>
 800185a:	4a0a      	ldr	r2, [pc, #40]	@ (8001884 <LoopFillZerobss+0x1e>)
 800185c:	4c0a      	ldr	r4, [pc, #40]	@ (8001888 <LoopFillZerobss+0x22>)
 800185e:	2300      	movs	r3, #0
 8001860:	e001      	b.n	8001866 <LoopFillZerobss>

08001862 <FillZerobss>:
 8001862:	6013      	str	r3, [r2, #0]
 8001864:	3204      	adds	r2, #4

08001866 <LoopFillZerobss>:
 8001866:	42a2      	cmp	r2, r4
 8001868:	d3fb      	bcc.n	8001862 <FillZerobss>
 800186a:	f003 feb9 	bl	80055e0 <__libc_init_array>
 800186e:	f7ff fa75 	bl	8000d5c <main>
 8001872:	4770      	bx	lr
 8001874:	20020000 	.word	0x20020000
 8001878:	20000000 	.word	0x20000000
 800187c:	20000074 	.word	0x20000074
 8001880:	08005f64 	.word	0x08005f64
 8001884:	20000078 	.word	0x20000078
 8001888:	20000380 	.word	0x20000380

0800188c <ADC_IRQHandler>:
 800188c:	e7fe      	b.n	800188c <ADC_IRQHandler>
	...

08001890 <IMU_initialize>:
void Decode_IMU_Data(uint8_t IMU_Raw_Data_Buffer[11]);
void GyroOffset_Init(void);
void Imu_Error_Handler(void);

// Fonctions
void IMU_initialize(uint32_t Baudrate) {
 8001890:	b580      	push	{r7, lr}
 8001892:	b08a      	sub	sp, #40	@ 0x28
 8001894:	af00      	add	r7, sp, #0
 8001896:	6078      	str	r0, [r7, #4]

    GPIO_InitTypeDef GPIO_InitStruct = {0};
 8001898:	f107 0314 	add.w	r3, r7, #20
 800189c:	2200      	movs	r2, #0
 800189e:	601a      	str	r2, [r3, #0]
 80018a0:	605a      	str	r2, [r3, #4]
 80018a2:	609a      	str	r2, [r3, #8]
 80018a4:	60da      	str	r2, [r3, #12]
 80018a6:	611a      	str	r2, [r3, #16]

    // Enable clocks
    __HAL_RCC_USART2_CLK_ENABLE();
 80018a8:	2300      	movs	r3, #0
 80018aa:	60fb      	str	r3, [r7, #12]
 80018ac:	4b27      	ldr	r3, [pc, #156]	@ (800194c <IMU_initialize+0xbc>)
 80018ae:	6c1b      	ldr	r3, [r3, #64]	@ 0x40
 80018b0:	4a26      	ldr	r2, [pc, #152]	@ (800194c <IMU_initialize+0xbc>)
 80018b2:	f443 3300 	orr.w	r3, r3, #131072	@ 0x20000
 80018b6:	6413      	str	r3, [r2, #64]	@ 0x40
 80018b8:	4b24      	ldr	r3, [pc, #144]	@ (800194c <IMU_initialize+0xbc>)
 80018ba:	6c1b      	ldr	r3, [r3, #64]	@ 0x40
 80018bc:	f403 3300 	and.w	r3, r3, #131072	@ 0x20000
 80018c0:	60fb      	str	r3, [r7, #12]
 80018c2:	68fb      	ldr	r3, [r7, #12]
    __HAL_RCC_GPIOD_CLK_ENABLE();
 80018c4:	2300      	movs	r3, #0
 80018c6:	60bb      	str	r3, [r7, #8]
 80018c8:	4b20      	ldr	r3, [pc, #128]	@ (800194c <IMU_initialize+0xbc>)
 80018ca:	6b1b      	ldr	r3, [r3, #48]	@ 0x30
 80018cc:	4a1f      	ldr	r2, [pc, #124]	@ (800194c <IMU_initialize+0xbc>)
 80018ce:	f043 0308 	orr.w	r3, r3, #8
 80018d2:	6313      	str	r3, [r2, #48]	@ 0x30
 80018d4:	4b1d      	ldr	r3, [pc, #116]	@ (800194c <IMU_initialize+0xbc>)
 80018d6:	6b1b      	ldr	r3, [r3, #48]	@ 0x30
 80018d8:	f003 0308 	and.w	r3, r3, #8
 80018dc:	60bb      	str	r3, [r7, #8]
 80018de:	68bb      	ldr	r3, [r7, #8]
    GPIO_InitStruct.Speed = GPIO_SPEED_FREQ_VERY_HIGH;
    GPIO_InitStruct.Alternate = GPIO_AF7_USART2;
    HAL_GPIO_Init(GPIOD, &GPIO_InitStruct);*/

    // Configure USART2
    huart2.Instance = USART2;
 80018e0:	4b1b      	ldr	r3, [pc, #108]	@ (8001950 <IMU_initialize+0xc0>)
 80018e2:	4a1c      	ldr	r2, [pc, #112]	@ (8001954 <IMU_initialize+0xc4>)
 80018e4:	601a      	str	r2, [r3, #0]
    huart2.Init.BaudRate = Baudrate;
 80018e6:	4a1a      	ldr	r2, [pc, #104]	@ (8001950 <IMU_initialize+0xc0>)
 80018e8:	687b      	ldr	r3, [r7, #4]
 80018ea:	6053      	str	r3, [r2, #4]
    huart2.Init.WordLength = UART_WORDLENGTH_8B;
 80018ec:	4b18      	ldr	r3, [pc, #96]	@ (8001950 <IMU_initialize+0xc0>)
 80018ee:	2200      	movs	r2, #0
 80018f0:	609a      	str	r2, [r3, #8]
    huart2.Init.StopBits = UART_STOPBITS_1;
 80018f2:	4b17      	ldr	r3, [pc, #92]	@ (8001950 <IMU_initialize+0xc0>)
 80018f4:	2200      	movs	r2, #0
 80018f6:	60da      	str	r2, [r3, #12]
    huart2.Init.Parity = UART_PARITY_NONE;
 80018f8:	4b15      	ldr	r3, [pc, #84]	@ (8001950 <IMU_initialize+0xc0>)
 80018fa:	2200      	movs	r2, #0
 80018fc:	611a      	str	r2, [r3, #16]
    huart2.Init.Mode = UART_MODE_TX_RX;
 80018fe:	4b14      	ldr	r3, [pc, #80]	@ (8001950 <IMU_initialize+0xc0>)
 8001900:	220c      	movs	r2, #12
 8001902:	615a      	str	r2, [r3, #20]
    huart2.Init.HwFlowCtl = UART_HWCONTROL_NONE;
 8001904:	4b12      	ldr	r3, [pc, #72]	@ (8001950 <IMU_initialize+0xc0>)
 8001906:	2200      	movs	r2, #0
 8001908:	619a      	str	r2, [r3, #24]
    huart2.Init.OverSampling = UART_OVERSAMPLING_16;
 800190a:	4b11      	ldr	r3, [pc, #68]	@ (8001950 <IMU_initialize+0xc0>)
 800190c:	2200      	movs	r2, #0
 800190e:	61da      	str	r2, [r3, #28]

    if (HAL_UART_Init(&huart2) != HAL_OK) {
 8001910:	480f      	ldr	r0, [pc, #60]	@ (8001950 <IMU_initialize+0xc0>)
 8001912:	f002 fd49 	bl	80043a8 <HAL_UART_Init>
 8001916:	4603      	mov	r3, r0
 8001918:	2b00      	cmp	r3, #0
 800191a:	d001      	beq.n	8001920 <IMU_initialize+0x90>
        // Initialization Error
        Imu_Error_Handler();
 800191c:	f000 fa2c 	bl	8001d78 <Imu_Error_Handler>
    // Configure NVIC for USART
    //HAL_NVIC_SetPriority(USART2_IRQn, 0, 1);
    //HAL_NVIC_EnableIRQ(USART2_IRQn);

    // Send initial commands to IMU
    char gyro_reset[3] = {0xFF, 0xAA, 0x52}; // Angle initialization Z-axis to zero
 8001920:	4a0d      	ldr	r2, [pc, #52]	@ (8001958 <IMU_initialize+0xc8>)
 8001922:	f107 0310 	add.w	r3, r7, #16
 8001926:	6812      	ldr	r2, [r2, #0]
 8001928:	4611      	mov	r1, r2
 800192a:	8019      	strh	r1, [r3, #0]
 800192c:	3302      	adds	r3, #2
 800192e:	0c12      	lsrs	r2, r2, #16
 8001930:	701a      	strb	r2, [r3, #0]

    HAL_UART_Transmit(&huart2, (uint8_t *)gyro_reset, sizeof(gyro_reset), HAL_MAX_DELAY);
 8001932:	f107 0110 	add.w	r1, r7, #16
 8001936:	f04f 33ff 	mov.w	r3, #4294967295
 800193a:	2203      	movs	r2, #3
 800193c:	4804      	ldr	r0, [pc, #16]	@ (8001950 <IMU_initialize+0xc0>)
 800193e:	f002 fd83 	bl	8004448 <HAL_UART_Transmit>

}
 8001942:	bf00      	nop
 8001944:	3728      	adds	r7, #40	@ 0x28
 8001946:	46bd      	mov	sp, r7
 8001948:	bd80      	pop	{r7, pc}
 800194a:	bf00      	nop
 800194c:	40023800 	.word	0x40023800
 8001950:	20000188 	.word	0x20000188
 8001954:	40004400 	.word	0x40004400
 8001958:	08005efc 	.word	0x08005efc

0800195c <HAL_UART_RxCpltCallback>:

void HAL_UART_RxCpltCallback(UART_HandleTypeDef *huart) {
 800195c:	b580      	push	{r7, lr}
 800195e:	b082      	sub	sp, #8
 8001960:	af00      	add	r7, sp, #0
 8001962:	6078      	str	r0, [r7, #4]
	HAL_GPIO_WritePin(GPIOA, GPIO_PIN_0, GPIO_PIN_SET);
 8001964:	2201      	movs	r2, #1
 8001966:	2101      	movs	r1, #1
 8001968:	481b      	ldr	r0, [pc, #108]	@ (80019d8 <HAL_UART_RxCpltCallback+0x7c>)
 800196a:	f001 f9ab 	bl	8002cc4 <HAL_GPIO_WritePin>

	if(huart->Instance == USART2) {
 800196e:	687b      	ldr	r3, [r7, #4]
 8001970:	681b      	ldr	r3, [r3, #0]
 8001972:	4a1a      	ldr	r2, [pc, #104]	@ (80019dc <HAL_UART_RxCpltCallback+0x80>)
 8001974:	4293      	cmp	r3, r2
 8001976:	d12c      	bne.n	80019d2 <HAL_UART_RxCpltCallback+0x76>
        IMU_Raw_Data_Buffer[IMU_Data_Buffer_counter] = (char)(huart->Instance->DR & (uint8_t)0x00FF);
 8001978:	687b      	ldr	r3, [r7, #4]
 800197a:	681b      	ldr	r3, [r3, #0]
 800197c:	6859      	ldr	r1, [r3, #4]
 800197e:	4b18      	ldr	r3, [pc, #96]	@ (80019e0 <HAL_UART_RxCpltCallback+0x84>)
 8001980:	781b      	ldrb	r3, [r3, #0]
 8001982:	461a      	mov	r2, r3
 8001984:	b2c9      	uxtb	r1, r1
 8001986:	4b17      	ldr	r3, [pc, #92]	@ (80019e4 <HAL_UART_RxCpltCallback+0x88>)
 8001988:	5499      	strb	r1, [r3, r2]

        if(IMU_Data_Buffer_counter == 0 && IMU_Raw_Data_Buffer[0] != 0x55) return;
 800198a:	4b15      	ldr	r3, [pc, #84]	@ (80019e0 <HAL_UART_RxCpltCallback+0x84>)
 800198c:	781b      	ldrb	r3, [r3, #0]
 800198e:	2b00      	cmp	r3, #0
 8001990:	d103      	bne.n	800199a <HAL_UART_RxCpltCallback+0x3e>
 8001992:	4b14      	ldr	r3, [pc, #80]	@ (80019e4 <HAL_UART_RxCpltCallback+0x88>)
 8001994:	781b      	ldrb	r3, [r3, #0]
 8001996:	2b55      	cmp	r3, #85	@ 0x55
 8001998:	d11a      	bne.n	80019d0 <HAL_UART_RxCpltCallback+0x74>

        IMU_Data_Buffer_counter++;
 800199a:	4b11      	ldr	r3, [pc, #68]	@ (80019e0 <HAL_UART_RxCpltCallback+0x84>)
 800199c:	781b      	ldrb	r3, [r3, #0]
 800199e:	3301      	adds	r3, #1
 80019a0:	b2da      	uxtb	r2, r3
 80019a2:	4b0f      	ldr	r3, [pc, #60]	@ (80019e0 <HAL_UART_RxCpltCallback+0x84>)
 80019a4:	701a      	strb	r2, [r3, #0]

        if(IMU_Data_Buffer_counter == 11) {
 80019a6:	4b0e      	ldr	r3, [pc, #56]	@ (80019e0 <HAL_UART_RxCpltCallback+0x84>)
 80019a8:	781b      	ldrb	r3, [r3, #0]
 80019aa:	2b0b      	cmp	r3, #11
 80019ac:	d105      	bne.n	80019ba <HAL_UART_RxCpltCallback+0x5e>
            IMU_Data_Buffer_counter = 0;
 80019ae:	4b0c      	ldr	r3, [pc, #48]	@ (80019e0 <HAL_UART_RxCpltCallback+0x84>)
 80019b0:	2200      	movs	r2, #0
 80019b2:	701a      	strb	r2, [r3, #0]
            Decode_IMU_Data(IMU_Raw_Data_Buffer);
 80019b4:	480b      	ldr	r0, [pc, #44]	@ (80019e4 <HAL_UART_RxCpltCallback+0x88>)
 80019b6:	f000 f819 	bl	80019ec <Decode_IMU_Data>
        }

        // Enable reception again
        HAL_UART_Receive_IT(&huart2, (uint8_t*)&IMU_Raw_Data_Buffer[IMU_Data_Buffer_counter], 1);
 80019ba:	4b09      	ldr	r3, [pc, #36]	@ (80019e0 <HAL_UART_RxCpltCallback+0x84>)
 80019bc:	781b      	ldrb	r3, [r3, #0]
 80019be:	461a      	mov	r2, r3
 80019c0:	4b08      	ldr	r3, [pc, #32]	@ (80019e4 <HAL_UART_RxCpltCallback+0x88>)
 80019c2:	4413      	add	r3, r2
 80019c4:	2201      	movs	r2, #1
 80019c6:	4619      	mov	r1, r3
 80019c8:	4807      	ldr	r0, [pc, #28]	@ (80019e8 <HAL_UART_RxCpltCallback+0x8c>)
 80019ca:	f002 fe5f 	bl	800468c <HAL_UART_Receive_IT>
 80019ce:	e000      	b.n	80019d2 <HAL_UART_RxCpltCallback+0x76>
        if(IMU_Data_Buffer_counter == 0 && IMU_Raw_Data_Buffer[0] != 0x55) return;
 80019d0:	bf00      	nop
    }
}
 80019d2:	3708      	adds	r7, #8
 80019d4:	46bd      	mov	sp, r7
 80019d6:	bd80      	pop	{r7, pc}
 80019d8:	40020000 	.word	0x40020000
 80019dc:	40004400 	.word	0x40004400
 80019e0:	20000187 	.word	0x20000187
 80019e4:	2000017c 	.word	0x2000017c
 80019e8:	20000188 	.word	0x20000188

080019ec <Decode_IMU_Data>:

void Decode_IMU_Data(uint8_t IMU_Raw_Data_Buffer[11]) {
 80019ec:	e92d 4fb0 	stmdb	sp!, {r4, r5, r7, r8, r9, sl, fp, lr}
 80019f0:	b088      	sub	sp, #32
 80019f2:	af00      	add	r7, sp, #0
 80019f4:	6078      	str	r0, [r7, #4]
    if(IMU_Raw_Data_Buffer[0] == 0x55) {
 80019f6:	687b      	ldr	r3, [r7, #4]
 80019f8:	781b      	ldrb	r3, [r3, #0]
 80019fa:	2b55      	cmp	r3, #85	@ 0x55
 80019fc:	f040 81a3 	bne.w	8001d46 <Decode_IMU_Data+0x35a>
        int16_t temp_a[3] = {0, 0, 0};
 8001a00:	2300      	movs	r3, #0
 8001a02:	833b      	strh	r3, [r7, #24]
 8001a04:	2300      	movs	r3, #0
 8001a06:	837b      	strh	r3, [r7, #26]
 8001a08:	2300      	movs	r3, #0
 8001a0a:	83bb      	strh	r3, [r7, #28]
        int16_t temp_w[3] = {0, 0, 0};
 8001a0c:	2300      	movs	r3, #0
 8001a0e:	823b      	strh	r3, [r7, #16]
 8001a10:	2300      	movs	r3, #0
 8001a12:	827b      	strh	r3, [r7, #18]
 8001a14:	2300      	movs	r3, #0
 8001a16:	82bb      	strh	r3, [r7, #20]
        int16_t temp_angle[3] = {0, 0, 0};
 8001a18:	2300      	movs	r3, #0
 8001a1a:	813b      	strh	r3, [r7, #8]
 8001a1c:	2300      	movs	r3, #0
 8001a1e:	817b      	strh	r3, [r7, #10]
 8001a20:	2300      	movs	r3, #0
 8001a22:	81bb      	strh	r3, [r7, #12]

        switch(IMU_Raw_Data_Buffer[1]) {
 8001a24:	687b      	ldr	r3, [r7, #4]
 8001a26:	3301      	adds	r3, #1
 8001a28:	781b      	ldrb	r3, [r3, #0]
 8001a2a:	2b53      	cmp	r3, #83	@ 0x53
 8001a2c:	f000 8109 	beq.w	8001c42 <Decode_IMU_Data+0x256>
 8001a30:	2b53      	cmp	r3, #83	@ 0x53
 8001a32:	f300 8188 	bgt.w	8001d46 <Decode_IMU_Data+0x35a>
 8001a36:	2b51      	cmp	r3, #81	@ 0x51
 8001a38:	d002      	beq.n	8001a40 <Decode_IMU_Data+0x54>
 8001a3a:	2b52      	cmp	r3, #82	@ 0x52
 8001a3c:	d06d      	beq.n	8001b1a <Decode_IMU_Data+0x12e>
                angle[1] = -(((double)temp_angle[1]) * 180.0 / 32768.0) + 90.0;
                angle[2] = -(((double)temp_angle[2]) * 180.0 / 32768.0) + 90.0;
                break;
        }
    }
}
 8001a3e:	e182      	b.n	8001d46 <Decode_IMU_Data+0x35a>
                temp_a[0] = ((int16_t)IMU_Raw_Data_Buffer[3] << 8) | (int16_t)IMU_Raw_Data_Buffer[2];
 8001a40:	687b      	ldr	r3, [r7, #4]
 8001a42:	3303      	adds	r3, #3
 8001a44:	781b      	ldrb	r3, [r3, #0]
 8001a46:	021b      	lsls	r3, r3, #8
 8001a48:	b21a      	sxth	r2, r3
 8001a4a:	687b      	ldr	r3, [r7, #4]
 8001a4c:	3302      	adds	r3, #2
 8001a4e:	781b      	ldrb	r3, [r3, #0]
 8001a50:	b21b      	sxth	r3, r3
 8001a52:	4313      	orrs	r3, r2
 8001a54:	b21b      	sxth	r3, r3
 8001a56:	833b      	strh	r3, [r7, #24]
                temp_a[1] = ((int16_t)IMU_Raw_Data_Buffer[5] << 8) | (int16_t)IMU_Raw_Data_Buffer[4];
 8001a58:	687b      	ldr	r3, [r7, #4]
 8001a5a:	3305      	adds	r3, #5
 8001a5c:	781b      	ldrb	r3, [r3, #0]
 8001a5e:	021b      	lsls	r3, r3, #8
 8001a60:	b21a      	sxth	r2, r3
 8001a62:	687b      	ldr	r3, [r7, #4]
 8001a64:	3304      	adds	r3, #4
 8001a66:	781b      	ldrb	r3, [r3, #0]
 8001a68:	b21b      	sxth	r3, r3
 8001a6a:	4313      	orrs	r3, r2
 8001a6c:	b21b      	sxth	r3, r3
 8001a6e:	837b      	strh	r3, [r7, #26]
                temp_a[2] = ((int16_t)IMU_Raw_Data_Buffer[7] << 8) | (int16_t)IMU_Raw_Data_Buffer[6];
 8001a70:	687b      	ldr	r3, [r7, #4]
 8001a72:	3307      	adds	r3, #7
 8001a74:	781b      	ldrb	r3, [r3, #0]
 8001a76:	021b      	lsls	r3, r3, #8
 8001a78:	b21a      	sxth	r2, r3
 8001a7a:	687b      	ldr	r3, [r7, #4]
 8001a7c:	3306      	adds	r3, #6
 8001a7e:	781b      	ldrb	r3, [r3, #0]
 8001a80:	b21b      	sxth	r3, r3
 8001a82:	4313      	orrs	r3, r2
 8001a84:	b21b      	sxth	r3, r3
 8001a86:	83bb      	strh	r3, [r7, #28]
                acc[0] = ((double)temp_a[0]) * 16 / 32768.0;
 8001a88:	f9b7 3018 	ldrsh.w	r3, [r7, #24]
 8001a8c:	4618      	mov	r0, r3
 8001a8e:	f7fe fd49 	bl	8000524 <__aeabi_i2d>
 8001a92:	f04f 0200 	mov.w	r2, #0
 8001a96:	4bae      	ldr	r3, [pc, #696]	@ (8001d50 <Decode_IMU_Data+0x364>)
 8001a98:	f7fe fdae 	bl	80005f8 <__aeabi_dmul>
 8001a9c:	4602      	mov	r2, r0
 8001a9e:	460b      	mov	r3, r1
 8001aa0:	4610      	mov	r0, r2
 8001aa2:	4619      	mov	r1, r3
 8001aa4:	f04f 0200 	mov.w	r2, #0
 8001aa8:	4baa      	ldr	r3, [pc, #680]	@ (8001d54 <Decode_IMU_Data+0x368>)
 8001aaa:	f7fe fecf 	bl	800084c <__aeabi_ddiv>
 8001aae:	4602      	mov	r2, r0
 8001ab0:	460b      	mov	r3, r1
 8001ab2:	49a9      	ldr	r1, [pc, #676]	@ (8001d58 <Decode_IMU_Data+0x36c>)
 8001ab4:	e9c1 2300 	strd	r2, r3, [r1]
                acc[1] = ((double)temp_a[1]) * 16 / 32768.0;
 8001ab8:	f9b7 301a 	ldrsh.w	r3, [r7, #26]
 8001abc:	4618      	mov	r0, r3
 8001abe:	f7fe fd31 	bl	8000524 <__aeabi_i2d>
 8001ac2:	f04f 0200 	mov.w	r2, #0
 8001ac6:	4ba2      	ldr	r3, [pc, #648]	@ (8001d50 <Decode_IMU_Data+0x364>)
 8001ac8:	f7fe fd96 	bl	80005f8 <__aeabi_dmul>
 8001acc:	4602      	mov	r2, r0
 8001ace:	460b      	mov	r3, r1
 8001ad0:	4610      	mov	r0, r2
 8001ad2:	4619      	mov	r1, r3
 8001ad4:	f04f 0200 	mov.w	r2, #0
 8001ad8:	4b9e      	ldr	r3, [pc, #632]	@ (8001d54 <Decode_IMU_Data+0x368>)
 8001ada:	f7fe feb7 	bl	800084c <__aeabi_ddiv>
 8001ade:	4602      	mov	r2, r0
 8001ae0:	460b      	mov	r3, r1
 8001ae2:	499d      	ldr	r1, [pc, #628]	@ (8001d58 <Decode_IMU_Data+0x36c>)
 8001ae4:	e9c1 2302 	strd	r2, r3, [r1, #8]
                acc[2] = ((double)temp_a[2]) * 16 / 32768.0;
 8001ae8:	f9b7 301c 	ldrsh.w	r3, [r7, #28]
 8001aec:	4618      	mov	r0, r3
 8001aee:	f7fe fd19 	bl	8000524 <__aeabi_i2d>
 8001af2:	f04f 0200 	mov.w	r2, #0
 8001af6:	4b96      	ldr	r3, [pc, #600]	@ (8001d50 <Decode_IMU_Data+0x364>)
 8001af8:	f7fe fd7e 	bl	80005f8 <__aeabi_dmul>
 8001afc:	4602      	mov	r2, r0
 8001afe:	460b      	mov	r3, r1
 8001b00:	4610      	mov	r0, r2
 8001b02:	4619      	mov	r1, r3
 8001b04:	f04f 0200 	mov.w	r2, #0
 8001b08:	4b92      	ldr	r3, [pc, #584]	@ (8001d54 <Decode_IMU_Data+0x368>)
 8001b0a:	f7fe fe9f 	bl	800084c <__aeabi_ddiv>
 8001b0e:	4602      	mov	r2, r0
 8001b10:	460b      	mov	r3, r1
 8001b12:	4991      	ldr	r1, [pc, #580]	@ (8001d58 <Decode_IMU_Data+0x36c>)
 8001b14:	e9c1 2304 	strd	r2, r3, [r1, #16]
                break;
 8001b18:	e115      	b.n	8001d46 <Decode_IMU_Data+0x35a>
                temp_w[0] = ((int16_t)IMU_Raw_Data_Buffer[3] << 8) | (int16_t)IMU_Raw_Data_Buffer[2];
 8001b1a:	687b      	ldr	r3, [r7, #4]
 8001b1c:	3303      	adds	r3, #3
 8001b1e:	781b      	ldrb	r3, [r3, #0]
 8001b20:	021b      	lsls	r3, r3, #8
 8001b22:	b21a      	sxth	r2, r3
 8001b24:	687b      	ldr	r3, [r7, #4]
 8001b26:	3302      	adds	r3, #2
 8001b28:	781b      	ldrb	r3, [r3, #0]
 8001b2a:	b21b      	sxth	r3, r3
 8001b2c:	4313      	orrs	r3, r2
 8001b2e:	b21b      	sxth	r3, r3
 8001b30:	823b      	strh	r3, [r7, #16]
                temp_w[1] = ((int16_t)IMU_Raw_Data_Buffer[5] << 8) | (int16_t)IMU_Raw_Data_Buffer[4];
 8001b32:	687b      	ldr	r3, [r7, #4]
 8001b34:	3305      	adds	r3, #5
 8001b36:	781b      	ldrb	r3, [r3, #0]
 8001b38:	021b      	lsls	r3, r3, #8
 8001b3a:	b21a      	sxth	r2, r3
 8001b3c:	687b      	ldr	r3, [r7, #4]
 8001b3e:	3304      	adds	r3, #4
 8001b40:	781b      	ldrb	r3, [r3, #0]
 8001b42:	b21b      	sxth	r3, r3
 8001b44:	4313      	orrs	r3, r2
 8001b46:	b21b      	sxth	r3, r3
 8001b48:	827b      	strh	r3, [r7, #18]
                temp_w[2] = ((int16_t)IMU_Raw_Data_Buffer[7] << 8) | (int16_t)IMU_Raw_Data_Buffer[6];
 8001b4a:	687b      	ldr	r3, [r7, #4]
 8001b4c:	3307      	adds	r3, #7
 8001b4e:	781b      	ldrb	r3, [r3, #0]
 8001b50:	021b      	lsls	r3, r3, #8
 8001b52:	b21a      	sxth	r2, r3
 8001b54:	687b      	ldr	r3, [r7, #4]
 8001b56:	3306      	adds	r3, #6
 8001b58:	781b      	ldrb	r3, [r3, #0]
 8001b5a:	b21b      	sxth	r3, r3
 8001b5c:	4313      	orrs	r3, r2
 8001b5e:	b21b      	sxth	r3, r3
 8001b60:	82bb      	strh	r3, [r7, #20]
                gyro[0] = -(((double)temp_w[0]) * 2000.0 / 32768.0) - gyro_offset[0];
 8001b62:	f9b7 3010 	ldrsh.w	r3, [r7, #16]
 8001b66:	4618      	mov	r0, r3
 8001b68:	f7fe fcdc 	bl	8000524 <__aeabi_i2d>
 8001b6c:	f04f 0200 	mov.w	r2, #0
 8001b70:	4b7a      	ldr	r3, [pc, #488]	@ (8001d5c <Decode_IMU_Data+0x370>)
 8001b72:	f7fe fd41 	bl	80005f8 <__aeabi_dmul>
 8001b76:	4602      	mov	r2, r0
 8001b78:	460b      	mov	r3, r1
 8001b7a:	4610      	mov	r0, r2
 8001b7c:	4619      	mov	r1, r3
 8001b7e:	f04f 0200 	mov.w	r2, #0
 8001b82:	4b74      	ldr	r3, [pc, #464]	@ (8001d54 <Decode_IMU_Data+0x368>)
 8001b84:	f7fe fe62 	bl	800084c <__aeabi_ddiv>
 8001b88:	4602      	mov	r2, r0
 8001b8a:	460b      	mov	r3, r1
 8001b8c:	4692      	mov	sl, r2
 8001b8e:	f083 4b00 	eor.w	fp, r3, #2147483648	@ 0x80000000
 8001b92:	4b73      	ldr	r3, [pc, #460]	@ (8001d60 <Decode_IMU_Data+0x374>)
 8001b94:	e9d3 2300 	ldrd	r2, r3, [r3]
 8001b98:	4650      	mov	r0, sl
 8001b9a:	4659      	mov	r1, fp
 8001b9c:	f7fe fb74 	bl	8000288 <__aeabi_dsub>
 8001ba0:	4602      	mov	r2, r0
 8001ba2:	460b      	mov	r3, r1
 8001ba4:	496f      	ldr	r1, [pc, #444]	@ (8001d64 <Decode_IMU_Data+0x378>)
 8001ba6:	e9c1 2300 	strd	r2, r3, [r1]
                gyro[1] = -(((double)temp_w[1]) * 2000.0 / 32768.0) - gyro_offset[1];
 8001baa:	f9b7 3012 	ldrsh.w	r3, [r7, #18]
 8001bae:	4618      	mov	r0, r3
 8001bb0:	f7fe fcb8 	bl	8000524 <__aeabi_i2d>
 8001bb4:	f04f 0200 	mov.w	r2, #0
 8001bb8:	4b68      	ldr	r3, [pc, #416]	@ (8001d5c <Decode_IMU_Data+0x370>)
 8001bba:	f7fe fd1d 	bl	80005f8 <__aeabi_dmul>
 8001bbe:	4602      	mov	r2, r0
 8001bc0:	460b      	mov	r3, r1
 8001bc2:	4610      	mov	r0, r2
 8001bc4:	4619      	mov	r1, r3
 8001bc6:	f04f 0200 	mov.w	r2, #0
 8001bca:	4b62      	ldr	r3, [pc, #392]	@ (8001d54 <Decode_IMU_Data+0x368>)
 8001bcc:	f7fe fe3e 	bl	800084c <__aeabi_ddiv>
 8001bd0:	4602      	mov	r2, r0
 8001bd2:	460b      	mov	r3, r1
 8001bd4:	4690      	mov	r8, r2
 8001bd6:	f083 4900 	eor.w	r9, r3, #2147483648	@ 0x80000000
 8001bda:	4b61      	ldr	r3, [pc, #388]	@ (8001d60 <Decode_IMU_Data+0x374>)
 8001bdc:	e9d3 2302 	ldrd	r2, r3, [r3, #8]
 8001be0:	4640      	mov	r0, r8
 8001be2:	4649      	mov	r1, r9
 8001be4:	f7fe fb50 	bl	8000288 <__aeabi_dsub>
 8001be8:	4602      	mov	r2, r0
 8001bea:	460b      	mov	r3, r1
 8001bec:	495d      	ldr	r1, [pc, #372]	@ (8001d64 <Decode_IMU_Data+0x378>)
 8001bee:	e9c1 2302 	strd	r2, r3, [r1, #8]
                gyro[2] = -(((double)temp_w[2]) * 2000.0 / 32768.0) - gyro_offset[2];
 8001bf2:	f9b7 3014 	ldrsh.w	r3, [r7, #20]
 8001bf6:	4618      	mov	r0, r3
 8001bf8:	f7fe fc94 	bl	8000524 <__aeabi_i2d>
 8001bfc:	f04f 0200 	mov.w	r2, #0
 8001c00:	4b56      	ldr	r3, [pc, #344]	@ (8001d5c <Decode_IMU_Data+0x370>)
 8001c02:	f7fe fcf9 	bl	80005f8 <__aeabi_dmul>
 8001c06:	4602      	mov	r2, r0
 8001c08:	460b      	mov	r3, r1
 8001c0a:	4610      	mov	r0, r2
 8001c0c:	4619      	mov	r1, r3
 8001c0e:	f04f 0200 	mov.w	r2, #0
 8001c12:	4b50      	ldr	r3, [pc, #320]	@ (8001d54 <Decode_IMU_Data+0x368>)
 8001c14:	f7fe fe1a 	bl	800084c <__aeabi_ddiv>
 8001c18:	4602      	mov	r2, r0
 8001c1a:	460b      	mov	r3, r1
 8001c1c:	4614      	mov	r4, r2
 8001c1e:	f083 4500 	eor.w	r5, r3, #2147483648	@ 0x80000000
 8001c22:	4b4f      	ldr	r3, [pc, #316]	@ (8001d60 <Decode_IMU_Data+0x374>)
 8001c24:	e9d3 2304 	ldrd	r2, r3, [r3, #16]
 8001c28:	4620      	mov	r0, r4
 8001c2a:	4629      	mov	r1, r5
 8001c2c:	f7fe fb2c 	bl	8000288 <__aeabi_dsub>
 8001c30:	4602      	mov	r2, r0
 8001c32:	460b      	mov	r3, r1
 8001c34:	494b      	ldr	r1, [pc, #300]	@ (8001d64 <Decode_IMU_Data+0x378>)
 8001c36:	e9c1 2304 	strd	r2, r3, [r1, #16]
                _GyroValueUpdated = 1;
 8001c3a:	4b4b      	ldr	r3, [pc, #300]	@ (8001d68 <Decode_IMU_Data+0x37c>)
 8001c3c:	2201      	movs	r2, #1
 8001c3e:	601a      	str	r2, [r3, #0]
                break;
 8001c40:	e081      	b.n	8001d46 <Decode_IMU_Data+0x35a>
                temp_angle[0] = ((int16_t)IMU_Raw_Data_Buffer[3] << 8) | (int16_t)IMU_Raw_Data_Buffer[2];
 8001c42:	687b      	ldr	r3, [r7, #4]
 8001c44:	3303      	adds	r3, #3
 8001c46:	781b      	ldrb	r3, [r3, #0]
 8001c48:	021b      	lsls	r3, r3, #8
 8001c4a:	b21a      	sxth	r2, r3
 8001c4c:	687b      	ldr	r3, [r7, #4]
 8001c4e:	3302      	adds	r3, #2
 8001c50:	781b      	ldrb	r3, [r3, #0]
 8001c52:	b21b      	sxth	r3, r3
 8001c54:	4313      	orrs	r3, r2
 8001c56:	b21b      	sxth	r3, r3
 8001c58:	813b      	strh	r3, [r7, #8]
                temp_angle[1] = ((int16_t)IMU_Raw_Data_Buffer[5] << 8) | (int16_t)IMU_Raw_Data_Buffer[4];
 8001c5a:	687b      	ldr	r3, [r7, #4]
 8001c5c:	3305      	adds	r3, #5
 8001c5e:	781b      	ldrb	r3, [r3, #0]
 8001c60:	021b      	lsls	r3, r3, #8
 8001c62:	b21a      	sxth	r2, r3
 8001c64:	687b      	ldr	r3, [r7, #4]
 8001c66:	3304      	adds	r3, #4
 8001c68:	781b      	ldrb	r3, [r3, #0]
 8001c6a:	b21b      	sxth	r3, r3
 8001c6c:	4313      	orrs	r3, r2
 8001c6e:	b21b      	sxth	r3, r3
 8001c70:	817b      	strh	r3, [r7, #10]
                temp_angle[2] = ((int16_t)IMU_Raw_Data_Buffer[7] << 8) | (int16_t)IMU_Raw_Data_Buffer[6];
 8001c72:	687b      	ldr	r3, [r7, #4]
 8001c74:	3307      	adds	r3, #7
 8001c76:	781b      	ldrb	r3, [r3, #0]
 8001c78:	021b      	lsls	r3, r3, #8
 8001c7a:	b21a      	sxth	r2, r3
 8001c7c:	687b      	ldr	r3, [r7, #4]
 8001c7e:	3306      	adds	r3, #6
 8001c80:	781b      	ldrb	r3, [r3, #0]
 8001c82:	b21b      	sxth	r3, r3
 8001c84:	4313      	orrs	r3, r2
 8001c86:	b21b      	sxth	r3, r3
 8001c88:	81bb      	strh	r3, [r7, #12]
                angle[0] = -(((double)temp_angle[0]) * 180.0 / 32768.0) + 90.0;
 8001c8a:	f9b7 3008 	ldrsh.w	r3, [r7, #8]
 8001c8e:	4618      	mov	r0, r3
 8001c90:	f7fe fc48 	bl	8000524 <__aeabi_i2d>
 8001c94:	f04f 0200 	mov.w	r2, #0
 8001c98:	4b34      	ldr	r3, [pc, #208]	@ (8001d6c <Decode_IMU_Data+0x380>)
 8001c9a:	f7fe fcad 	bl	80005f8 <__aeabi_dmul>
 8001c9e:	4602      	mov	r2, r0
 8001ca0:	460b      	mov	r3, r1
 8001ca2:	4610      	mov	r0, r2
 8001ca4:	4619      	mov	r1, r3
 8001ca6:	f04f 0200 	mov.w	r2, #0
 8001caa:	4b2a      	ldr	r3, [pc, #168]	@ (8001d54 <Decode_IMU_Data+0x368>)
 8001cac:	f7fe fdce 	bl	800084c <__aeabi_ddiv>
 8001cb0:	4602      	mov	r2, r0
 8001cb2:	460b      	mov	r3, r1
 8001cb4:	f04f 0000 	mov.w	r0, #0
 8001cb8:	492d      	ldr	r1, [pc, #180]	@ (8001d70 <Decode_IMU_Data+0x384>)
 8001cba:	f7fe fae5 	bl	8000288 <__aeabi_dsub>
 8001cbe:	4602      	mov	r2, r0
 8001cc0:	460b      	mov	r3, r1
 8001cc2:	492c      	ldr	r1, [pc, #176]	@ (8001d74 <Decode_IMU_Data+0x388>)
 8001cc4:	e9c1 2300 	strd	r2, r3, [r1]
                angle[1] = -(((double)temp_angle[1]) * 180.0 / 32768.0) + 90.0;
 8001cc8:	f9b7 300a 	ldrsh.w	r3, [r7, #10]
 8001ccc:	4618      	mov	r0, r3
 8001cce:	f7fe fc29 	bl	8000524 <__aeabi_i2d>
 8001cd2:	f04f 0200 	mov.w	r2, #0
 8001cd6:	4b25      	ldr	r3, [pc, #148]	@ (8001d6c <Decode_IMU_Data+0x380>)
 8001cd8:	f7fe fc8e 	bl	80005f8 <__aeabi_dmul>
 8001cdc:	4602      	mov	r2, r0
 8001cde:	460b      	mov	r3, r1
 8001ce0:	4610      	mov	r0, r2
 8001ce2:	4619      	mov	r1, r3
 8001ce4:	f04f 0200 	mov.w	r2, #0
 8001ce8:	4b1a      	ldr	r3, [pc, #104]	@ (8001d54 <Decode_IMU_Data+0x368>)
 8001cea:	f7fe fdaf 	bl	800084c <__aeabi_ddiv>
 8001cee:	4602      	mov	r2, r0
 8001cf0:	460b      	mov	r3, r1
 8001cf2:	f04f 0000 	mov.w	r0, #0
 8001cf6:	491e      	ldr	r1, [pc, #120]	@ (8001d70 <Decode_IMU_Data+0x384>)
 8001cf8:	f7fe fac6 	bl	8000288 <__aeabi_dsub>
 8001cfc:	4602      	mov	r2, r0
 8001cfe:	460b      	mov	r3, r1
 8001d00:	491c      	ldr	r1, [pc, #112]	@ (8001d74 <Decode_IMU_Data+0x388>)
 8001d02:	e9c1 2302 	strd	r2, r3, [r1, #8]
                angle[2] = -(((double)temp_angle[2]) * 180.0 / 32768.0) + 90.0;
 8001d06:	f9b7 300c 	ldrsh.w	r3, [r7, #12]
 8001d0a:	4618      	mov	r0, r3
 8001d0c:	f7fe fc0a 	bl	8000524 <__aeabi_i2d>
 8001d10:	f04f 0200 	mov.w	r2, #0
 8001d14:	4b15      	ldr	r3, [pc, #84]	@ (8001d6c <Decode_IMU_Data+0x380>)
 8001d16:	f7fe fc6f 	bl	80005f8 <__aeabi_dmul>
 8001d1a:	4602      	mov	r2, r0
 8001d1c:	460b      	mov	r3, r1
 8001d1e:	4610      	mov	r0, r2
 8001d20:	4619      	mov	r1, r3
 8001d22:	f04f 0200 	mov.w	r2, #0
 8001d26:	4b0b      	ldr	r3, [pc, #44]	@ (8001d54 <Decode_IMU_Data+0x368>)
 8001d28:	f7fe fd90 	bl	800084c <__aeabi_ddiv>
 8001d2c:	4602      	mov	r2, r0
 8001d2e:	460b      	mov	r3, r1
 8001d30:	f04f 0000 	mov.w	r0, #0
 8001d34:	490e      	ldr	r1, [pc, #56]	@ (8001d70 <Decode_IMU_Data+0x384>)
 8001d36:	f7fe faa7 	bl	8000288 <__aeabi_dsub>
 8001d3a:	4602      	mov	r2, r0
 8001d3c:	460b      	mov	r3, r1
 8001d3e:	490d      	ldr	r1, [pc, #52]	@ (8001d74 <Decode_IMU_Data+0x388>)
 8001d40:	e9c1 2304 	strd	r2, r3, [r1, #16]
                break;
 8001d44:	bf00      	nop
}
 8001d46:	bf00      	nop
 8001d48:	3720      	adds	r7, #32
 8001d4a:	46bd      	mov	sp, r7
 8001d4c:	e8bd 8fb0 	ldmia.w	sp!, {r4, r5, r7, r8, r9, sl, fp, pc}
 8001d50:	40300000 	.word	0x40300000
 8001d54:	40e00000 	.word	0x40e00000
 8001d58:	200001d0 	.word	0x200001d0
 8001d5c:	409f4000 	.word	0x409f4000
 8001d60:	20000218 	.word	0x20000218
 8001d64:	200001e8 	.word	0x200001e8
 8001d68:	20000230 	.word	0x20000230
 8001d6c:	40668000 	.word	0x40668000
 8001d70:	40568000 	.word	0x40568000
 8001d74:	20000200 	.word	0x20000200

08001d78 <Imu_Error_Handler>:

        _IsGyroIntialized = 1;
    }
}

void Imu_Error_Handler(void) {
 8001d78:	b480      	push	{r7}
 8001d7a:	af00      	add	r7, sp, #0

    while(1) {
 8001d7c:	bf00      	nop
 8001d7e:	e7fd      	b.n	8001d7c <Imu_Error_Handler+0x4>

08001d80 <Lcd_create>:
 8001d80:	b4b0      	push	{r4, r5, r7}
 8001d82:	b08b      	sub	sp, #44	@ 0x2c
 8001d84:	af00      	add	r7, sp, #0
 8001d86:	60f8      	str	r0, [r7, #12]
 8001d88:	60b9      	str	r1, [r7, #8]
 8001d8a:	607a      	str	r2, [r7, #4]
 8001d8c:	603b      	str	r3, [r7, #0]
 8001d8e:	f897 3044 	ldrb.w	r3, [r7, #68]	@ 0x44
 8001d92:	f887 3026 	strb.w	r3, [r7, #38]	@ 0x26
 8001d96:	f8b7 3040 	ldrh.w	r3, [r7, #64]	@ 0x40
 8001d9a:	84bb      	strh	r3, [r7, #36]	@ 0x24
 8001d9c:	6bfb      	ldr	r3, [r7, #60]	@ 0x3c
 8001d9e:	623b      	str	r3, [r7, #32]
 8001da0:	8f3b      	ldrh	r3, [r7, #56]	@ 0x38
 8001da2:	83bb      	strh	r3, [r7, #28]
 8001da4:	683b      	ldr	r3, [r7, #0]
 8001da6:	61bb      	str	r3, [r7, #24]
 8001da8:	687b      	ldr	r3, [r7, #4]
 8001daa:	617b      	str	r3, [r7, #20]
 8001dac:	68bb      	ldr	r3, [r7, #8]
 8001dae:	613b      	str	r3, [r7, #16]
 8001db0:	68fb      	ldr	r3, [r7, #12]
 8001db2:	461d      	mov	r5, r3
 8001db4:	f107 0410 	add.w	r4, r7, #16
 8001db8:	cc0f      	ldmia	r4!, {r0, r1, r2, r3}
 8001dba:	c50f      	stmia	r5!, {r0, r1, r2, r3}
 8001dbc:	e894 0003 	ldmia.w	r4, {r0, r1}
 8001dc0:	e885 0003 	stmia.w	r5, {r0, r1}
 8001dc4:	68f8      	ldr	r0, [r7, #12]
 8001dc6:	372c      	adds	r7, #44	@ 0x2c
 8001dc8:	46bd      	mov	sp, r7
 8001dca:	bcb0      	pop	{r4, r5, r7}
 8001dcc:	4770      	bx	lr
	...

08001dd0 <Lcd_init>:
 8001dd0:	b5b0      	push	{r4, r5, r7, lr}
 8001dd2:	b08c      	sub	sp, #48	@ 0x30
 8001dd4:	af04      	add	r7, sp, #16
 8001dd6:	61f8      	str	r0, [r7, #28]
 8001dd8:	69fc      	ldr	r4, [r7, #28]
 8001dda:	4638      	mov	r0, r7
 8001ddc:	2300      	movs	r3, #0
 8001dde:	9303      	str	r3, [sp, #12]
 8001de0:	f44f 6300 	mov.w	r3, #2048	@ 0x800
 8001de4:	9302      	str	r3, [sp, #8]
 8001de6:	4b1b      	ldr	r3, [pc, #108]	@ (8001e54 <Lcd_init+0x84>)
 8001de8:	9301      	str	r3, [sp, #4]
 8001dea:	f44f 5300 	mov.w	r3, #8192	@ 0x2000
 8001dee:	9300      	str	r3, [sp, #0]
 8001df0:	4b18      	ldr	r3, [pc, #96]	@ (8001e54 <Lcd_init+0x84>)
 8001df2:	4a19      	ldr	r2, [pc, #100]	@ (8001e58 <Lcd_init+0x88>)
 8001df4:	4919      	ldr	r1, [pc, #100]	@ (8001e5c <Lcd_init+0x8c>)
 8001df6:	f7ff ffc3 	bl	8001d80 <Lcd_create>
 8001dfa:	4625      	mov	r5, r4
 8001dfc:	463c      	mov	r4, r7
 8001dfe:	cc0f      	ldmia	r4!, {r0, r1, r2, r3}
 8001e00:	c50f      	stmia	r5!, {r0, r1, r2, r3}
 8001e02:	e894 0003 	ldmia.w	r4, {r0, r1}
 8001e06:	e885 0003 	stmia.w	r5, {r0, r1}
 8001e0a:	69fb      	ldr	r3, [r7, #28]
 8001e0c:	7d9b      	ldrb	r3, [r3, #22]
 8001e0e:	2b00      	cmp	r3, #0
 8001e10:	d10c      	bne.n	8001e2c <Lcd_init+0x5c>
 8001e12:	2133      	movs	r1, #51	@ 0x33
 8001e14:	69f8      	ldr	r0, [r7, #28]
 8001e16:	f000 f881 	bl	8001f1c <lcd_write_command>
 8001e1a:	2132      	movs	r1, #50	@ 0x32
 8001e1c:	69f8      	ldr	r0, [r7, #28]
 8001e1e:	f000 f87d 	bl	8001f1c <lcd_write_command>
 8001e22:	2128      	movs	r1, #40	@ 0x28
 8001e24:	69f8      	ldr	r0, [r7, #28]
 8001e26:	f000 f879 	bl	8001f1c <lcd_write_command>
 8001e2a:	e003      	b.n	8001e34 <Lcd_init+0x64>
 8001e2c:	2138      	movs	r1, #56	@ 0x38
 8001e2e:	69f8      	ldr	r0, [r7, #28]
 8001e30:	f000 f874 	bl	8001f1c <lcd_write_command>
 8001e34:	2101      	movs	r1, #1
 8001e36:	69f8      	ldr	r0, [r7, #28]
 8001e38:	f000 f870 	bl	8001f1c <lcd_write_command>
 8001e3c:	210c      	movs	r1, #12
 8001e3e:	69f8      	ldr	r0, [r7, #28]
 8001e40:	f000 f86c 	bl	8001f1c <lcd_write_command>
 8001e44:	2106      	movs	r1, #6
 8001e46:	69f8      	ldr	r0, [r7, #28]
 8001e48:	f000 f868 	bl	8001f1c <lcd_write_command>
 8001e4c:	bf00      	nop
 8001e4e:	3720      	adds	r7, #32
 8001e50:	46bd      	mov	sp, r7
 8001e52:	bdb0      	pop	{r4, r5, r7, pc}
 8001e54:	40021000 	.word	0x40021000
 8001e58:	20000014 	.word	0x20000014
 8001e5c:	20000004 	.word	0x20000004

08001e60 <Lcd_int>:
 8001e60:	b580      	push	{r7, lr}
 8001e62:	b086      	sub	sp, #24
 8001e64:	af00      	add	r7, sp, #0
 8001e66:	6078      	str	r0, [r7, #4]
 8001e68:	6039      	str	r1, [r7, #0]
 8001e6a:	f107 030c 	add.w	r3, r7, #12
 8001e6e:	683a      	ldr	r2, [r7, #0]
 8001e70:	4906      	ldr	r1, [pc, #24]	@ (8001e8c <Lcd_int+0x2c>)
 8001e72:	4618      	mov	r0, r3
 8001e74:	f003 fb86 	bl	8005584 <siprintf>
 8001e78:	f107 030c 	add.w	r3, r7, #12
 8001e7c:	4619      	mov	r1, r3
 8001e7e:	6878      	ldr	r0, [r7, #4]
 8001e80:	f000 f806 	bl	8001e90 <Lcd_string>
 8001e84:	bf00      	nop
 8001e86:	3718      	adds	r7, #24
 8001e88:	46bd      	mov	sp, r7
 8001e8a:	bd80      	pop	{r7, pc}
 8001e8c:	08005f00 	.word	0x08005f00

08001e90 <Lcd_string>:
 8001e90:	b590      	push	{r4, r7, lr}
 8001e92:	b085      	sub	sp, #20
 8001e94:	af00      	add	r7, sp, #0
 8001e96:	6078      	str	r0, [r7, #4]
 8001e98:	6039      	str	r1, [r7, #0]
 8001e9a:	2300      	movs	r3, #0
 8001e9c:	73fb      	strb	r3, [r7, #15]
 8001e9e:	e00a      	b.n	8001eb6 <Lcd_string+0x26>
 8001ea0:	7bfb      	ldrb	r3, [r7, #15]
 8001ea2:	683a      	ldr	r2, [r7, #0]
 8001ea4:	4413      	add	r3, r2
 8001ea6:	781b      	ldrb	r3, [r3, #0]
 8001ea8:	4619      	mov	r1, r3
 8001eaa:	6878      	ldr	r0, [r7, #4]
 8001eac:	f000 f864 	bl	8001f78 <lcd_write_data>
 8001eb0:	7bfb      	ldrb	r3, [r7, #15]
 8001eb2:	3301      	adds	r3, #1
 8001eb4:	73fb      	strb	r3, [r7, #15]
 8001eb6:	7bfc      	ldrb	r4, [r7, #15]
 8001eb8:	6838      	ldr	r0, [r7, #0]
 8001eba:	f7fe f989 	bl	80001d0 <strlen>
 8001ebe:	4603      	mov	r3, r0
 8001ec0:	429c      	cmp	r4, r3
 8001ec2:	d3ed      	bcc.n	8001ea0 <Lcd_string+0x10>
 8001ec4:	bf00      	nop
 8001ec6:	bf00      	nop
 8001ec8:	3714      	adds	r7, #20
 8001eca:	46bd      	mov	sp, r7
 8001ecc:	bd90      	pop	{r4, r7, pc}
	...

08001ed0 <Lcd_cursor>:
 8001ed0:	b580      	push	{r7, lr}
 8001ed2:	b082      	sub	sp, #8
 8001ed4:	af00      	add	r7, sp, #0
 8001ed6:	6078      	str	r0, [r7, #4]
 8001ed8:	460b      	mov	r3, r1
 8001eda:	70fb      	strb	r3, [r7, #3]
 8001edc:	4613      	mov	r3, r2
 8001ede:	70bb      	strb	r3, [r7, #2]
 8001ee0:	78fb      	ldrb	r3, [r7, #3]
 8001ee2:	4a07      	ldr	r2, [pc, #28]	@ (8001f00 <Lcd_cursor+0x30>)
 8001ee4:	5cd2      	ldrb	r2, [r2, r3]
 8001ee6:	78bb      	ldrb	r3, [r7, #2]
 8001ee8:	4413      	add	r3, r2
 8001eea:	b2db      	uxtb	r3, r3
 8001eec:	3b80      	subs	r3, #128	@ 0x80
 8001eee:	b2db      	uxtb	r3, r3
 8001ef0:	4619      	mov	r1, r3
 8001ef2:	6878      	ldr	r0, [r7, #4]
 8001ef4:	f000 f812 	bl	8001f1c <lcd_write_command>
 8001ef8:	bf00      	nop
 8001efa:	3708      	adds	r7, #8
 8001efc:	46bd      	mov	sp, r7
 8001efe:	bd80      	pop	{r7, pc}
 8001f00:	08005f1c 	.word	0x08005f1c

08001f04 <Lcd_clear>:
 8001f04:	b580      	push	{r7, lr}
 8001f06:	b082      	sub	sp, #8
 8001f08:	af00      	add	r7, sp, #0
 8001f0a:	6078      	str	r0, [r7, #4]
 8001f0c:	2101      	movs	r1, #1
 8001f0e:	6878      	ldr	r0, [r7, #4]
 8001f10:	f000 f804 	bl	8001f1c <lcd_write_command>
 8001f14:	bf00      	nop
 8001f16:	3708      	adds	r7, #8
 8001f18:	46bd      	mov	sp, r7
 8001f1a:	bd80      	pop	{r7, pc}

08001f1c <lcd_write_command>:
 8001f1c:	b580      	push	{r7, lr}
 8001f1e:	b082      	sub	sp, #8
 8001f20:	af00      	add	r7, sp, #0
 8001f22:	6078      	str	r0, [r7, #4]
 8001f24:	460b      	mov	r3, r1
 8001f26:	70fb      	strb	r3, [r7, #3]
 8001f28:	687b      	ldr	r3, [r7, #4]
 8001f2a:	6898      	ldr	r0, [r3, #8]
 8001f2c:	687b      	ldr	r3, [r7, #4]
 8001f2e:	899b      	ldrh	r3, [r3, #12]
 8001f30:	2200      	movs	r2, #0
 8001f32:	4619      	mov	r1, r3
 8001f34:	f000 fec6 	bl	8002cc4 <HAL_GPIO_WritePin>
 8001f38:	687b      	ldr	r3, [r7, #4]
 8001f3a:	7d9b      	ldrb	r3, [r3, #22]
 8001f3c:	2b00      	cmp	r3, #0
 8001f3e:	d111      	bne.n	8001f64 <lcd_write_command+0x48>
 8001f40:	78fb      	ldrb	r3, [r7, #3]
 8001f42:	091b      	lsrs	r3, r3, #4
 8001f44:	b2db      	uxtb	r3, r3
 8001f46:	2204      	movs	r2, #4
 8001f48:	4619      	mov	r1, r3
 8001f4a:	6878      	ldr	r0, [r7, #4]
 8001f4c:	f000 f842 	bl	8001fd4 <lcd_write>
 8001f50:	78fb      	ldrb	r3, [r7, #3]
 8001f52:	f003 030f 	and.w	r3, r3, #15
 8001f56:	b2db      	uxtb	r3, r3
 8001f58:	2204      	movs	r2, #4
 8001f5a:	4619      	mov	r1, r3
 8001f5c:	6878      	ldr	r0, [r7, #4]
 8001f5e:	f000 f839 	bl	8001fd4 <lcd_write>
 8001f62:	e005      	b.n	8001f70 <lcd_write_command+0x54>
 8001f64:	78fb      	ldrb	r3, [r7, #3]
 8001f66:	2208      	movs	r2, #8
 8001f68:	4619      	mov	r1, r3
 8001f6a:	6878      	ldr	r0, [r7, #4]
 8001f6c:	f000 f832 	bl	8001fd4 <lcd_write>
 8001f70:	bf00      	nop
 8001f72:	3708      	adds	r7, #8
 8001f74:	46bd      	mov	sp, r7
 8001f76:	bd80      	pop	{r7, pc}

08001f78 <lcd_write_data>:
 8001f78:	b580      	push	{r7, lr}
 8001f7a:	b082      	sub	sp, #8
 8001f7c:	af00      	add	r7, sp, #0
 8001f7e:	6078      	str	r0, [r7, #4]
 8001f80:	460b      	mov	r3, r1
 8001f82:	70fb      	strb	r3, [r7, #3]
 8001f84:	687b      	ldr	r3, [r7, #4]
 8001f86:	6898      	ldr	r0, [r3, #8]
 8001f88:	687b      	ldr	r3, [r7, #4]
 8001f8a:	899b      	ldrh	r3, [r3, #12]
 8001f8c:	2201      	movs	r2, #1
 8001f8e:	4619      	mov	r1, r3
 8001f90:	f000 fe98 	bl	8002cc4 <HAL_GPIO_WritePin>
 8001f94:	687b      	ldr	r3, [r7, #4]
 8001f96:	7d9b      	ldrb	r3, [r3, #22]
 8001f98:	2b00      	cmp	r3, #0
 8001f9a:	d111      	bne.n	8001fc0 <lcd_write_data+0x48>
 8001f9c:	78fb      	ldrb	r3, [r7, #3]
 8001f9e:	091b      	lsrs	r3, r3, #4
 8001fa0:	b2db      	uxtb	r3, r3
 8001fa2:	2204      	movs	r2, #4
 8001fa4:	4619      	mov	r1, r3
 8001fa6:	6878      	ldr	r0, [r7, #4]
 8001fa8:	f000 f814 	bl	8001fd4 <lcd_write>
 8001fac:	78fb      	ldrb	r3, [r7, #3]
 8001fae:	f003 030f 	and.w	r3, r3, #15
 8001fb2:	b2db      	uxtb	r3, r3
 8001fb4:	2204      	movs	r2, #4
 8001fb6:	4619      	mov	r1, r3
 8001fb8:	6878      	ldr	r0, [r7, #4]
 8001fba:	f000 f80b 	bl	8001fd4 <lcd_write>
 8001fbe:	e005      	b.n	8001fcc <lcd_write_data+0x54>
 8001fc0:	78fb      	ldrb	r3, [r7, #3]
 8001fc2:	2208      	movs	r2, #8
 8001fc4:	4619      	mov	r1, r3
 8001fc6:	6878      	ldr	r0, [r7, #4]
 8001fc8:	f000 f804 	bl	8001fd4 <lcd_write>
 8001fcc:	bf00      	nop
 8001fce:	3708      	adds	r7, #8
 8001fd0:	46bd      	mov	sp, r7
 8001fd2:	bd80      	pop	{r7, pc}

08001fd4 <lcd_write>:
 8001fd4:	b580      	push	{r7, lr}
 8001fd6:	b084      	sub	sp, #16
 8001fd8:	af00      	add	r7, sp, #0
 8001fda:	6078      	str	r0, [r7, #4]
 8001fdc:	460b      	mov	r3, r1
 8001fde:	70fb      	strb	r3, [r7, #3]
 8001fe0:	4613      	mov	r3, r2
 8001fe2:	70bb      	strb	r3, [r7, #2]
 8001fe4:	2300      	movs	r3, #0
 8001fe6:	73fb      	strb	r3, [r7, #15]
 8001fe8:	e019      	b.n	800201e <lcd_write+0x4a>
 8001fea:	687b      	ldr	r3, [r7, #4]
 8001fec:	681a      	ldr	r2, [r3, #0]
 8001fee:	7bfb      	ldrb	r3, [r7, #15]
 8001ff0:	009b      	lsls	r3, r3, #2
 8001ff2:	4413      	add	r3, r2
 8001ff4:	6818      	ldr	r0, [r3, #0]
 8001ff6:	687b      	ldr	r3, [r7, #4]
 8001ff8:	685a      	ldr	r2, [r3, #4]
 8001ffa:	7bfb      	ldrb	r3, [r7, #15]
 8001ffc:	005b      	lsls	r3, r3, #1
 8001ffe:	4413      	add	r3, r2
 8002000:	8819      	ldrh	r1, [r3, #0]
 8002002:	78fa      	ldrb	r2, [r7, #3]
 8002004:	7bfb      	ldrb	r3, [r7, #15]
 8002006:	fa42 f303 	asr.w	r3, r2, r3
 800200a:	b2db      	uxtb	r3, r3
 800200c:	f003 0301 	and.w	r3, r3, #1
 8002010:	b2db      	uxtb	r3, r3
 8002012:	461a      	mov	r2, r3
 8002014:	f000 fe56 	bl	8002cc4 <HAL_GPIO_WritePin>
 8002018:	7bfb      	ldrb	r3, [r7, #15]
 800201a:	3301      	adds	r3, #1
 800201c:	73fb      	strb	r3, [r7, #15]
 800201e:	7bfa      	ldrb	r2, [r7, #15]
 8002020:	78bb      	ldrb	r3, [r7, #2]
 8002022:	429a      	cmp	r2, r3
 8002024:	d3e1      	bcc.n	8001fea <lcd_write+0x16>
 8002026:	687b      	ldr	r3, [r7, #4]
 8002028:	6918      	ldr	r0, [r3, #16]
 800202a:	687b      	ldr	r3, [r7, #4]
 800202c:	8a9b      	ldrh	r3, [r3, #20]
 800202e:	2201      	movs	r2, #1
 8002030:	4619      	mov	r1, r3
 8002032:	f000 fe47 	bl	8002cc4 <HAL_GPIO_WritePin>
 8002036:	2001      	movs	r0, #1
 8002038:	f000 f87e 	bl	8002138 <HAL_Delay>
 800203c:	687b      	ldr	r3, [r7, #4]
 800203e:	6918      	ldr	r0, [r3, #16]
 8002040:	687b      	ldr	r3, [r7, #4]
 8002042:	8a9b      	ldrh	r3, [r3, #20]
 8002044:	2200      	movs	r2, #0
 8002046:	4619      	mov	r1, r3
 8002048:	f000 fe3c 	bl	8002cc4 <HAL_GPIO_WritePin>
 800204c:	bf00      	nop
 800204e:	3710      	adds	r7, #16
 8002050:	46bd      	mov	sp, r7
 8002052:	bd80      	pop	{r7, pc}

08002054 <HAL_Init>:
 8002054:	b580      	push	{r7, lr}
 8002056:	af00      	add	r7, sp, #0
 8002058:	4b0e      	ldr	r3, [pc, #56]	@ (8002094 <HAL_Init+0x40>)
 800205a:	681b      	ldr	r3, [r3, #0]
 800205c:	4a0d      	ldr	r2, [pc, #52]	@ (8002094 <HAL_Init+0x40>)
 800205e:	f443 7300 	orr.w	r3, r3, #512	@ 0x200
 8002062:	6013      	str	r3, [r2, #0]
 8002064:	4b0b      	ldr	r3, [pc, #44]	@ (8002094 <HAL_Init+0x40>)
 8002066:	681b      	ldr	r3, [r3, #0]
 8002068:	4a0a      	ldr	r2, [pc, #40]	@ (8002094 <HAL_Init+0x40>)
 800206a:	f443 6380 	orr.w	r3, r3, #1024	@ 0x400
 800206e:	6013      	str	r3, [r2, #0]
 8002070:	4b08      	ldr	r3, [pc, #32]	@ (8002094 <HAL_Init+0x40>)
 8002072:	681b      	ldr	r3, [r3, #0]
 8002074:	4a07      	ldr	r2, [pc, #28]	@ (8002094 <HAL_Init+0x40>)
 8002076:	f443 7380 	orr.w	r3, r3, #256	@ 0x100
 800207a:	6013      	str	r3, [r2, #0]
 800207c:	2003      	movs	r0, #3
 800207e:	f000 fbb1 	bl	80027e4 <HAL_NVIC_SetPriorityGrouping>
 8002082:	200f      	movs	r0, #15
 8002084:	f000 f808 	bl	8002098 <HAL_InitTick>
 8002088:	f7ff f9ce 	bl	8001428 <HAL_MspInit>
 800208c:	2300      	movs	r3, #0
 800208e:	4618      	mov	r0, r3
 8002090:	bd80      	pop	{r7, pc}
 8002092:	bf00      	nop
 8002094:	40023c00 	.word	0x40023c00

08002098 <HAL_InitTick>:
 8002098:	b580      	push	{r7, lr}
 800209a:	b082      	sub	sp, #8
 800209c:	af00      	add	r7, sp, #0
 800209e:	6078      	str	r0, [r7, #4]
 80020a0:	4b12      	ldr	r3, [pc, #72]	@ (80020ec <HAL_InitTick+0x54>)
 80020a2:	681a      	ldr	r2, [r3, #0]
 80020a4:	4b12      	ldr	r3, [pc, #72]	@ (80020f0 <HAL_InitTick+0x58>)
 80020a6:	781b      	ldrb	r3, [r3, #0]
 80020a8:	4619      	mov	r1, r3
 80020aa:	f44f 737a 	mov.w	r3, #1000	@ 0x3e8
 80020ae:	fbb3 f3f1 	udiv	r3, r3, r1
 80020b2:	fbb2 f3f3 	udiv	r3, r2, r3
 80020b6:	4618      	mov	r0, r3
 80020b8:	f000 fbc9 	bl	800284e <HAL_SYSTICK_Config>
 80020bc:	4603      	mov	r3, r0
 80020be:	2b00      	cmp	r3, #0
 80020c0:	d001      	beq.n	80020c6 <HAL_InitTick+0x2e>
 80020c2:	2301      	movs	r3, #1
 80020c4:	e00e      	b.n	80020e4 <HAL_InitTick+0x4c>
 80020c6:	687b      	ldr	r3, [r7, #4]
 80020c8:	2b0f      	cmp	r3, #15
 80020ca:	d80a      	bhi.n	80020e2 <HAL_InitTick+0x4a>
 80020cc:	2200      	movs	r2, #0
 80020ce:	6879      	ldr	r1, [r7, #4]
 80020d0:	f04f 30ff 	mov.w	r0, #4294967295
 80020d4:	f000 fb91 	bl	80027fa <HAL_NVIC_SetPriority>
 80020d8:	4a06      	ldr	r2, [pc, #24]	@ (80020f4 <HAL_InitTick+0x5c>)
 80020da:	687b      	ldr	r3, [r7, #4]
 80020dc:	6013      	str	r3, [r2, #0]
 80020de:	2300      	movs	r3, #0
 80020e0:	e000      	b.n	80020e4 <HAL_InitTick+0x4c>
 80020e2:	2301      	movs	r3, #1
 80020e4:	4618      	mov	r0, r3
 80020e6:	3708      	adds	r7, #8
 80020e8:	46bd      	mov	sp, r7
 80020ea:	bd80      	pop	{r7, pc}
 80020ec:	20000000 	.word	0x20000000
 80020f0:	20000020 	.word	0x20000020
 80020f4:	2000001c 	.word	0x2000001c

080020f8 <HAL_IncTick>:
 80020f8:	b480      	push	{r7}
 80020fa:	af00      	add	r7, sp, #0
 80020fc:	4b06      	ldr	r3, [pc, #24]	@ (8002118 <HAL_IncTick+0x20>)
 80020fe:	781b      	ldrb	r3, [r3, #0]
 8002100:	461a      	mov	r2, r3
 8002102:	4b06      	ldr	r3, [pc, #24]	@ (800211c <HAL_IncTick+0x24>)
 8002104:	681b      	ldr	r3, [r3, #0]
 8002106:	4413      	add	r3, r2
 8002108:	4a04      	ldr	r2, [pc, #16]	@ (800211c <HAL_IncTick+0x24>)
 800210a:	6013      	str	r3, [r2, #0]
 800210c:	bf00      	nop
 800210e:	46bd      	mov	sp, r7
 8002110:	f85d 7b04 	ldr.w	r7, [sp], #4
 8002114:	4770      	bx	lr
 8002116:	bf00      	nop
 8002118:	20000020 	.word	0x20000020
 800211c:	20000234 	.word	0x20000234

08002120 <HAL_GetTick>:
 8002120:	b480      	push	{r7}
 8002122:	af00      	add	r7, sp, #0
 8002124:	4b03      	ldr	r3, [pc, #12]	@ (8002134 <HAL_GetTick+0x14>)
 8002126:	681b      	ldr	r3, [r3, #0]
 8002128:	4618      	mov	r0, r3
 800212a:	46bd      	mov	sp, r7
 800212c:	f85d 7b04 	ldr.w	r7, [sp], #4
 8002130:	4770      	bx	lr
 8002132:	bf00      	nop
 8002134:	20000234 	.word	0x20000234

08002138 <HAL_Delay>:
 8002138:	b580      	push	{r7, lr}
 800213a:	b084      	sub	sp, #16
 800213c:	af00      	add	r7, sp, #0
 800213e:	6078      	str	r0, [r7, #4]
 8002140:	f7ff ffee 	bl	8002120 <HAL_GetTick>
 8002144:	60b8      	str	r0, [r7, #8]
 8002146:	687b      	ldr	r3, [r7, #4]
 8002148:	60fb      	str	r3, [r7, #12]
 800214a:	68fb      	ldr	r3, [r7, #12]
 800214c:	f1b3 3fff 	cmp.w	r3, #4294967295
 8002150:	d005      	beq.n	800215e <HAL_Delay+0x26>
 8002152:	4b0a      	ldr	r3, [pc, #40]	@ (800217c <HAL_Delay+0x44>)
 8002154:	781b      	ldrb	r3, [r3, #0]
 8002156:	461a      	mov	r2, r3
 8002158:	68fb      	ldr	r3, [r7, #12]
 800215a:	4413      	add	r3, r2
 800215c:	60fb      	str	r3, [r7, #12]
 800215e:	bf00      	nop
 8002160:	f7ff ffde 	bl	8002120 <HAL_GetTick>
 8002164:	4602      	mov	r2, r0
 8002166:	68bb      	ldr	r3, [r7, #8]
 8002168:	1ad3      	subs	r3, r2, r3
 800216a:	68fa      	ldr	r2, [r7, #12]
 800216c:	429a      	cmp	r2, r3
 800216e:	d8f7      	bhi.n	8002160 <HAL_Delay+0x28>
 8002170:	bf00      	nop
 8002172:	bf00      	nop
 8002174:	3710      	adds	r7, #16
 8002176:	46bd      	mov	sp, r7
 8002178:	bd80      	pop	{r7, pc}
 800217a:	bf00      	nop
 800217c:	20000020 	.word	0x20000020

08002180 <HAL_ADC_Init>:
 8002180:	b580      	push	{r7, lr}
 8002182:	b084      	sub	sp, #16
 8002184:	af00      	add	r7, sp, #0
 8002186:	6078      	str	r0, [r7, #4]
 8002188:	2300      	movs	r3, #0
 800218a:	73fb      	strb	r3, [r7, #15]
 800218c:	687b      	ldr	r3, [r7, #4]
 800218e:	2b00      	cmp	r3, #0
 8002190:	d101      	bne.n	8002196 <HAL_ADC_Init+0x16>
 8002192:	2301      	movs	r3, #1
 8002194:	e033      	b.n	80021fe <HAL_ADC_Init+0x7e>
 8002196:	687b      	ldr	r3, [r7, #4]
 8002198:	6c1b      	ldr	r3, [r3, #64]	@ 0x40
 800219a:	2b00      	cmp	r3, #0
 800219c:	d109      	bne.n	80021b2 <HAL_ADC_Init+0x32>
 800219e:	6878      	ldr	r0, [r7, #4]
 80021a0:	f7ff f96a 	bl	8001478 <HAL_ADC_MspInit>
 80021a4:	687b      	ldr	r3, [r7, #4]
 80021a6:	2200      	movs	r2, #0
 80021a8:	645a      	str	r2, [r3, #68]	@ 0x44
 80021aa:	687b      	ldr	r3, [r7, #4]
 80021ac:	2200      	movs	r2, #0
 80021ae:	f883 203c 	strb.w	r2, [r3, #60]	@ 0x3c
 80021b2:	687b      	ldr	r3, [r7, #4]
 80021b4:	6c1b      	ldr	r3, [r3, #64]	@ 0x40
 80021b6:	f003 0310 	and.w	r3, r3, #16
 80021ba:	2b00      	cmp	r3, #0
 80021bc:	d118      	bne.n	80021f0 <HAL_ADC_Init+0x70>
 80021be:	687b      	ldr	r3, [r7, #4]
 80021c0:	6c1b      	ldr	r3, [r3, #64]	@ 0x40
 80021c2:	f423 5388 	bic.w	r3, r3, #4352	@ 0x1100
 80021c6:	f023 0302 	bic.w	r3, r3, #2
 80021ca:	f043 0202 	orr.w	r2, r3, #2
 80021ce:	687b      	ldr	r3, [r7, #4]
 80021d0:	641a      	str	r2, [r3, #64]	@ 0x40
 80021d2:	6878      	ldr	r0, [r7, #4]
 80021d4:	f000 f93a 	bl	800244c <ADC_Init>
 80021d8:	687b      	ldr	r3, [r7, #4]
 80021da:	2200      	movs	r2, #0
 80021dc:	645a      	str	r2, [r3, #68]	@ 0x44
 80021de:	687b      	ldr	r3, [r7, #4]
 80021e0:	6c1b      	ldr	r3, [r3, #64]	@ 0x40
 80021e2:	f023 0303 	bic.w	r3, r3, #3
 80021e6:	f043 0201 	orr.w	r2, r3, #1
 80021ea:	687b      	ldr	r3, [r7, #4]
 80021ec:	641a      	str	r2, [r3, #64]	@ 0x40
 80021ee:	e001      	b.n	80021f4 <HAL_ADC_Init+0x74>
 80021f0:	2301      	movs	r3, #1
 80021f2:	73fb      	strb	r3, [r7, #15]
 80021f4:	687b      	ldr	r3, [r7, #4]
 80021f6:	2200      	movs	r2, #0
 80021f8:	f883 203c 	strb.w	r2, [r3, #60]	@ 0x3c
 80021fc:	7bfb      	ldrb	r3, [r7, #15]
 80021fe:	4618      	mov	r0, r3
 8002200:	3710      	adds	r7, #16
 8002202:	46bd      	mov	sp, r7
 8002204:	bd80      	pop	{r7, pc}
	...

08002208 <HAL_ADC_ConfigChannel>:
 8002208:	b480      	push	{r7}
 800220a:	b085      	sub	sp, #20
 800220c:	af00      	add	r7, sp, #0
 800220e:	6078      	str	r0, [r7, #4]
 8002210:	6039      	str	r1, [r7, #0]
 8002212:	2300      	movs	r3, #0
 8002214:	60bb      	str	r3, [r7, #8]
 8002216:	687b      	ldr	r3, [r7, #4]
 8002218:	f893 303c 	ldrb.w	r3, [r3, #60]	@ 0x3c
 800221c:	2b01      	cmp	r3, #1
 800221e:	d101      	bne.n	8002224 <HAL_ADC_ConfigChannel+0x1c>
 8002220:	2302      	movs	r3, #2
 8002222:	e105      	b.n	8002430 <HAL_ADC_ConfigChannel+0x228>
 8002224:	687b      	ldr	r3, [r7, #4]
 8002226:	2201      	movs	r2, #1
 8002228:	f883 203c 	strb.w	r2, [r3, #60]	@ 0x3c
 800222c:	683b      	ldr	r3, [r7, #0]
 800222e:	681b      	ldr	r3, [r3, #0]
 8002230:	2b09      	cmp	r3, #9
 8002232:	d925      	bls.n	8002280 <HAL_ADC_ConfigChannel+0x78>
 8002234:	687b      	ldr	r3, [r7, #4]
 8002236:	681b      	ldr	r3, [r3, #0]
 8002238:	68d9      	ldr	r1, [r3, #12]
 800223a:	683b      	ldr	r3, [r7, #0]
 800223c:	681b      	ldr	r3, [r3, #0]
 800223e:	b29b      	uxth	r3, r3
 8002240:	461a      	mov	r2, r3
 8002242:	4613      	mov	r3, r2
 8002244:	005b      	lsls	r3, r3, #1
 8002246:	4413      	add	r3, r2
 8002248:	3b1e      	subs	r3, #30
 800224a:	2207      	movs	r2, #7
 800224c:	fa02 f303 	lsl.w	r3, r2, r3
 8002250:	43da      	mvns	r2, r3
 8002252:	687b      	ldr	r3, [r7, #4]
 8002254:	681b      	ldr	r3, [r3, #0]
 8002256:	400a      	ands	r2, r1
 8002258:	60da      	str	r2, [r3, #12]
 800225a:	687b      	ldr	r3, [r7, #4]
 800225c:	681b      	ldr	r3, [r3, #0]
 800225e:	68d9      	ldr	r1, [r3, #12]
 8002260:	683b      	ldr	r3, [r7, #0]
 8002262:	689a      	ldr	r2, [r3, #8]
 8002264:	683b      	ldr	r3, [r7, #0]
 8002266:	681b      	ldr	r3, [r3, #0]
 8002268:	b29b      	uxth	r3, r3
 800226a:	4618      	mov	r0, r3
 800226c:	4603      	mov	r3, r0
 800226e:	005b      	lsls	r3, r3, #1
 8002270:	4403      	add	r3, r0
 8002272:	3b1e      	subs	r3, #30
 8002274:	409a      	lsls	r2, r3
 8002276:	687b      	ldr	r3, [r7, #4]
 8002278:	681b      	ldr	r3, [r3, #0]
 800227a:	430a      	orrs	r2, r1
 800227c:	60da      	str	r2, [r3, #12]
 800227e:	e022      	b.n	80022c6 <HAL_ADC_ConfigChannel+0xbe>
 8002280:	687b      	ldr	r3, [r7, #4]
 8002282:	681b      	ldr	r3, [r3, #0]
 8002284:	6919      	ldr	r1, [r3, #16]
 8002286:	683b      	ldr	r3, [r7, #0]
 8002288:	681b      	ldr	r3, [r3, #0]
 800228a:	b29b      	uxth	r3, r3
 800228c:	461a      	mov	r2, r3
 800228e:	4613      	mov	r3, r2
 8002290:	005b      	lsls	r3, r3, #1
 8002292:	4413      	add	r3, r2
 8002294:	2207      	movs	r2, #7
 8002296:	fa02 f303 	lsl.w	r3, r2, r3
 800229a:	43da      	mvns	r2, r3
 800229c:	687b      	ldr	r3, [r7, #4]
 800229e:	681b      	ldr	r3, [r3, #0]
 80022a0:	400a      	ands	r2, r1
 80022a2:	611a      	str	r2, [r3, #16]
 80022a4:	687b      	ldr	r3, [r7, #4]
 80022a6:	681b      	ldr	r3, [r3, #0]
 80022a8:	6919      	ldr	r1, [r3, #16]
 80022aa:	683b      	ldr	r3, [r7, #0]
 80022ac:	689a      	ldr	r2, [r3, #8]
 80022ae:	683b      	ldr	r3, [r7, #0]
 80022b0:	681b      	ldr	r3, [r3, #0]
 80022b2:	b29b      	uxth	r3, r3
 80022b4:	4618      	mov	r0, r3
 80022b6:	4603      	mov	r3, r0
 80022b8:	005b      	lsls	r3, r3, #1
 80022ba:	4403      	add	r3, r0
 80022bc:	409a      	lsls	r2, r3
 80022be:	687b      	ldr	r3, [r7, #4]
 80022c0:	681b      	ldr	r3, [r3, #0]
 80022c2:	430a      	orrs	r2, r1
 80022c4:	611a      	str	r2, [r3, #16]
 80022c6:	683b      	ldr	r3, [r7, #0]
 80022c8:	685b      	ldr	r3, [r3, #4]
 80022ca:	2b06      	cmp	r3, #6
 80022cc:	d824      	bhi.n	8002318 <HAL_ADC_ConfigChannel+0x110>
 80022ce:	687b      	ldr	r3, [r7, #4]
 80022d0:	681b      	ldr	r3, [r3, #0]
 80022d2:	6b59      	ldr	r1, [r3, #52]	@ 0x34
 80022d4:	683b      	ldr	r3, [r7, #0]
 80022d6:	685a      	ldr	r2, [r3, #4]
 80022d8:	4613      	mov	r3, r2
 80022da:	009b      	lsls	r3, r3, #2
 80022dc:	4413      	add	r3, r2
 80022de:	3b05      	subs	r3, #5
 80022e0:	221f      	movs	r2, #31
 80022e2:	fa02 f303 	lsl.w	r3, r2, r3
 80022e6:	43da      	mvns	r2, r3
 80022e8:	687b      	ldr	r3, [r7, #4]
 80022ea:	681b      	ldr	r3, [r3, #0]
 80022ec:	400a      	ands	r2, r1
 80022ee:	635a      	str	r2, [r3, #52]	@ 0x34
 80022f0:	687b      	ldr	r3, [r7, #4]
 80022f2:	681b      	ldr	r3, [r3, #0]
 80022f4:	6b59      	ldr	r1, [r3, #52]	@ 0x34
 80022f6:	683b      	ldr	r3, [r7, #0]
 80022f8:	681b      	ldr	r3, [r3, #0]
 80022fa:	b29b      	uxth	r3, r3
 80022fc:	4618      	mov	r0, r3
 80022fe:	683b      	ldr	r3, [r7, #0]
 8002300:	685a      	ldr	r2, [r3, #4]
 8002302:	4613      	mov	r3, r2
 8002304:	009b      	lsls	r3, r3, #2
 8002306:	4413      	add	r3, r2
 8002308:	3b05      	subs	r3, #5
 800230a:	fa00 f203 	lsl.w	r2, r0, r3
 800230e:	687b      	ldr	r3, [r7, #4]
 8002310:	681b      	ldr	r3, [r3, #0]
 8002312:	430a      	orrs	r2, r1
 8002314:	635a      	str	r2, [r3, #52]	@ 0x34
 8002316:	e04c      	b.n	80023b2 <HAL_ADC_ConfigChannel+0x1aa>
 8002318:	683b      	ldr	r3, [r7, #0]
 800231a:	685b      	ldr	r3, [r3, #4]
 800231c:	2b0c      	cmp	r3, #12
 800231e:	d824      	bhi.n	800236a <HAL_ADC_ConfigChannel+0x162>
 8002320:	687b      	ldr	r3, [r7, #4]
 8002322:	681b      	ldr	r3, [r3, #0]
 8002324:	6b19      	ldr	r1, [r3, #48]	@ 0x30
 8002326:	683b      	ldr	r3, [r7, #0]
 8002328:	685a      	ldr	r2, [r3, #4]
 800232a:	4613      	mov	r3, r2
 800232c:	009b      	lsls	r3, r3, #2
 800232e:	4413      	add	r3, r2
 8002330:	3b23      	subs	r3, #35	@ 0x23
 8002332:	221f      	movs	r2, #31
 8002334:	fa02 f303 	lsl.w	r3, r2, r3
 8002338:	43da      	mvns	r2, r3
 800233a:	687b      	ldr	r3, [r7, #4]
 800233c:	681b      	ldr	r3, [r3, #0]
 800233e:	400a      	ands	r2, r1
 8002340:	631a      	str	r2, [r3, #48]	@ 0x30
 8002342:	687b      	ldr	r3, [r7, #4]
 8002344:	681b      	ldr	r3, [r3, #0]
 8002346:	6b19      	ldr	r1, [r3, #48]	@ 0x30
 8002348:	683b      	ldr	r3, [r7, #0]
 800234a:	681b      	ldr	r3, [r3, #0]
 800234c:	b29b      	uxth	r3, r3
 800234e:	4618      	mov	r0, r3
 8002350:	683b      	ldr	r3, [r7, #0]
 8002352:	685a      	ldr	r2, [r3, #4]
 8002354:	4613      	mov	r3, r2
 8002356:	009b      	lsls	r3, r3, #2
 8002358:	4413      	add	r3, r2
 800235a:	3b23      	subs	r3, #35	@ 0x23
 800235c:	fa00 f203 	lsl.w	r2, r0, r3
 8002360:	687b      	ldr	r3, [r7, #4]
 8002362:	681b      	ldr	r3, [r3, #0]
 8002364:	430a      	orrs	r2, r1
 8002366:	631a      	str	r2, [r3, #48]	@ 0x30
 8002368:	e023      	b.n	80023b2 <HAL_ADC_ConfigChannel+0x1aa>
 800236a:	687b      	ldr	r3, [r7, #4]
 800236c:	681b      	ldr	r3, [r3, #0]
 800236e:	6ad9      	ldr	r1, [r3, #44]	@ 0x2c
 8002370:	683b      	ldr	r3, [r7, #0]
 8002372:	685a      	ldr	r2, [r3, #4]
 8002374:	4613      	mov	r3, r2
 8002376:	009b      	lsls	r3, r3, #2
 8002378:	4413      	add	r3, r2
 800237a:	3b41      	subs	r3, #65	@ 0x41
 800237c:	221f      	movs	r2, #31
 800237e:	fa02 f303 	lsl.w	r3, r2, r3
 8002382:	43da      	mvns	r2, r3
 8002384:	687b      	ldr	r3, [r7, #4]
 8002386:	681b      	ldr	r3, [r3, #0]
 8002388:	400a      	ands	r2, r1
 800238a:	62da      	str	r2, [r3, #44]	@ 0x2c
 800238c:	687b      	ldr	r3, [r7, #4]
 800238e:	681b      	ldr	r3, [r3, #0]
 8002390:	6ad9      	ldr	r1, [r3, #44]	@ 0x2c
 8002392:	683b      	ldr	r3, [r7, #0]
 8002394:	681b      	ldr	r3, [r3, #0]
 8002396:	b29b      	uxth	r3, r3
 8002398:	4618      	mov	r0, r3
 800239a:	683b      	ldr	r3, [r7, #0]
 800239c:	685a      	ldr	r2, [r3, #4]
 800239e:	4613      	mov	r3, r2
 80023a0:	009b      	lsls	r3, r3, #2
 80023a2:	4413      	add	r3, r2
 80023a4:	3b41      	subs	r3, #65	@ 0x41
 80023a6:	fa00 f203 	lsl.w	r2, r0, r3
 80023aa:	687b      	ldr	r3, [r7, #4]
 80023ac:	681b      	ldr	r3, [r3, #0]
 80023ae:	430a      	orrs	r2, r1
 80023b0:	62da      	str	r2, [r3, #44]	@ 0x2c
 80023b2:	4b22      	ldr	r3, [pc, #136]	@ (800243c <HAL_ADC_ConfigChannel+0x234>)
 80023b4:	60fb      	str	r3, [r7, #12]
 80023b6:	687b      	ldr	r3, [r7, #4]
 80023b8:	681b      	ldr	r3, [r3, #0]
 80023ba:	4a21      	ldr	r2, [pc, #132]	@ (8002440 <HAL_ADC_ConfigChannel+0x238>)
 80023bc:	4293      	cmp	r3, r2
 80023be:	d109      	bne.n	80023d4 <HAL_ADC_ConfigChannel+0x1cc>
 80023c0:	683b      	ldr	r3, [r7, #0]
 80023c2:	681b      	ldr	r3, [r3, #0]
 80023c4:	2b12      	cmp	r3, #18
 80023c6:	d105      	bne.n	80023d4 <HAL_ADC_ConfigChannel+0x1cc>
 80023c8:	68fb      	ldr	r3, [r7, #12]
 80023ca:	685b      	ldr	r3, [r3, #4]
 80023cc:	f443 0280 	orr.w	r2, r3, #4194304	@ 0x400000
 80023d0:	68fb      	ldr	r3, [r7, #12]
 80023d2:	605a      	str	r2, [r3, #4]
 80023d4:	687b      	ldr	r3, [r7, #4]
 80023d6:	681b      	ldr	r3, [r3, #0]
 80023d8:	4a19      	ldr	r2, [pc, #100]	@ (8002440 <HAL_ADC_ConfigChannel+0x238>)
 80023da:	4293      	cmp	r3, r2
 80023dc:	d123      	bne.n	8002426 <HAL_ADC_ConfigChannel+0x21e>
 80023de:	683b      	ldr	r3, [r7, #0]
 80023e0:	681b      	ldr	r3, [r3, #0]
 80023e2:	2b10      	cmp	r3, #16
 80023e4:	d003      	beq.n	80023ee <HAL_ADC_ConfigChannel+0x1e6>
 80023e6:	683b      	ldr	r3, [r7, #0]
 80023e8:	681b      	ldr	r3, [r3, #0]
 80023ea:	2b11      	cmp	r3, #17
 80023ec:	d11b      	bne.n	8002426 <HAL_ADC_ConfigChannel+0x21e>
 80023ee:	68fb      	ldr	r3, [r7, #12]
 80023f0:	685b      	ldr	r3, [r3, #4]
 80023f2:	f443 0200 	orr.w	r2, r3, #8388608	@ 0x800000
 80023f6:	68fb      	ldr	r3, [r7, #12]
 80023f8:	605a      	str	r2, [r3, #4]
 80023fa:	683b      	ldr	r3, [r7, #0]
 80023fc:	681b      	ldr	r3, [r3, #0]
 80023fe:	2b10      	cmp	r3, #16
 8002400:	d111      	bne.n	8002426 <HAL_ADC_ConfigChannel+0x21e>
 8002402:	4b10      	ldr	r3, [pc, #64]	@ (8002444 <HAL_ADC_ConfigChannel+0x23c>)
 8002404:	681b      	ldr	r3, [r3, #0]
 8002406:	4a10      	ldr	r2, [pc, #64]	@ (8002448 <HAL_ADC_ConfigChannel+0x240>)
 8002408:	fba2 2303 	umull	r2, r3, r2, r3
 800240c:	0c9a      	lsrs	r2, r3, #18
 800240e:	4613      	mov	r3, r2
 8002410:	009b      	lsls	r3, r3, #2
 8002412:	4413      	add	r3, r2
 8002414:	005b      	lsls	r3, r3, #1
 8002416:	60bb      	str	r3, [r7, #8]
 8002418:	e002      	b.n	8002420 <HAL_ADC_ConfigChannel+0x218>
 800241a:	68bb      	ldr	r3, [r7, #8]
 800241c:	3b01      	subs	r3, #1
 800241e:	60bb      	str	r3, [r7, #8]
 8002420:	68bb      	ldr	r3, [r7, #8]
 8002422:	2b00      	cmp	r3, #0
 8002424:	d1f9      	bne.n	800241a <HAL_ADC_ConfigChannel+0x212>
 8002426:	687b      	ldr	r3, [r7, #4]
 8002428:	2200      	movs	r2, #0
 800242a:	f883 203c 	strb.w	r2, [r3, #60]	@ 0x3c
 800242e:	2300      	movs	r3, #0
 8002430:	4618      	mov	r0, r3
 8002432:	3714      	adds	r7, #20
 8002434:	46bd      	mov	sp, r7
 8002436:	f85d 7b04 	ldr.w	r7, [sp], #4
 800243a:	4770      	bx	lr
 800243c:	40012300 	.word	0x40012300
 8002440:	40012000 	.word	0x40012000
 8002444:	20000000 	.word	0x20000000
 8002448:	431bde83 	.word	0x431bde83

0800244c <ADC_Init>:
 800244c:	b480      	push	{r7}
 800244e:	b085      	sub	sp, #20
 8002450:	af00      	add	r7, sp, #0
 8002452:	6078      	str	r0, [r7, #4]
 8002454:	4b79      	ldr	r3, [pc, #484]	@ (800263c <ADC_Init+0x1f0>)
 8002456:	60fb      	str	r3, [r7, #12]
 8002458:	68fb      	ldr	r3, [r7, #12]
 800245a:	685b      	ldr	r3, [r3, #4]
 800245c:	f423 3240 	bic.w	r2, r3, #196608	@ 0x30000
 8002460:	68fb      	ldr	r3, [r7, #12]
 8002462:	605a      	str	r2, [r3, #4]
 8002464:	68fb      	ldr	r3, [r7, #12]
 8002466:	685a      	ldr	r2, [r3, #4]
 8002468:	687b      	ldr	r3, [r7, #4]
 800246a:	685b      	ldr	r3, [r3, #4]
 800246c:	431a      	orrs	r2, r3
 800246e:	68fb      	ldr	r3, [r7, #12]
 8002470:	605a      	str	r2, [r3, #4]
 8002472:	687b      	ldr	r3, [r7, #4]
 8002474:	681b      	ldr	r3, [r3, #0]
 8002476:	685a      	ldr	r2, [r3, #4]
 8002478:	687b      	ldr	r3, [r7, #4]
 800247a:	681b      	ldr	r3, [r3, #0]
 800247c:	f422 7280 	bic.w	r2, r2, #256	@ 0x100
 8002480:	605a      	str	r2, [r3, #4]
 8002482:	687b      	ldr	r3, [r7, #4]
 8002484:	681b      	ldr	r3, [r3, #0]
 8002486:	6859      	ldr	r1, [r3, #4]
 8002488:	687b      	ldr	r3, [r7, #4]
 800248a:	691b      	ldr	r3, [r3, #16]
 800248c:	021a      	lsls	r2, r3, #8
 800248e:	687b      	ldr	r3, [r7, #4]
 8002490:	681b      	ldr	r3, [r3, #0]
 8002492:	430a      	orrs	r2, r1
 8002494:	605a      	str	r2, [r3, #4]
 8002496:	687b      	ldr	r3, [r7, #4]
 8002498:	681b      	ldr	r3, [r3, #0]
 800249a:	685a      	ldr	r2, [r3, #4]
 800249c:	687b      	ldr	r3, [r7, #4]
 800249e:	681b      	ldr	r3, [r3, #0]
 80024a0:	f022 7240 	bic.w	r2, r2, #50331648	@ 0x3000000
 80024a4:	605a      	str	r2, [r3, #4]
 80024a6:	687b      	ldr	r3, [r7, #4]
 80024a8:	681b      	ldr	r3, [r3, #0]
 80024aa:	6859      	ldr	r1, [r3, #4]
 80024ac:	687b      	ldr	r3, [r7, #4]
 80024ae:	689a      	ldr	r2, [r3, #8]
 80024b0:	687b      	ldr	r3, [r7, #4]
 80024b2:	681b      	ldr	r3, [r3, #0]
 80024b4:	430a      	orrs	r2, r1
 80024b6:	605a      	str	r2, [r3, #4]
 80024b8:	687b      	ldr	r3, [r7, #4]
 80024ba:	681b      	ldr	r3, [r3, #0]
 80024bc:	689a      	ldr	r2, [r3, #8]
 80024be:	687b      	ldr	r3, [r7, #4]
 80024c0:	681b      	ldr	r3, [r3, #0]
 80024c2:	f422 6200 	bic.w	r2, r2, #2048	@ 0x800
 80024c6:	609a      	str	r2, [r3, #8]
 80024c8:	687b      	ldr	r3, [r7, #4]
 80024ca:	681b      	ldr	r3, [r3, #0]
 80024cc:	6899      	ldr	r1, [r3, #8]
 80024ce:	687b      	ldr	r3, [r7, #4]
 80024d0:	68da      	ldr	r2, [r3, #12]
 80024d2:	687b      	ldr	r3, [r7, #4]
 80024d4:	681b      	ldr	r3, [r3, #0]
 80024d6:	430a      	orrs	r2, r1
 80024d8:	609a      	str	r2, [r3, #8]
 80024da:	687b      	ldr	r3, [r7, #4]
 80024dc:	6a9b      	ldr	r3, [r3, #40]	@ 0x28
 80024de:	4a58      	ldr	r2, [pc, #352]	@ (8002640 <ADC_Init+0x1f4>)
 80024e0:	4293      	cmp	r3, r2
 80024e2:	d022      	beq.n	800252a <ADC_Init+0xde>
 80024e4:	687b      	ldr	r3, [r7, #4]
 80024e6:	681b      	ldr	r3, [r3, #0]
 80024e8:	689a      	ldr	r2, [r3, #8]
 80024ea:	687b      	ldr	r3, [r7, #4]
 80024ec:	681b      	ldr	r3, [r3, #0]
 80024ee:	f022 6270 	bic.w	r2, r2, #251658240	@ 0xf000000
 80024f2:	609a      	str	r2, [r3, #8]
 80024f4:	687b      	ldr	r3, [r7, #4]
 80024f6:	681b      	ldr	r3, [r3, #0]
 80024f8:	6899      	ldr	r1, [r3, #8]
 80024fa:	687b      	ldr	r3, [r7, #4]
 80024fc:	6a9a      	ldr	r2, [r3, #40]	@ 0x28
 80024fe:	687b      	ldr	r3, [r7, #4]
 8002500:	681b      	ldr	r3, [r3, #0]
 8002502:	430a      	orrs	r2, r1
 8002504:	609a      	str	r2, [r3, #8]
 8002506:	687b      	ldr	r3, [r7, #4]
 8002508:	681b      	ldr	r3, [r3, #0]
 800250a:	689a      	ldr	r2, [r3, #8]
 800250c:	687b      	ldr	r3, [r7, #4]
 800250e:	681b      	ldr	r3, [r3, #0]
 8002510:	f022 5240 	bic.w	r2, r2, #805306368	@ 0x30000000
 8002514:	609a      	str	r2, [r3, #8]
 8002516:	687b      	ldr	r3, [r7, #4]
 8002518:	681b      	ldr	r3, [r3, #0]
 800251a:	6899      	ldr	r1, [r3, #8]
 800251c:	687b      	ldr	r3, [r7, #4]
 800251e:	6ada      	ldr	r2, [r3, #44]	@ 0x2c
 8002520:	687b      	ldr	r3, [r7, #4]
 8002522:	681b      	ldr	r3, [r3, #0]
 8002524:	430a      	orrs	r2, r1
 8002526:	609a      	str	r2, [r3, #8]
 8002528:	e00f      	b.n	800254a <ADC_Init+0xfe>
 800252a:	687b      	ldr	r3, [r7, #4]
 800252c:	681b      	ldr	r3, [r3, #0]
 800252e:	689a      	ldr	r2, [r3, #8]
 8002530:	687b      	ldr	r3, [r7, #4]
 8002532:	681b      	ldr	r3, [r3, #0]
 8002534:	f022 6270 	bic.w	r2, r2, #251658240	@ 0xf000000
 8002538:	609a      	str	r2, [r3, #8]
 800253a:	687b      	ldr	r3, [r7, #4]
 800253c:	681b      	ldr	r3, [r3, #0]
 800253e:	689a      	ldr	r2, [r3, #8]
 8002540:	687b      	ldr	r3, [r7, #4]
 8002542:	681b      	ldr	r3, [r3, #0]
 8002544:	f022 5240 	bic.w	r2, r2, #805306368	@ 0x30000000
 8002548:	609a      	str	r2, [r3, #8]
 800254a:	687b      	ldr	r3, [r7, #4]
 800254c:	681b      	ldr	r3, [r3, #0]
 800254e:	689a      	ldr	r2, [r3, #8]
 8002550:	687b      	ldr	r3, [r7, #4]
 8002552:	681b      	ldr	r3, [r3, #0]
 8002554:	f022 0202 	bic.w	r2, r2, #2
 8002558:	609a      	str	r2, [r3, #8]
 800255a:	687b      	ldr	r3, [r7, #4]
 800255c:	681b      	ldr	r3, [r3, #0]
 800255e:	6899      	ldr	r1, [r3, #8]
 8002560:	687b      	ldr	r3, [r7, #4]
 8002562:	7e1b      	ldrb	r3, [r3, #24]
 8002564:	005a      	lsls	r2, r3, #1
 8002566:	687b      	ldr	r3, [r7, #4]
 8002568:	681b      	ldr	r3, [r3, #0]
 800256a:	430a      	orrs	r2, r1
 800256c:	609a      	str	r2, [r3, #8]
 800256e:	687b      	ldr	r3, [r7, #4]
 8002570:	f893 3020 	ldrb.w	r3, [r3, #32]
 8002574:	2b00      	cmp	r3, #0
 8002576:	d01b      	beq.n	80025b0 <ADC_Init+0x164>
 8002578:	687b      	ldr	r3, [r7, #4]
 800257a:	681b      	ldr	r3, [r3, #0]
 800257c:	685a      	ldr	r2, [r3, #4]
 800257e:	687b      	ldr	r3, [r7, #4]
 8002580:	681b      	ldr	r3, [r3, #0]
 8002582:	f442 6200 	orr.w	r2, r2, #2048	@ 0x800
 8002586:	605a      	str	r2, [r3, #4]
 8002588:	687b      	ldr	r3, [r7, #4]
 800258a:	681b      	ldr	r3, [r3, #0]
 800258c:	685a      	ldr	r2, [r3, #4]
 800258e:	687b      	ldr	r3, [r7, #4]
 8002590:	681b      	ldr	r3, [r3, #0]
 8002592:	f422 4260 	bic.w	r2, r2, #57344	@ 0xe000
 8002596:	605a      	str	r2, [r3, #4]
 8002598:	687b      	ldr	r3, [r7, #4]
 800259a:	681b      	ldr	r3, [r3, #0]
 800259c:	6859      	ldr	r1, [r3, #4]
 800259e:	687b      	ldr	r3, [r7, #4]
 80025a0:	6a5b      	ldr	r3, [r3, #36]	@ 0x24
 80025a2:	3b01      	subs	r3, #1
 80025a4:	035a      	lsls	r2, r3, #13
 80025a6:	687b      	ldr	r3, [r7, #4]
 80025a8:	681b      	ldr	r3, [r3, #0]
 80025aa:	430a      	orrs	r2, r1
 80025ac:	605a      	str	r2, [r3, #4]
 80025ae:	e007      	b.n	80025c0 <ADC_Init+0x174>
 80025b0:	687b      	ldr	r3, [r7, #4]
 80025b2:	681b      	ldr	r3, [r3, #0]
 80025b4:	685a      	ldr	r2, [r3, #4]
 80025b6:	687b      	ldr	r3, [r7, #4]
 80025b8:	681b      	ldr	r3, [r3, #0]
 80025ba:	f422 6200 	bic.w	r2, r2, #2048	@ 0x800
 80025be:	605a      	str	r2, [r3, #4]
 80025c0:	687b      	ldr	r3, [r7, #4]
 80025c2:	681b      	ldr	r3, [r3, #0]
 80025c4:	6ada      	ldr	r2, [r3, #44]	@ 0x2c
 80025c6:	687b      	ldr	r3, [r7, #4]
 80025c8:	681b      	ldr	r3, [r3, #0]
 80025ca:	f422 0270 	bic.w	r2, r2, #15728640	@ 0xf00000
 80025ce:	62da      	str	r2, [r3, #44]	@ 0x2c
 80025d0:	687b      	ldr	r3, [r7, #4]
 80025d2:	681b      	ldr	r3, [r3, #0]
 80025d4:	6ad9      	ldr	r1, [r3, #44]	@ 0x2c
 80025d6:	687b      	ldr	r3, [r7, #4]
 80025d8:	69db      	ldr	r3, [r3, #28]
 80025da:	3b01      	subs	r3, #1
 80025dc:	051a      	lsls	r2, r3, #20
 80025de:	687b      	ldr	r3, [r7, #4]
 80025e0:	681b      	ldr	r3, [r3, #0]
 80025e2:	430a      	orrs	r2, r1
 80025e4:	62da      	str	r2, [r3, #44]	@ 0x2c
 80025e6:	687b      	ldr	r3, [r7, #4]
 80025e8:	681b      	ldr	r3, [r3, #0]
 80025ea:	689a      	ldr	r2, [r3, #8]
 80025ec:	687b      	ldr	r3, [r7, #4]
 80025ee:	681b      	ldr	r3, [r3, #0]
 80025f0:	f422 7200 	bic.w	r2, r2, #512	@ 0x200
 80025f4:	609a      	str	r2, [r3, #8]
 80025f6:	687b      	ldr	r3, [r7, #4]
 80025f8:	681b      	ldr	r3, [r3, #0]
 80025fa:	6899      	ldr	r1, [r3, #8]
 80025fc:	687b      	ldr	r3, [r7, #4]
 80025fe:	f893 3030 	ldrb.w	r3, [r3, #48]	@ 0x30
 8002602:	025a      	lsls	r2, r3, #9
 8002604:	687b      	ldr	r3, [r7, #4]
 8002606:	681b      	ldr	r3, [r3, #0]
 8002608:	430a      	orrs	r2, r1
 800260a:	609a      	str	r2, [r3, #8]
 800260c:	687b      	ldr	r3, [r7, #4]
 800260e:	681b      	ldr	r3, [r3, #0]
 8002610:	689a      	ldr	r2, [r3, #8]
 8002612:	687b      	ldr	r3, [r7, #4]
 8002614:	681b      	ldr	r3, [r3, #0]
 8002616:	f422 6280 	bic.w	r2, r2, #1024	@ 0x400
 800261a:	609a      	str	r2, [r3, #8]
 800261c:	687b      	ldr	r3, [r7, #4]
 800261e:	681b      	ldr	r3, [r3, #0]
 8002620:	6899      	ldr	r1, [r3, #8]
 8002622:	687b      	ldr	r3, [r7, #4]
 8002624:	695b      	ldr	r3, [r3, #20]
 8002626:	029a      	lsls	r2, r3, #10
 8002628:	687b      	ldr	r3, [r7, #4]
 800262a:	681b      	ldr	r3, [r3, #0]
 800262c:	430a      	orrs	r2, r1
 800262e:	609a      	str	r2, [r3, #8]
 8002630:	bf00      	nop
 8002632:	3714      	adds	r7, #20
 8002634:	46bd      	mov	sp, r7
 8002636:	f85d 7b04 	ldr.w	r7, [sp], #4
 800263a:	4770      	bx	lr
 800263c:	40012300 	.word	0x40012300
 8002640:	0f000001 	.word	0x0f000001

08002644 <__NVIC_SetPriorityGrouping>:
 8002644:	b480      	push	{r7}
 8002646:	b085      	sub	sp, #20
 8002648:	af00      	add	r7, sp, #0
 800264a:	6078      	str	r0, [r7, #4]
 800264c:	687b      	ldr	r3, [r7, #4]
 800264e:	f003 0307 	and.w	r3, r3, #7
 8002652:	60fb      	str	r3, [r7, #12]
 8002654:	4b0c      	ldr	r3, [pc, #48]	@ (8002688 <__NVIC_SetPriorityGrouping+0x44>)
 8002656:	68db      	ldr	r3, [r3, #12]
 8002658:	60bb      	str	r3, [r7, #8]
 800265a:	68ba      	ldr	r2, [r7, #8]
 800265c:	f64f 03ff 	movw	r3, #63743	@ 0xf8ff
 8002660:	4013      	ands	r3, r2
 8002662:	60bb      	str	r3, [r7, #8]
 8002664:	68fb      	ldr	r3, [r7, #12]
 8002666:	021a      	lsls	r2, r3, #8
 8002668:	68bb      	ldr	r3, [r7, #8]
 800266a:	4313      	orrs	r3, r2
 800266c:	f043 63bf 	orr.w	r3, r3, #100139008	@ 0x5f80000
 8002670:	f443 3300 	orr.w	r3, r3, #131072	@ 0x20000
 8002674:	60bb      	str	r3, [r7, #8]
 8002676:	4a04      	ldr	r2, [pc, #16]	@ (8002688 <__NVIC_SetPriorityGrouping+0x44>)
 8002678:	68bb      	ldr	r3, [r7, #8]
 800267a:	60d3      	str	r3, [r2, #12]
 800267c:	bf00      	nop
 800267e:	3714      	adds	r7, #20
 8002680:	46bd      	mov	sp, r7
 8002682:	f85d 7b04 	ldr.w	r7, [sp], #4
 8002686:	4770      	bx	lr
 8002688:	e000ed00 	.word	0xe000ed00

0800268c <__NVIC_GetPriorityGrouping>:
 800268c:	b480      	push	{r7}
 800268e:	af00      	add	r7, sp, #0
 8002690:	4b04      	ldr	r3, [pc, #16]	@ (80026a4 <__NVIC_GetPriorityGrouping+0x18>)
 8002692:	68db      	ldr	r3, [r3, #12]
 8002694:	0a1b      	lsrs	r3, r3, #8
 8002696:	f003 0307 	and.w	r3, r3, #7
 800269a:	4618      	mov	r0, r3
 800269c:	46bd      	mov	sp, r7
 800269e:	f85d 7b04 	ldr.w	r7, [sp], #4
 80026a2:	4770      	bx	lr
 80026a4:	e000ed00 	.word	0xe000ed00

080026a8 <__NVIC_EnableIRQ>:
 80026a8:	b480      	push	{r7}
 80026aa:	b083      	sub	sp, #12
 80026ac:	af00      	add	r7, sp, #0
 80026ae:	4603      	mov	r3, r0
 80026b0:	71fb      	strb	r3, [r7, #7]
 80026b2:	f997 3007 	ldrsb.w	r3, [r7, #7]
 80026b6:	2b00      	cmp	r3, #0
 80026b8:	db0b      	blt.n	80026d2 <__NVIC_EnableIRQ+0x2a>
 80026ba:	79fb      	ldrb	r3, [r7, #7]
 80026bc:	f003 021f 	and.w	r2, r3, #31
 80026c0:	4907      	ldr	r1, [pc, #28]	@ (80026e0 <__NVIC_EnableIRQ+0x38>)
 80026c2:	f997 3007 	ldrsb.w	r3, [r7, #7]
 80026c6:	095b      	lsrs	r3, r3, #5
 80026c8:	2001      	movs	r0, #1
 80026ca:	fa00 f202 	lsl.w	r2, r0, r2
 80026ce:	f841 2023 	str.w	r2, [r1, r3, lsl #2]
 80026d2:	bf00      	nop
 80026d4:	370c      	adds	r7, #12
 80026d6:	46bd      	mov	sp, r7
 80026d8:	f85d 7b04 	ldr.w	r7, [sp], #4
 80026dc:	4770      	bx	lr
 80026de:	bf00      	nop
 80026e0:	e000e100 	.word	0xe000e100

080026e4 <__NVIC_SetPriority>:
 80026e4:	b480      	push	{r7}
 80026e6:	b083      	sub	sp, #12
 80026e8:	af00      	add	r7, sp, #0
 80026ea:	4603      	mov	r3, r0
 80026ec:	6039      	str	r1, [r7, #0]
 80026ee:	71fb      	strb	r3, [r7, #7]
 80026f0:	f997 3007 	ldrsb.w	r3, [r7, #7]
 80026f4:	2b00      	cmp	r3, #0
 80026f6:	db0a      	blt.n	800270e <__NVIC_SetPriority+0x2a>
 80026f8:	683b      	ldr	r3, [r7, #0]
 80026fa:	b2da      	uxtb	r2, r3
 80026fc:	490c      	ldr	r1, [pc, #48]	@ (8002730 <__NVIC_SetPriority+0x4c>)
 80026fe:	f997 3007 	ldrsb.w	r3, [r7, #7]
 8002702:	0112      	lsls	r2, r2, #4
 8002704:	b2d2      	uxtb	r2, r2
 8002706:	440b      	add	r3, r1
 8002708:	f883 2300 	strb.w	r2, [r3, #768]	@ 0x300
 800270c:	e00a      	b.n	8002724 <__NVIC_SetPriority+0x40>
 800270e:	683b      	ldr	r3, [r7, #0]
 8002710:	b2da      	uxtb	r2, r3
 8002712:	4908      	ldr	r1, [pc, #32]	@ (8002734 <__NVIC_SetPriority+0x50>)
 8002714:	79fb      	ldrb	r3, [r7, #7]
 8002716:	f003 030f 	and.w	r3, r3, #15
 800271a:	3b04      	subs	r3, #4
 800271c:	0112      	lsls	r2, r2, #4
 800271e:	b2d2      	uxtb	r2, r2
 8002720:	440b      	add	r3, r1
 8002722:	761a      	strb	r2, [r3, #24]
 8002724:	bf00      	nop
 8002726:	370c      	adds	r7, #12
 8002728:	46bd      	mov	sp, r7
 800272a:	f85d 7b04 	ldr.w	r7, [sp], #4
 800272e:	4770      	bx	lr
 8002730:	e000e100 	.word	0xe000e100
 8002734:	e000ed00 	.word	0xe000ed00

08002738 <NVIC_EncodePriority>:
 8002738:	b480      	push	{r7}
 800273a:	b089      	sub	sp, #36	@ 0x24
 800273c:	af00      	add	r7, sp, #0
 800273e:	60f8      	str	r0, [r7, #12]
 8002740:	60b9      	str	r1, [r7, #8]
 8002742:	607a      	str	r2, [r7, #4]
 8002744:	68fb      	ldr	r3, [r7, #12]
 8002746:	f003 0307 	and.w	r3, r3, #7
 800274a:	61fb      	str	r3, [r7, #28]
 800274c:	69fb      	ldr	r3, [r7, #28]
 800274e:	f1c3 0307 	rsb	r3, r3, #7
 8002752:	2b04      	cmp	r3, #4
 8002754:	bf28      	it	cs
 8002756:	2304      	movcs	r3, #4
 8002758:	61bb      	str	r3, [r7, #24]
 800275a:	69fb      	ldr	r3, [r7, #28]
 800275c:	3304      	adds	r3, #4
 800275e:	2b06      	cmp	r3, #6
 8002760:	d902      	bls.n	8002768 <NVIC_EncodePriority+0x30>
 8002762:	69fb      	ldr	r3, [r7, #28]
 8002764:	3b03      	subs	r3, #3
 8002766:	e000      	b.n	800276a <NVIC_EncodePriority+0x32>
 8002768:	2300      	movs	r3, #0
 800276a:	617b      	str	r3, [r7, #20]
 800276c:	f04f 32ff 	mov.w	r2, #4294967295
 8002770:	69bb      	ldr	r3, [r7, #24]
 8002772:	fa02 f303 	lsl.w	r3, r2, r3
 8002776:	43da      	mvns	r2, r3
 8002778:	68bb      	ldr	r3, [r7, #8]
 800277a:	401a      	ands	r2, r3
 800277c:	697b      	ldr	r3, [r7, #20]
 800277e:	409a      	lsls	r2, r3
 8002780:	f04f 31ff 	mov.w	r1, #4294967295
 8002784:	697b      	ldr	r3, [r7, #20]
 8002786:	fa01 f303 	lsl.w	r3, r1, r3
 800278a:	43d9      	mvns	r1, r3
 800278c:	687b      	ldr	r3, [r7, #4]
 800278e:	400b      	ands	r3, r1
 8002790:	4313      	orrs	r3, r2
 8002792:	4618      	mov	r0, r3
 8002794:	3724      	adds	r7, #36	@ 0x24
 8002796:	46bd      	mov	sp, r7
 8002798:	f85d 7b04 	ldr.w	r7, [sp], #4
 800279c:	4770      	bx	lr
	...

080027a0 <SysTick_Config>:
 80027a0:	b580      	push	{r7, lr}
 80027a2:	b082      	sub	sp, #8
 80027a4:	af00      	add	r7, sp, #0
 80027a6:	6078      	str	r0, [r7, #4]
 80027a8:	687b      	ldr	r3, [r7, #4]
 80027aa:	3b01      	subs	r3, #1
 80027ac:	f1b3 7f80 	cmp.w	r3, #16777216	@ 0x1000000
 80027b0:	d301      	bcc.n	80027b6 <SysTick_Config+0x16>
 80027b2:	2301      	movs	r3, #1
 80027b4:	e00f      	b.n	80027d6 <SysTick_Config+0x36>
 80027b6:	4a0a      	ldr	r2, [pc, #40]	@ (80027e0 <SysTick_Config+0x40>)
 80027b8:	687b      	ldr	r3, [r7, #4]
 80027ba:	3b01      	subs	r3, #1
 80027bc:	6053      	str	r3, [r2, #4]
 80027be:	210f      	movs	r1, #15
 80027c0:	f04f 30ff 	mov.w	r0, #4294967295
 80027c4:	f7ff ff8e 	bl	80026e4 <__NVIC_SetPriority>
 80027c8:	4b05      	ldr	r3, [pc, #20]	@ (80027e0 <SysTick_Config+0x40>)
 80027ca:	2200      	movs	r2, #0
 80027cc:	609a      	str	r2, [r3, #8]
 80027ce:	4b04      	ldr	r3, [pc, #16]	@ (80027e0 <SysTick_Config+0x40>)
 80027d0:	2207      	movs	r2, #7
 80027d2:	601a      	str	r2, [r3, #0]
 80027d4:	2300      	movs	r3, #0
 80027d6:	4618      	mov	r0, r3
 80027d8:	3708      	adds	r7, #8
 80027da:	46bd      	mov	sp, r7
 80027dc:	bd80      	pop	{r7, pc}
 80027de:	bf00      	nop
 80027e0:	e000e010 	.word	0xe000e010

080027e4 <HAL_NVIC_SetPriorityGrouping>:
 80027e4:	b580      	push	{r7, lr}
 80027e6:	b082      	sub	sp, #8
 80027e8:	af00      	add	r7, sp, #0
 80027ea:	6078      	str	r0, [r7, #4]
 80027ec:	6878      	ldr	r0, [r7, #4]
 80027ee:	f7ff ff29 	bl	8002644 <__NVIC_SetPriorityGrouping>
 80027f2:	bf00      	nop
 80027f4:	3708      	adds	r7, #8
 80027f6:	46bd      	mov	sp, r7
 80027f8:	bd80      	pop	{r7, pc}

080027fa <HAL_NVIC_SetPriority>:
 80027fa:	b580      	push	{r7, lr}
 80027fc:	b086      	sub	sp, #24
 80027fe:	af00      	add	r7, sp, #0
 8002800:	4603      	mov	r3, r0
 8002802:	60b9      	str	r1, [r7, #8]
 8002804:	607a      	str	r2, [r7, #4]
 8002806:	73fb      	strb	r3, [r7, #15]
 8002808:	2300      	movs	r3, #0
 800280a:	617b      	str	r3, [r7, #20]
 800280c:	f7ff ff3e 	bl	800268c <__NVIC_GetPriorityGrouping>
 8002810:	6178      	str	r0, [r7, #20]
 8002812:	687a      	ldr	r2, [r7, #4]
 8002814:	68b9      	ldr	r1, [r7, #8]
 8002816:	6978      	ldr	r0, [r7, #20]
 8002818:	f7ff ff8e 	bl	8002738 <NVIC_EncodePriority>
 800281c:	4602      	mov	r2, r0
 800281e:	f997 300f 	ldrsb.w	r3, [r7, #15]
 8002822:	4611      	mov	r1, r2
 8002824:	4618      	mov	r0, r3
 8002826:	f7ff ff5d 	bl	80026e4 <__NVIC_SetPriority>
 800282a:	bf00      	nop
 800282c:	3718      	adds	r7, #24
 800282e:	46bd      	mov	sp, r7
 8002830:	bd80      	pop	{r7, pc}

08002832 <HAL_NVIC_EnableIRQ>:
 8002832:	b580      	push	{r7, lr}
 8002834:	b082      	sub	sp, #8
 8002836:	af00      	add	r7, sp, #0
 8002838:	4603      	mov	r3, r0
 800283a:	71fb      	strb	r3, [r7, #7]
 800283c:	f997 3007 	ldrsb.w	r3, [r7, #7]
 8002840:	4618      	mov	r0, r3
 8002842:	f7ff ff31 	bl	80026a8 <__NVIC_EnableIRQ>
 8002846:	bf00      	nop
 8002848:	3708      	adds	r7, #8
 800284a:	46bd      	mov	sp, r7
 800284c:	bd80      	pop	{r7, pc}

0800284e <HAL_SYSTICK_Config>:
 800284e:	b580      	push	{r7, lr}
 8002850:	b082      	sub	sp, #8
 8002852:	af00      	add	r7, sp, #0
 8002854:	6078      	str	r0, [r7, #4]
 8002856:	6878      	ldr	r0, [r7, #4]
 8002858:	f7ff ffa2 	bl	80027a0 <SysTick_Config>
 800285c:	4603      	mov	r3, r0
 800285e:	4618      	mov	r0, r3
 8002860:	3708      	adds	r7, #8
 8002862:	46bd      	mov	sp, r7
 8002864:	bd80      	pop	{r7, pc}

08002866 <HAL_DMA_Abort>:
 8002866:	b580      	push	{r7, lr}
 8002868:	b084      	sub	sp, #16
 800286a:	af00      	add	r7, sp, #0
 800286c:	6078      	str	r0, [r7, #4]
 800286e:	687b      	ldr	r3, [r7, #4]
 8002870:	6d9b      	ldr	r3, [r3, #88]	@ 0x58
 8002872:	60fb      	str	r3, [r7, #12]
 8002874:	f7ff fc54 	bl	8002120 <HAL_GetTick>
 8002878:	60b8      	str	r0, [r7, #8]
 800287a:	687b      	ldr	r3, [r7, #4]
 800287c:	f893 3035 	ldrb.w	r3, [r3, #53]	@ 0x35
 8002880:	b2db      	uxtb	r3, r3
 8002882:	2b02      	cmp	r3, #2
 8002884:	d008      	beq.n	8002898 <HAL_DMA_Abort+0x32>
 8002886:	687b      	ldr	r3, [r7, #4]
 8002888:	2280      	movs	r2, #128	@ 0x80
 800288a:	655a      	str	r2, [r3, #84]	@ 0x54
 800288c:	687b      	ldr	r3, [r7, #4]
 800288e:	2200      	movs	r2, #0
 8002890:	f883 2034 	strb.w	r2, [r3, #52]	@ 0x34
 8002894:	2301      	movs	r3, #1
 8002896:	e052      	b.n	800293e <HAL_DMA_Abort+0xd8>
 8002898:	687b      	ldr	r3, [r7, #4]
 800289a:	681b      	ldr	r3, [r3, #0]
 800289c:	681a      	ldr	r2, [r3, #0]
 800289e:	687b      	ldr	r3, [r7, #4]
 80028a0:	681b      	ldr	r3, [r3, #0]
 80028a2:	f022 0216 	bic.w	r2, r2, #22
 80028a6:	601a      	str	r2, [r3, #0]
 80028a8:	687b      	ldr	r3, [r7, #4]
 80028aa:	681b      	ldr	r3, [r3, #0]
 80028ac:	695a      	ldr	r2, [r3, #20]
 80028ae:	687b      	ldr	r3, [r7, #4]
 80028b0:	681b      	ldr	r3, [r3, #0]
 80028b2:	f022 0280 	bic.w	r2, r2, #128	@ 0x80
 80028b6:	615a      	str	r2, [r3, #20]
 80028b8:	687b      	ldr	r3, [r7, #4]
 80028ba:	6c1b      	ldr	r3, [r3, #64]	@ 0x40
 80028bc:	2b00      	cmp	r3, #0
 80028be:	d103      	bne.n	80028c8 <HAL_DMA_Abort+0x62>
 80028c0:	687b      	ldr	r3, [r7, #4]
 80028c2:	6c9b      	ldr	r3, [r3, #72]	@ 0x48
 80028c4:	2b00      	cmp	r3, #0
 80028c6:	d007      	beq.n	80028d8 <HAL_DMA_Abort+0x72>
 80028c8:	687b      	ldr	r3, [r7, #4]
 80028ca:	681b      	ldr	r3, [r3, #0]
 80028cc:	681a      	ldr	r2, [r3, #0]
 80028ce:	687b      	ldr	r3, [r7, #4]
 80028d0:	681b      	ldr	r3, [r3, #0]
 80028d2:	f022 0208 	bic.w	r2, r2, #8
 80028d6:	601a      	str	r2, [r3, #0]
 80028d8:	687b      	ldr	r3, [r7, #4]
 80028da:	681b      	ldr	r3, [r3, #0]
 80028dc:	681a      	ldr	r2, [r3, #0]
 80028de:	687b      	ldr	r3, [r7, #4]
 80028e0:	681b      	ldr	r3, [r3, #0]
 80028e2:	f022 0201 	bic.w	r2, r2, #1
 80028e6:	601a      	str	r2, [r3, #0]
 80028e8:	e013      	b.n	8002912 <HAL_DMA_Abort+0xac>
 80028ea:	f7ff fc19 	bl	8002120 <HAL_GetTick>
 80028ee:	4602      	mov	r2, r0
 80028f0:	68bb      	ldr	r3, [r7, #8]
 80028f2:	1ad3      	subs	r3, r2, r3
 80028f4:	2b05      	cmp	r3, #5
 80028f6:	d90c      	bls.n	8002912 <HAL_DMA_Abort+0xac>
 80028f8:	687b      	ldr	r3, [r7, #4]
 80028fa:	2220      	movs	r2, #32
 80028fc:	655a      	str	r2, [r3, #84]	@ 0x54
 80028fe:	687b      	ldr	r3, [r7, #4]
 8002900:	2203      	movs	r2, #3
 8002902:	f883 2035 	strb.w	r2, [r3, #53]	@ 0x35
 8002906:	687b      	ldr	r3, [r7, #4]
 8002908:	2200      	movs	r2, #0
 800290a:	f883 2034 	strb.w	r2, [r3, #52]	@ 0x34
 800290e:	2303      	movs	r3, #3
 8002910:	e015      	b.n	800293e <HAL_DMA_Abort+0xd8>
 8002912:	687b      	ldr	r3, [r7, #4]
 8002914:	681b      	ldr	r3, [r3, #0]
 8002916:	681b      	ldr	r3, [r3, #0]
 8002918:	f003 0301 	and.w	r3, r3, #1
 800291c:	2b00      	cmp	r3, #0
 800291e:	d1e4      	bne.n	80028ea <HAL_DMA_Abort+0x84>
 8002920:	687b      	ldr	r3, [r7, #4]
 8002922:	6ddb      	ldr	r3, [r3, #92]	@ 0x5c
 8002924:	223f      	movs	r2, #63	@ 0x3f
 8002926:	409a      	lsls	r2, r3
 8002928:	68fb      	ldr	r3, [r7, #12]
 800292a:	609a      	str	r2, [r3, #8]
 800292c:	687b      	ldr	r3, [r7, #4]
 800292e:	2201      	movs	r2, #1
 8002930:	f883 2035 	strb.w	r2, [r3, #53]	@ 0x35
 8002934:	687b      	ldr	r3, [r7, #4]
 8002936:	2200      	movs	r2, #0
 8002938:	f883 2034 	strb.w	r2, [r3, #52]	@ 0x34
 800293c:	2300      	movs	r3, #0
 800293e:	4618      	mov	r0, r3
 8002940:	3710      	adds	r7, #16
 8002942:	46bd      	mov	sp, r7
 8002944:	bd80      	pop	{r7, pc}

08002946 <HAL_DMA_Abort_IT>:
 8002946:	b480      	push	{r7}
 8002948:	b083      	sub	sp, #12
 800294a:	af00      	add	r7, sp, #0
 800294c:	6078      	str	r0, [r7, #4]
 800294e:	687b      	ldr	r3, [r7, #4]
 8002950:	f893 3035 	ldrb.w	r3, [r3, #53]	@ 0x35
 8002954:	b2db      	uxtb	r3, r3
 8002956:	2b02      	cmp	r3, #2
 8002958:	d004      	beq.n	8002964 <HAL_DMA_Abort_IT+0x1e>
 800295a:	687b      	ldr	r3, [r7, #4]
 800295c:	2280      	movs	r2, #128	@ 0x80
 800295e:	655a      	str	r2, [r3, #84]	@ 0x54
 8002960:	2301      	movs	r3, #1
 8002962:	e00c      	b.n	800297e <HAL_DMA_Abort_IT+0x38>
 8002964:	687b      	ldr	r3, [r7, #4]
 8002966:	2205      	movs	r2, #5
 8002968:	f883 2035 	strb.w	r2, [r3, #53]	@ 0x35
 800296c:	687b      	ldr	r3, [r7, #4]
 800296e:	681b      	ldr	r3, [r3, #0]
 8002970:	681a      	ldr	r2, [r3, #0]
 8002972:	687b      	ldr	r3, [r7, #4]
 8002974:	681b      	ldr	r3, [r3, #0]
 8002976:	f022 0201 	bic.w	r2, r2, #1
 800297a:	601a      	str	r2, [r3, #0]
 800297c:	2300      	movs	r3, #0
 800297e:	4618      	mov	r0, r3
 8002980:	370c      	adds	r7, #12
 8002982:	46bd      	mov	sp, r7
 8002984:	f85d 7b04 	ldr.w	r7, [sp], #4
 8002988:	4770      	bx	lr
	...

0800298c <HAL_GPIO_Init>:
 800298c:	b480      	push	{r7}
 800298e:	b089      	sub	sp, #36	@ 0x24
 8002990:	af00      	add	r7, sp, #0
 8002992:	6078      	str	r0, [r7, #4]
 8002994:	6039      	str	r1, [r7, #0]
 8002996:	2300      	movs	r3, #0
 8002998:	617b      	str	r3, [r7, #20]
 800299a:	2300      	movs	r3, #0
 800299c:	613b      	str	r3, [r7, #16]
 800299e:	2300      	movs	r3, #0
 80029a0:	61bb      	str	r3, [r7, #24]
 80029a2:	2300      	movs	r3, #0
 80029a4:	61fb      	str	r3, [r7, #28]
 80029a6:	e16b      	b.n	8002c80 <HAL_GPIO_Init+0x2f4>
 80029a8:	2201      	movs	r2, #1
 80029aa:	69fb      	ldr	r3, [r7, #28]
 80029ac:	fa02 f303 	lsl.w	r3, r2, r3
 80029b0:	617b      	str	r3, [r7, #20]
 80029b2:	683b      	ldr	r3, [r7, #0]
 80029b4:	681b      	ldr	r3, [r3, #0]
 80029b6:	697a      	ldr	r2, [r7, #20]
 80029b8:	4013      	ands	r3, r2
 80029ba:	613b      	str	r3, [r7, #16]
 80029bc:	693a      	ldr	r2, [r7, #16]
 80029be:	697b      	ldr	r3, [r7, #20]
 80029c0:	429a      	cmp	r2, r3
 80029c2:	f040 815a 	bne.w	8002c7a <HAL_GPIO_Init+0x2ee>
 80029c6:	683b      	ldr	r3, [r7, #0]
 80029c8:	685b      	ldr	r3, [r3, #4]
 80029ca:	f003 0303 	and.w	r3, r3, #3
 80029ce:	2b01      	cmp	r3, #1
 80029d0:	d005      	beq.n	80029de <HAL_GPIO_Init+0x52>
 80029d2:	683b      	ldr	r3, [r7, #0]
 80029d4:	685b      	ldr	r3, [r3, #4]
 80029d6:	f003 0303 	and.w	r3, r3, #3
 80029da:	2b02      	cmp	r3, #2
 80029dc:	d130      	bne.n	8002a40 <HAL_GPIO_Init+0xb4>
 80029de:	687b      	ldr	r3, [r7, #4]
 80029e0:	689b      	ldr	r3, [r3, #8]
 80029e2:	61bb      	str	r3, [r7, #24]
 80029e4:	69fb      	ldr	r3, [r7, #28]
 80029e6:	005b      	lsls	r3, r3, #1
 80029e8:	2203      	movs	r2, #3
 80029ea:	fa02 f303 	lsl.w	r3, r2, r3
 80029ee:	43db      	mvns	r3, r3
 80029f0:	69ba      	ldr	r2, [r7, #24]
 80029f2:	4013      	ands	r3, r2
 80029f4:	61bb      	str	r3, [r7, #24]
 80029f6:	683b      	ldr	r3, [r7, #0]
 80029f8:	68da      	ldr	r2, [r3, #12]
 80029fa:	69fb      	ldr	r3, [r7, #28]
 80029fc:	005b      	lsls	r3, r3, #1
 80029fe:	fa02 f303 	lsl.w	r3, r2, r3
 8002a02:	69ba      	ldr	r2, [r7, #24]
 8002a04:	4313      	orrs	r3, r2
 8002a06:	61bb      	str	r3, [r7, #24]
 8002a08:	687b      	ldr	r3, [r7, #4]
 8002a0a:	69ba      	ldr	r2, [r7, #24]
 8002a0c:	609a      	str	r2, [r3, #8]
 8002a0e:	687b      	ldr	r3, [r7, #4]
 8002a10:	685b      	ldr	r3, [r3, #4]
 8002a12:	61bb      	str	r3, [r7, #24]
 8002a14:	2201      	movs	r2, #1
 8002a16:	69fb      	ldr	r3, [r7, #28]
 8002a18:	fa02 f303 	lsl.w	r3, r2, r3
 8002a1c:	43db      	mvns	r3, r3
 8002a1e:	69ba      	ldr	r2, [r7, #24]
 8002a20:	4013      	ands	r3, r2
 8002a22:	61bb      	str	r3, [r7, #24]
 8002a24:	683b      	ldr	r3, [r7, #0]
 8002a26:	685b      	ldr	r3, [r3, #4]
 8002a28:	091b      	lsrs	r3, r3, #4
 8002a2a:	f003 0201 	and.w	r2, r3, #1
 8002a2e:	69fb      	ldr	r3, [r7, #28]
 8002a30:	fa02 f303 	lsl.w	r3, r2, r3
 8002a34:	69ba      	ldr	r2, [r7, #24]
 8002a36:	4313      	orrs	r3, r2
 8002a38:	61bb      	str	r3, [r7, #24]
 8002a3a:	687b      	ldr	r3, [r7, #4]
 8002a3c:	69ba      	ldr	r2, [r7, #24]
 8002a3e:	605a      	str	r2, [r3, #4]
 8002a40:	683b      	ldr	r3, [r7, #0]
 8002a42:	685b      	ldr	r3, [r3, #4]
 8002a44:	f003 0303 	and.w	r3, r3, #3
 8002a48:	2b03      	cmp	r3, #3
 8002a4a:	d017      	beq.n	8002a7c <HAL_GPIO_Init+0xf0>
 8002a4c:	687b      	ldr	r3, [r7, #4]
 8002a4e:	68db      	ldr	r3, [r3, #12]
 8002a50:	61bb      	str	r3, [r7, #24]
 8002a52:	69fb      	ldr	r3, [r7, #28]
 8002a54:	005b      	lsls	r3, r3, #1
 8002a56:	2203      	movs	r2, #3
 8002a58:	fa02 f303 	lsl.w	r3, r2, r3
 8002a5c:	43db      	mvns	r3, r3
 8002a5e:	69ba      	ldr	r2, [r7, #24]
 8002a60:	4013      	ands	r3, r2
 8002a62:	61bb      	str	r3, [r7, #24]
 8002a64:	683b      	ldr	r3, [r7, #0]
 8002a66:	689a      	ldr	r2, [r3, #8]
 8002a68:	69fb      	ldr	r3, [r7, #28]
 8002a6a:	005b      	lsls	r3, r3, #1
 8002a6c:	fa02 f303 	lsl.w	r3, r2, r3
 8002a70:	69ba      	ldr	r2, [r7, #24]
 8002a72:	4313      	orrs	r3, r2
 8002a74:	61bb      	str	r3, [r7, #24]
 8002a76:	687b      	ldr	r3, [r7, #4]
 8002a78:	69ba      	ldr	r2, [r7, #24]
 8002a7a:	60da      	str	r2, [r3, #12]
 8002a7c:	683b      	ldr	r3, [r7, #0]
 8002a7e:	685b      	ldr	r3, [r3, #4]
 8002a80:	f003 0303 	and.w	r3, r3, #3
 8002a84:	2b02      	cmp	r3, #2
 8002a86:	d123      	bne.n	8002ad0 <HAL_GPIO_Init+0x144>
 8002a88:	69fb      	ldr	r3, [r7, #28]
 8002a8a:	08da      	lsrs	r2, r3, #3
 8002a8c:	687b      	ldr	r3, [r7, #4]
 8002a8e:	3208      	adds	r2, #8
 8002a90:	f853 3022 	ldr.w	r3, [r3, r2, lsl #2]
 8002a94:	61bb      	str	r3, [r7, #24]
 8002a96:	69fb      	ldr	r3, [r7, #28]
 8002a98:	f003 0307 	and.w	r3, r3, #7
 8002a9c:	009b      	lsls	r3, r3, #2
 8002a9e:	220f      	movs	r2, #15
 8002aa0:	fa02 f303 	lsl.w	r3, r2, r3
 8002aa4:	43db      	mvns	r3, r3
 8002aa6:	69ba      	ldr	r2, [r7, #24]
 8002aa8:	4013      	ands	r3, r2
 8002aaa:	61bb      	str	r3, [r7, #24]
 8002aac:	683b      	ldr	r3, [r7, #0]
 8002aae:	691a      	ldr	r2, [r3, #16]
 8002ab0:	69fb      	ldr	r3, [r7, #28]
 8002ab2:	f003 0307 	and.w	r3, r3, #7
 8002ab6:	009b      	lsls	r3, r3, #2
 8002ab8:	fa02 f303 	lsl.w	r3, r2, r3
 8002abc:	69ba      	ldr	r2, [r7, #24]
 8002abe:	4313      	orrs	r3, r2
 8002ac0:	61bb      	str	r3, [r7, #24]
 8002ac2:	69fb      	ldr	r3, [r7, #28]
 8002ac4:	08da      	lsrs	r2, r3, #3
 8002ac6:	687b      	ldr	r3, [r7, #4]
 8002ac8:	3208      	adds	r2, #8
 8002aca:	69b9      	ldr	r1, [r7, #24]
 8002acc:	f843 1022 	str.w	r1, [r3, r2, lsl #2]
 8002ad0:	687b      	ldr	r3, [r7, #4]
 8002ad2:	681b      	ldr	r3, [r3, #0]
 8002ad4:	61bb      	str	r3, [r7, #24]
 8002ad6:	69fb      	ldr	r3, [r7, #28]
 8002ad8:	005b      	lsls	r3, r3, #1
 8002ada:	2203      	movs	r2, #3
 8002adc:	fa02 f303 	lsl.w	r3, r2, r3
 8002ae0:	43db      	mvns	r3, r3
 8002ae2:	69ba      	ldr	r2, [r7, #24]
 8002ae4:	4013      	ands	r3, r2
 8002ae6:	61bb      	str	r3, [r7, #24]
 8002ae8:	683b      	ldr	r3, [r7, #0]
 8002aea:	685b      	ldr	r3, [r3, #4]
 8002aec:	f003 0203 	and.w	r2, r3, #3
 8002af0:	69fb      	ldr	r3, [r7, #28]
 8002af2:	005b      	lsls	r3, r3, #1
 8002af4:	fa02 f303 	lsl.w	r3, r2, r3
 8002af8:	69ba      	ldr	r2, [r7, #24]
 8002afa:	4313      	orrs	r3, r2
 8002afc:	61bb      	str	r3, [r7, #24]
 8002afe:	687b      	ldr	r3, [r7, #4]
 8002b00:	69ba      	ldr	r2, [r7, #24]
 8002b02:	601a      	str	r2, [r3, #0]
 8002b04:	683b      	ldr	r3, [r7, #0]
 8002b06:	685b      	ldr	r3, [r3, #4]
 8002b08:	f403 3340 	and.w	r3, r3, #196608	@ 0x30000
 8002b0c:	2b00      	cmp	r3, #0
 8002b0e:	f000 80b4 	beq.w	8002c7a <HAL_GPIO_Init+0x2ee>
 8002b12:	2300      	movs	r3, #0
 8002b14:	60fb      	str	r3, [r7, #12]
 8002b16:	4b60      	ldr	r3, [pc, #384]	@ (8002c98 <HAL_GPIO_Init+0x30c>)
 8002b18:	6c5b      	ldr	r3, [r3, #68]	@ 0x44
 8002b1a:	4a5f      	ldr	r2, [pc, #380]	@ (8002c98 <HAL_GPIO_Init+0x30c>)
 8002b1c:	f443 4380 	orr.w	r3, r3, #16384	@ 0x4000
 8002b20:	6453      	str	r3, [r2, #68]	@ 0x44
 8002b22:	4b5d      	ldr	r3, [pc, #372]	@ (8002c98 <HAL_GPIO_Init+0x30c>)
 8002b24:	6c5b      	ldr	r3, [r3, #68]	@ 0x44
 8002b26:	f403 4380 	and.w	r3, r3, #16384	@ 0x4000
 8002b2a:	60fb      	str	r3, [r7, #12]
 8002b2c:	68fb      	ldr	r3, [r7, #12]
 8002b2e:	4a5b      	ldr	r2, [pc, #364]	@ (8002c9c <HAL_GPIO_Init+0x310>)
 8002b30:	69fb      	ldr	r3, [r7, #28]
 8002b32:	089b      	lsrs	r3, r3, #2
 8002b34:	3302      	adds	r3, #2
 8002b36:	f852 3023 	ldr.w	r3, [r2, r3, lsl #2]
 8002b3a:	61bb      	str	r3, [r7, #24]
 8002b3c:	69fb      	ldr	r3, [r7, #28]
 8002b3e:	f003 0303 	and.w	r3, r3, #3
 8002b42:	009b      	lsls	r3, r3, #2
 8002b44:	220f      	movs	r2, #15
 8002b46:	fa02 f303 	lsl.w	r3, r2, r3
 8002b4a:	43db      	mvns	r3, r3
 8002b4c:	69ba      	ldr	r2, [r7, #24]
 8002b4e:	4013      	ands	r3, r2
 8002b50:	61bb      	str	r3, [r7, #24]
 8002b52:	687b      	ldr	r3, [r7, #4]
 8002b54:	4a52      	ldr	r2, [pc, #328]	@ (8002ca0 <HAL_GPIO_Init+0x314>)
 8002b56:	4293      	cmp	r3, r2
 8002b58:	d02b      	beq.n	8002bb2 <HAL_GPIO_Init+0x226>
 8002b5a:	687b      	ldr	r3, [r7, #4]
 8002b5c:	4a51      	ldr	r2, [pc, #324]	@ (8002ca4 <HAL_GPIO_Init+0x318>)
 8002b5e:	4293      	cmp	r3, r2
 8002b60:	d025      	beq.n	8002bae <HAL_GPIO_Init+0x222>
 8002b62:	687b      	ldr	r3, [r7, #4]
 8002b64:	4a50      	ldr	r2, [pc, #320]	@ (8002ca8 <HAL_GPIO_Init+0x31c>)
 8002b66:	4293      	cmp	r3, r2
 8002b68:	d01f      	beq.n	8002baa <HAL_GPIO_Init+0x21e>
 8002b6a:	687b      	ldr	r3, [r7, #4]
 8002b6c:	4a4f      	ldr	r2, [pc, #316]	@ (8002cac <HAL_GPIO_Init+0x320>)
 8002b6e:	4293      	cmp	r3, r2
 8002b70:	d019      	beq.n	8002ba6 <HAL_GPIO_Init+0x21a>
 8002b72:	687b      	ldr	r3, [r7, #4]
 8002b74:	4a4e      	ldr	r2, [pc, #312]	@ (8002cb0 <HAL_GPIO_Init+0x324>)
 8002b76:	4293      	cmp	r3, r2
 8002b78:	d013      	beq.n	8002ba2 <HAL_GPIO_Init+0x216>
 8002b7a:	687b      	ldr	r3, [r7, #4]
 8002b7c:	4a4d      	ldr	r2, [pc, #308]	@ (8002cb4 <HAL_GPIO_Init+0x328>)
 8002b7e:	4293      	cmp	r3, r2
 8002b80:	d00d      	beq.n	8002b9e <HAL_GPIO_Init+0x212>
 8002b82:	687b      	ldr	r3, [r7, #4]
 8002b84:	4a4c      	ldr	r2, [pc, #304]	@ (8002cb8 <HAL_GPIO_Init+0x32c>)
 8002b86:	4293      	cmp	r3, r2
 8002b88:	d007      	beq.n	8002b9a <HAL_GPIO_Init+0x20e>
 8002b8a:	687b      	ldr	r3, [r7, #4]
 8002b8c:	4a4b      	ldr	r2, [pc, #300]	@ (8002cbc <HAL_GPIO_Init+0x330>)
 8002b8e:	4293      	cmp	r3, r2
 8002b90:	d101      	bne.n	8002b96 <HAL_GPIO_Init+0x20a>
 8002b92:	2307      	movs	r3, #7
 8002b94:	e00e      	b.n	8002bb4 <HAL_GPIO_Init+0x228>
 8002b96:	2308      	movs	r3, #8
 8002b98:	e00c      	b.n	8002bb4 <HAL_GPIO_Init+0x228>
 8002b9a:	2306      	movs	r3, #6
 8002b9c:	e00a      	b.n	8002bb4 <HAL_GPIO_Init+0x228>
 8002b9e:	2305      	movs	r3, #5
 8002ba0:	e008      	b.n	8002bb4 <HAL_GPIO_Init+0x228>
 8002ba2:	2304      	movs	r3, #4
 8002ba4:	e006      	b.n	8002bb4 <HAL_GPIO_Init+0x228>
 8002ba6:	2303      	movs	r3, #3
 8002ba8:	e004      	b.n	8002bb4 <HAL_GPIO_Init+0x228>
 8002baa:	2302      	movs	r3, #2
 8002bac:	e002      	b.n	8002bb4 <HAL_GPIO_Init+0x228>
 8002bae:	2301      	movs	r3, #1
 8002bb0:	e000      	b.n	8002bb4 <HAL_GPIO_Init+0x228>
 8002bb2:	2300      	movs	r3, #0
 8002bb4:	69fa      	ldr	r2, [r7, #28]
 8002bb6:	f002 0203 	and.w	r2, r2, #3
 8002bba:	0092      	lsls	r2, r2, #2
 8002bbc:	4093      	lsls	r3, r2
 8002bbe:	69ba      	ldr	r2, [r7, #24]
 8002bc0:	4313      	orrs	r3, r2
 8002bc2:	61bb      	str	r3, [r7, #24]
 8002bc4:	4935      	ldr	r1, [pc, #212]	@ (8002c9c <HAL_GPIO_Init+0x310>)
 8002bc6:	69fb      	ldr	r3, [r7, #28]
 8002bc8:	089b      	lsrs	r3, r3, #2
 8002bca:	3302      	adds	r3, #2
 8002bcc:	69ba      	ldr	r2, [r7, #24]
 8002bce:	f841 2023 	str.w	r2, [r1, r3, lsl #2]
 8002bd2:	4b3b      	ldr	r3, [pc, #236]	@ (8002cc0 <HAL_GPIO_Init+0x334>)
 8002bd4:	689b      	ldr	r3, [r3, #8]
 8002bd6:	61bb      	str	r3, [r7, #24]
 8002bd8:	693b      	ldr	r3, [r7, #16]
 8002bda:	43db      	mvns	r3, r3
 8002bdc:	69ba      	ldr	r2, [r7, #24]
 8002bde:	4013      	ands	r3, r2
 8002be0:	61bb      	str	r3, [r7, #24]
 8002be2:	683b      	ldr	r3, [r7, #0]
 8002be4:	685b      	ldr	r3, [r3, #4]
 8002be6:	f403 1380 	and.w	r3, r3, #1048576	@ 0x100000
 8002bea:	2b00      	cmp	r3, #0
 8002bec:	d003      	beq.n	8002bf6 <HAL_GPIO_Init+0x26a>
 8002bee:	69ba      	ldr	r2, [r7, #24]
 8002bf0:	693b      	ldr	r3, [r7, #16]
 8002bf2:	4313      	orrs	r3, r2
 8002bf4:	61bb      	str	r3, [r7, #24]
 8002bf6:	4a32      	ldr	r2, [pc, #200]	@ (8002cc0 <HAL_GPIO_Init+0x334>)
 8002bf8:	69bb      	ldr	r3, [r7, #24]
 8002bfa:	6093      	str	r3, [r2, #8]
 8002bfc:	4b30      	ldr	r3, [pc, #192]	@ (8002cc0 <HAL_GPIO_Init+0x334>)
 8002bfe:	68db      	ldr	r3, [r3, #12]
 8002c00:	61bb      	str	r3, [r7, #24]
 8002c02:	693b      	ldr	r3, [r7, #16]
 8002c04:	43db      	mvns	r3, r3
 8002c06:	69ba      	ldr	r2, [r7, #24]
 8002c08:	4013      	ands	r3, r2
 8002c0a:	61bb      	str	r3, [r7, #24]
 8002c0c:	683b      	ldr	r3, [r7, #0]
 8002c0e:	685b      	ldr	r3, [r3, #4]
 8002c10:	f403 1300 	and.w	r3, r3, #2097152	@ 0x200000
 8002c14:	2b00      	cmp	r3, #0
 8002c16:	d003      	beq.n	8002c20 <HAL_GPIO_Init+0x294>
 8002c18:	69ba      	ldr	r2, [r7, #24]
 8002c1a:	693b      	ldr	r3, [r7, #16]
 8002c1c:	4313      	orrs	r3, r2
 8002c1e:	61bb      	str	r3, [r7, #24]
 8002c20:	4a27      	ldr	r2, [pc, #156]	@ (8002cc0 <HAL_GPIO_Init+0x334>)
 8002c22:	69bb      	ldr	r3, [r7, #24]
 8002c24:	60d3      	str	r3, [r2, #12]
 8002c26:	4b26      	ldr	r3, [pc, #152]	@ (8002cc0 <HAL_GPIO_Init+0x334>)
 8002c28:	685b      	ldr	r3, [r3, #4]
 8002c2a:	61bb      	str	r3, [r7, #24]
 8002c2c:	693b      	ldr	r3, [r7, #16]
 8002c2e:	43db      	mvns	r3, r3
 8002c30:	69ba      	ldr	r2, [r7, #24]
 8002c32:	4013      	ands	r3, r2
 8002c34:	61bb      	str	r3, [r7, #24]
 8002c36:	683b      	ldr	r3, [r7, #0]
 8002c38:	685b      	ldr	r3, [r3, #4]
 8002c3a:	f403 3300 	and.w	r3, r3, #131072	@ 0x20000
 8002c3e:	2b00      	cmp	r3, #0
 8002c40:	d003      	beq.n	8002c4a <HAL_GPIO_Init+0x2be>
 8002c42:	69ba      	ldr	r2, [r7, #24]
 8002c44:	693b      	ldr	r3, [r7, #16]
 8002c46:	4313      	orrs	r3, r2
 8002c48:	61bb      	str	r3, [r7, #24]
 8002c4a:	4a1d      	ldr	r2, [pc, #116]	@ (8002cc0 <HAL_GPIO_Init+0x334>)
 8002c4c:	69bb      	ldr	r3, [r7, #24]
 8002c4e:	6053      	str	r3, [r2, #4]
 8002c50:	4b1b      	ldr	r3, [pc, #108]	@ (8002cc0 <HAL_GPIO_Init+0x334>)
 8002c52:	681b      	ldr	r3, [r3, #0]
 8002c54:	61bb      	str	r3, [r7, #24]
 8002c56:	693b      	ldr	r3, [r7, #16]
 8002c58:	43db      	mvns	r3, r3
 8002c5a:	69ba      	ldr	r2, [r7, #24]
 8002c5c:	4013      	ands	r3, r2
 8002c5e:	61bb      	str	r3, [r7, #24]
 8002c60:	683b      	ldr	r3, [r7, #0]
 8002c62:	685b      	ldr	r3, [r3, #4]
 8002c64:	f403 3380 	and.w	r3, r3, #65536	@ 0x10000
 8002c68:	2b00      	cmp	r3, #0
 8002c6a:	d003      	beq.n	8002c74 <HAL_GPIO_Init+0x2e8>
 8002c6c:	69ba      	ldr	r2, [r7, #24]
 8002c6e:	693b      	ldr	r3, [r7, #16]
 8002c70:	4313      	orrs	r3, r2
 8002c72:	61bb      	str	r3, [r7, #24]
 8002c74:	4a12      	ldr	r2, [pc, #72]	@ (8002cc0 <HAL_GPIO_Init+0x334>)
 8002c76:	69bb      	ldr	r3, [r7, #24]
 8002c78:	6013      	str	r3, [r2, #0]
 8002c7a:	69fb      	ldr	r3, [r7, #28]
 8002c7c:	3301      	adds	r3, #1
 8002c7e:	61fb      	str	r3, [r7, #28]
 8002c80:	69fb      	ldr	r3, [r7, #28]
 8002c82:	2b0f      	cmp	r3, #15
 8002c84:	f67f ae90 	bls.w	80029a8 <HAL_GPIO_Init+0x1c>
 8002c88:	bf00      	nop
 8002c8a:	bf00      	nop
 8002c8c:	3724      	adds	r7, #36	@ 0x24
 8002c8e:	46bd      	mov	sp, r7
 8002c90:	f85d 7b04 	ldr.w	r7, [sp], #4
 8002c94:	4770      	bx	lr
 8002c96:	bf00      	nop
 8002c98:	40023800 	.word	0x40023800
 8002c9c:	40013800 	.word	0x40013800
 8002ca0:	40020000 	.word	0x40020000
 8002ca4:	40020400 	.word	0x40020400
 8002ca8:	40020800 	.word	0x40020800
 8002cac:	40020c00 	.word	0x40020c00
 8002cb0:	40021000 	.word	0x40021000
 8002cb4:	40021400 	.word	0x40021400
 8002cb8:	40021800 	.word	0x40021800
 8002cbc:	40021c00 	.word	0x40021c00
 8002cc0:	40013c00 	.word	0x40013c00

08002cc4 <HAL_GPIO_WritePin>:
 8002cc4:	b480      	push	{r7}
 8002cc6:	b083      	sub	sp, #12
 8002cc8:	af00      	add	r7, sp, #0
 8002cca:	6078      	str	r0, [r7, #4]
 8002ccc:	460b      	mov	r3, r1
 8002cce:	807b      	strh	r3, [r7, #2]
 8002cd0:	4613      	mov	r3, r2
 8002cd2:	707b      	strb	r3, [r7, #1]
 8002cd4:	787b      	ldrb	r3, [r7, #1]
 8002cd6:	2b00      	cmp	r3, #0
 8002cd8:	d003      	beq.n	8002ce2 <HAL_GPIO_WritePin+0x1e>
 8002cda:	887a      	ldrh	r2, [r7, #2]
 8002cdc:	687b      	ldr	r3, [r7, #4]
 8002cde:	619a      	str	r2, [r3, #24]
 8002ce0:	e003      	b.n	8002cea <HAL_GPIO_WritePin+0x26>
 8002ce2:	887b      	ldrh	r3, [r7, #2]
 8002ce4:	041a      	lsls	r2, r3, #16
 8002ce6:	687b      	ldr	r3, [r7, #4]
 8002ce8:	619a      	str	r2, [r3, #24]
 8002cea:	bf00      	nop
 8002cec:	370c      	adds	r7, #12
 8002cee:	46bd      	mov	sp, r7
 8002cf0:	f85d 7b04 	ldr.w	r7, [sp], #4
 8002cf4:	4770      	bx	lr
	...

08002cf8 <HAL_GPIO_EXTI_IRQHandler>:
 8002cf8:	b580      	push	{r7, lr}
 8002cfa:	b082      	sub	sp, #8
 8002cfc:	af00      	add	r7, sp, #0
 8002cfe:	4603      	mov	r3, r0
 8002d00:	80fb      	strh	r3, [r7, #6]
 8002d02:	4b08      	ldr	r3, [pc, #32]	@ (8002d24 <HAL_GPIO_EXTI_IRQHandler+0x2c>)
 8002d04:	695a      	ldr	r2, [r3, #20]
 8002d06:	88fb      	ldrh	r3, [r7, #6]
 8002d08:	4013      	ands	r3, r2
 8002d0a:	2b00      	cmp	r3, #0
 8002d0c:	d006      	beq.n	8002d1c <HAL_GPIO_EXTI_IRQHandler+0x24>
 8002d0e:	4a05      	ldr	r2, [pc, #20]	@ (8002d24 <HAL_GPIO_EXTI_IRQHandler+0x2c>)
 8002d10:	88fb      	ldrh	r3, [r7, #6]
 8002d12:	6153      	str	r3, [r2, #20]
 8002d14:	88fb      	ldrh	r3, [r7, #6]
 8002d16:	4618      	mov	r0, r3
 8002d18:	f7fe fb74 	bl	8001404 <HAL_GPIO_EXTI_Callback>
 8002d1c:	bf00      	nop
 8002d1e:	3708      	adds	r7, #8
 8002d20:	46bd      	mov	sp, r7
 8002d22:	bd80      	pop	{r7, pc}
 8002d24:	40013c00 	.word	0x40013c00

08002d28 <HAL_I2C_Init>:
 8002d28:	b580      	push	{r7, lr}
 8002d2a:	b084      	sub	sp, #16
 8002d2c:	af00      	add	r7, sp, #0
 8002d2e:	6078      	str	r0, [r7, #4]
 8002d30:	687b      	ldr	r3, [r7, #4]
 8002d32:	2b00      	cmp	r3, #0
 8002d34:	d101      	bne.n	8002d3a <HAL_I2C_Init+0x12>
 8002d36:	2301      	movs	r3, #1
 8002d38:	e12b      	b.n	8002f92 <HAL_I2C_Init+0x26a>
 8002d3a:	687b      	ldr	r3, [r7, #4]
 8002d3c:	f893 303d 	ldrb.w	r3, [r3, #61]	@ 0x3d
 8002d40:	b2db      	uxtb	r3, r3
 8002d42:	2b00      	cmp	r3, #0
 8002d44:	d106      	bne.n	8002d54 <HAL_I2C_Init+0x2c>
 8002d46:	687b      	ldr	r3, [r7, #4]
 8002d48:	2200      	movs	r2, #0
 8002d4a:	f883 203c 	strb.w	r2, [r3, #60]	@ 0x3c
 8002d4e:	6878      	ldr	r0, [r7, #4]
 8002d50:	f7fe fbd6 	bl	8001500 <HAL_I2C_MspInit>
 8002d54:	687b      	ldr	r3, [r7, #4]
 8002d56:	2224      	movs	r2, #36	@ 0x24
 8002d58:	f883 203d 	strb.w	r2, [r3, #61]	@ 0x3d
 8002d5c:	687b      	ldr	r3, [r7, #4]
 8002d5e:	681b      	ldr	r3, [r3, #0]
 8002d60:	681a      	ldr	r2, [r3, #0]
 8002d62:	687b      	ldr	r3, [r7, #4]
 8002d64:	681b      	ldr	r3, [r3, #0]
 8002d66:	f022 0201 	bic.w	r2, r2, #1
 8002d6a:	601a      	str	r2, [r3, #0]
 8002d6c:	687b      	ldr	r3, [r7, #4]
 8002d6e:	681b      	ldr	r3, [r3, #0]
 8002d70:	681a      	ldr	r2, [r3, #0]
 8002d72:	687b      	ldr	r3, [r7, #4]
 8002d74:	681b      	ldr	r3, [r3, #0]
 8002d76:	f442 4200 	orr.w	r2, r2, #32768	@ 0x8000
 8002d7a:	601a      	str	r2, [r3, #0]
 8002d7c:	687b      	ldr	r3, [r7, #4]
 8002d7e:	681b      	ldr	r3, [r3, #0]
 8002d80:	681a      	ldr	r2, [r3, #0]
 8002d82:	687b      	ldr	r3, [r7, #4]
 8002d84:	681b      	ldr	r3, [r3, #0]
 8002d86:	f422 4200 	bic.w	r2, r2, #32768	@ 0x8000
 8002d8a:	601a      	str	r2, [r3, #0]
 8002d8c:	f000 fd40 	bl	8003810 <HAL_RCC_GetPCLK1Freq>
 8002d90:	60f8      	str	r0, [r7, #12]
 8002d92:	687b      	ldr	r3, [r7, #4]
 8002d94:	685b      	ldr	r3, [r3, #4]
 8002d96:	4a81      	ldr	r2, [pc, #516]	@ (8002f9c <HAL_I2C_Init+0x274>)
 8002d98:	4293      	cmp	r3, r2
 8002d9a:	d807      	bhi.n	8002dac <HAL_I2C_Init+0x84>
 8002d9c:	68fb      	ldr	r3, [r7, #12]
 8002d9e:	4a80      	ldr	r2, [pc, #512]	@ (8002fa0 <HAL_I2C_Init+0x278>)
 8002da0:	4293      	cmp	r3, r2
 8002da2:	bf94      	ite	ls
 8002da4:	2301      	movls	r3, #1
 8002da6:	2300      	movhi	r3, #0
 8002da8:	b2db      	uxtb	r3, r3
 8002daa:	e006      	b.n	8002dba <HAL_I2C_Init+0x92>
 8002dac:	68fb      	ldr	r3, [r7, #12]
 8002dae:	4a7d      	ldr	r2, [pc, #500]	@ (8002fa4 <HAL_I2C_Init+0x27c>)
 8002db0:	4293      	cmp	r3, r2
 8002db2:	bf94      	ite	ls
 8002db4:	2301      	movls	r3, #1
 8002db6:	2300      	movhi	r3, #0
 8002db8:	b2db      	uxtb	r3, r3
 8002dba:	2b00      	cmp	r3, #0
 8002dbc:	d001      	beq.n	8002dc2 <HAL_I2C_Init+0x9a>
 8002dbe:	2301      	movs	r3, #1
 8002dc0:	e0e7      	b.n	8002f92 <HAL_I2C_Init+0x26a>
 8002dc2:	68fb      	ldr	r3, [r7, #12]
 8002dc4:	4a78      	ldr	r2, [pc, #480]	@ (8002fa8 <HAL_I2C_Init+0x280>)
 8002dc6:	fba2 2303 	umull	r2, r3, r2, r3
 8002dca:	0c9b      	lsrs	r3, r3, #18
 8002dcc:	60bb      	str	r3, [r7, #8]
 8002dce:	687b      	ldr	r3, [r7, #4]
 8002dd0:	681b      	ldr	r3, [r3, #0]
 8002dd2:	685b      	ldr	r3, [r3, #4]
 8002dd4:	f023 013f 	bic.w	r1, r3, #63	@ 0x3f
 8002dd8:	687b      	ldr	r3, [r7, #4]
 8002dda:	681b      	ldr	r3, [r3, #0]
 8002ddc:	68ba      	ldr	r2, [r7, #8]
 8002dde:	430a      	orrs	r2, r1
 8002de0:	605a      	str	r2, [r3, #4]
 8002de2:	687b      	ldr	r3, [r7, #4]
 8002de4:	681b      	ldr	r3, [r3, #0]
 8002de6:	6a1b      	ldr	r3, [r3, #32]
 8002de8:	f023 013f 	bic.w	r1, r3, #63	@ 0x3f
 8002dec:	687b      	ldr	r3, [r7, #4]
 8002dee:	685b      	ldr	r3, [r3, #4]
 8002df0:	4a6a      	ldr	r2, [pc, #424]	@ (8002f9c <HAL_I2C_Init+0x274>)
 8002df2:	4293      	cmp	r3, r2
 8002df4:	d802      	bhi.n	8002dfc <HAL_I2C_Init+0xd4>
 8002df6:	68bb      	ldr	r3, [r7, #8]
 8002df8:	3301      	adds	r3, #1
 8002dfa:	e009      	b.n	8002e10 <HAL_I2C_Init+0xe8>
 8002dfc:	68bb      	ldr	r3, [r7, #8]
 8002dfe:	f44f 7296 	mov.w	r2, #300	@ 0x12c
 8002e02:	fb02 f303 	mul.w	r3, r2, r3
 8002e06:	4a69      	ldr	r2, [pc, #420]	@ (8002fac <HAL_I2C_Init+0x284>)
 8002e08:	fba2 2303 	umull	r2, r3, r2, r3
 8002e0c:	099b      	lsrs	r3, r3, #6
 8002e0e:	3301      	adds	r3, #1
 8002e10:	687a      	ldr	r2, [r7, #4]
 8002e12:	6812      	ldr	r2, [r2, #0]
 8002e14:	430b      	orrs	r3, r1
 8002e16:	6213      	str	r3, [r2, #32]
 8002e18:	687b      	ldr	r3, [r7, #4]
 8002e1a:	681b      	ldr	r3, [r3, #0]
 8002e1c:	69db      	ldr	r3, [r3, #28]
 8002e1e:	f423 424f 	bic.w	r2, r3, #52992	@ 0xcf00
 8002e22:	f022 02ff 	bic.w	r2, r2, #255	@ 0xff
 8002e26:	687b      	ldr	r3, [r7, #4]
 8002e28:	685b      	ldr	r3, [r3, #4]
 8002e2a:	495c      	ldr	r1, [pc, #368]	@ (8002f9c <HAL_I2C_Init+0x274>)
 8002e2c:	428b      	cmp	r3, r1
 8002e2e:	d819      	bhi.n	8002e64 <HAL_I2C_Init+0x13c>
 8002e30:	68fb      	ldr	r3, [r7, #12]
 8002e32:	1e59      	subs	r1, r3, #1
 8002e34:	687b      	ldr	r3, [r7, #4]
 8002e36:	685b      	ldr	r3, [r3, #4]
 8002e38:	005b      	lsls	r3, r3, #1
 8002e3a:	fbb1 f3f3 	udiv	r3, r1, r3
 8002e3e:	1c59      	adds	r1, r3, #1
 8002e40:	f640 73fc 	movw	r3, #4092	@ 0xffc
 8002e44:	400b      	ands	r3, r1
 8002e46:	2b00      	cmp	r3, #0
 8002e48:	d00a      	beq.n	8002e60 <HAL_I2C_Init+0x138>
 8002e4a:	68fb      	ldr	r3, [r7, #12]
 8002e4c:	1e59      	subs	r1, r3, #1
 8002e4e:	687b      	ldr	r3, [r7, #4]
 8002e50:	685b      	ldr	r3, [r3, #4]
 8002e52:	005b      	lsls	r3, r3, #1
 8002e54:	fbb1 f3f3 	udiv	r3, r1, r3
 8002e58:	3301      	adds	r3, #1
 8002e5a:	f3c3 030b 	ubfx	r3, r3, #0, #12
 8002e5e:	e051      	b.n	8002f04 <HAL_I2C_Init+0x1dc>
 8002e60:	2304      	movs	r3, #4
 8002e62:	e04f      	b.n	8002f04 <HAL_I2C_Init+0x1dc>
 8002e64:	687b      	ldr	r3, [r7, #4]
 8002e66:	689b      	ldr	r3, [r3, #8]
 8002e68:	2b00      	cmp	r3, #0
 8002e6a:	d111      	bne.n	8002e90 <HAL_I2C_Init+0x168>
 8002e6c:	68fb      	ldr	r3, [r7, #12]
 8002e6e:	1e58      	subs	r0, r3, #1
 8002e70:	687b      	ldr	r3, [r7, #4]
 8002e72:	6859      	ldr	r1, [r3, #4]
 8002e74:	460b      	mov	r3, r1
 8002e76:	005b      	lsls	r3, r3, #1
 8002e78:	440b      	add	r3, r1
 8002e7a:	fbb0 f3f3 	udiv	r3, r0, r3
 8002e7e:	3301      	adds	r3, #1
 8002e80:	f3c3 030b 	ubfx	r3, r3, #0, #12
 8002e84:	2b00      	cmp	r3, #0
 8002e86:	bf0c      	ite	eq
 8002e88:	2301      	moveq	r3, #1
 8002e8a:	2300      	movne	r3, #0
 8002e8c:	b2db      	uxtb	r3, r3
 8002e8e:	e012      	b.n	8002eb6 <HAL_I2C_Init+0x18e>
 8002e90:	68fb      	ldr	r3, [r7, #12]
 8002e92:	1e58      	subs	r0, r3, #1
 8002e94:	687b      	ldr	r3, [r7, #4]
 8002e96:	6859      	ldr	r1, [r3, #4]
 8002e98:	460b      	mov	r3, r1
 8002e9a:	009b      	lsls	r3, r3, #2
 8002e9c:	440b      	add	r3, r1
 8002e9e:	0099      	lsls	r1, r3, #2
 8002ea0:	440b      	add	r3, r1
 8002ea2:	fbb0 f3f3 	udiv	r3, r0, r3
 8002ea6:	3301      	adds	r3, #1
 8002ea8:	f3c3 030b 	ubfx	r3, r3, #0, #12
 8002eac:	2b00      	cmp	r3, #0
 8002eae:	bf0c      	ite	eq
 8002eb0:	2301      	moveq	r3, #1
 8002eb2:	2300      	movne	r3, #0
 8002eb4:	b2db      	uxtb	r3, r3
 8002eb6:	2b00      	cmp	r3, #0
 8002eb8:	d001      	beq.n	8002ebe <HAL_I2C_Init+0x196>
 8002eba:	2301      	movs	r3, #1
 8002ebc:	e022      	b.n	8002f04 <HAL_I2C_Init+0x1dc>
 8002ebe:	687b      	ldr	r3, [r7, #4]
 8002ec0:	689b      	ldr	r3, [r3, #8]
 8002ec2:	2b00      	cmp	r3, #0
 8002ec4:	d10e      	bne.n	8002ee4 <HAL_I2C_Init+0x1bc>
 8002ec6:	68fb      	ldr	r3, [r7, #12]
 8002ec8:	1e58      	subs	r0, r3, #1
 8002eca:	687b      	ldr	r3, [r7, #4]
 8002ecc:	6859      	ldr	r1, [r3, #4]
 8002ece:	460b      	mov	r3, r1
 8002ed0:	005b      	lsls	r3, r3, #1
 8002ed2:	440b      	add	r3, r1
 8002ed4:	fbb0 f3f3 	udiv	r3, r0, r3
 8002ed8:	3301      	adds	r3, #1
 8002eda:	f3c3 030b 	ubfx	r3, r3, #0, #12
 8002ede:	f443 4300 	orr.w	r3, r3, #32768	@ 0x8000
 8002ee2:	e00f      	b.n	8002f04 <HAL_I2C_Init+0x1dc>
 8002ee4:	68fb      	ldr	r3, [r7, #12]
 8002ee6:	1e58      	subs	r0, r3, #1
 8002ee8:	687b      	ldr	r3, [r7, #4]
 8002eea:	6859      	ldr	r1, [r3, #4]
 8002eec:	460b      	mov	r3, r1
 8002eee:	009b      	lsls	r3, r3, #2
 8002ef0:	440b      	add	r3, r1
 8002ef2:	0099      	lsls	r1, r3, #2
 8002ef4:	440b      	add	r3, r1
 8002ef6:	fbb0 f3f3 	udiv	r3, r0, r3
 8002efa:	3301      	adds	r3, #1
 8002efc:	f3c3 030b 	ubfx	r3, r3, #0, #12
 8002f00:	f443 4340 	orr.w	r3, r3, #49152	@ 0xc000
 8002f04:	6879      	ldr	r1, [r7, #4]
 8002f06:	6809      	ldr	r1, [r1, #0]
 8002f08:	4313      	orrs	r3, r2
 8002f0a:	61cb      	str	r3, [r1, #28]
 8002f0c:	687b      	ldr	r3, [r7, #4]
 8002f0e:	681b      	ldr	r3, [r3, #0]
 8002f10:	681b      	ldr	r3, [r3, #0]
 8002f12:	f023 01c0 	bic.w	r1, r3, #192	@ 0xc0
 8002f16:	687b      	ldr	r3, [r7, #4]
 8002f18:	69da      	ldr	r2, [r3, #28]
 8002f1a:	687b      	ldr	r3, [r7, #4]
 8002f1c:	6a1b      	ldr	r3, [r3, #32]
 8002f1e:	431a      	orrs	r2, r3
 8002f20:	687b      	ldr	r3, [r7, #4]
 8002f22:	681b      	ldr	r3, [r3, #0]
 8002f24:	430a      	orrs	r2, r1
 8002f26:	601a      	str	r2, [r3, #0]
 8002f28:	687b      	ldr	r3, [r7, #4]
 8002f2a:	681b      	ldr	r3, [r3, #0]
 8002f2c:	689b      	ldr	r3, [r3, #8]
 8002f2e:	f423 4303 	bic.w	r3, r3, #33536	@ 0x8300
 8002f32:	f023 03ff 	bic.w	r3, r3, #255	@ 0xff
 8002f36:	687a      	ldr	r2, [r7, #4]
 8002f38:	6911      	ldr	r1, [r2, #16]
 8002f3a:	687a      	ldr	r2, [r7, #4]
 8002f3c:	68d2      	ldr	r2, [r2, #12]
 8002f3e:	4311      	orrs	r1, r2
 8002f40:	687a      	ldr	r2, [r7, #4]
 8002f42:	6812      	ldr	r2, [r2, #0]
 8002f44:	430b      	orrs	r3, r1
 8002f46:	6093      	str	r3, [r2, #8]
 8002f48:	687b      	ldr	r3, [r7, #4]
 8002f4a:	681b      	ldr	r3, [r3, #0]
 8002f4c:	68db      	ldr	r3, [r3, #12]
 8002f4e:	f023 01ff 	bic.w	r1, r3, #255	@ 0xff
 8002f52:	687b      	ldr	r3, [r7, #4]
 8002f54:	695a      	ldr	r2, [r3, #20]
 8002f56:	687b      	ldr	r3, [r7, #4]
 8002f58:	699b      	ldr	r3, [r3, #24]
 8002f5a:	431a      	orrs	r2, r3
 8002f5c:	687b      	ldr	r3, [r7, #4]
 8002f5e:	681b      	ldr	r3, [r3, #0]
 8002f60:	430a      	orrs	r2, r1
 8002f62:	60da      	str	r2, [r3, #12]
 8002f64:	687b      	ldr	r3, [r7, #4]
 8002f66:	681b      	ldr	r3, [r3, #0]
 8002f68:	681a      	ldr	r2, [r3, #0]
 8002f6a:	687b      	ldr	r3, [r7, #4]
 8002f6c:	681b      	ldr	r3, [r3, #0]
 8002f6e:	f042 0201 	orr.w	r2, r2, #1
 8002f72:	601a      	str	r2, [r3, #0]
 8002f74:	687b      	ldr	r3, [r7, #4]
 8002f76:	2200      	movs	r2, #0
 8002f78:	641a      	str	r2, [r3, #64]	@ 0x40
 8002f7a:	687b      	ldr	r3, [r7, #4]
 8002f7c:	2220      	movs	r2, #32
 8002f7e:	f883 203d 	strb.w	r2, [r3, #61]	@ 0x3d
 8002f82:	687b      	ldr	r3, [r7, #4]
 8002f84:	2200      	movs	r2, #0
 8002f86:	631a      	str	r2, [r3, #48]	@ 0x30
 8002f88:	687b      	ldr	r3, [r7, #4]
 8002f8a:	2200      	movs	r2, #0
 8002f8c:	f883 203e 	strb.w	r2, [r3, #62]	@ 0x3e
 8002f90:	2300      	movs	r3, #0
 8002f92:	4618      	mov	r0, r3
 8002f94:	3710      	adds	r7, #16
 8002f96:	46bd      	mov	sp, r7
 8002f98:	bd80      	pop	{r7, pc}
 8002f9a:	bf00      	nop
 8002f9c:	000186a0 	.word	0x000186a0
 8002fa0:	001e847f 	.word	0x001e847f
 8002fa4:	003d08ff 	.word	0x003d08ff
 8002fa8:	431bde83 	.word	0x431bde83
 8002fac:	10624dd3 	.word	0x10624dd3

08002fb0 <HAL_RCC_OscConfig>:
 8002fb0:	b580      	push	{r7, lr}
 8002fb2:	b086      	sub	sp, #24
 8002fb4:	af00      	add	r7, sp, #0
 8002fb6:	6078      	str	r0, [r7, #4]
 8002fb8:	687b      	ldr	r3, [r7, #4]
 8002fba:	2b00      	cmp	r3, #0
 8002fbc:	d101      	bne.n	8002fc2 <HAL_RCC_OscConfig+0x12>
 8002fbe:	2301      	movs	r3, #1
 8002fc0:	e267      	b.n	8003492 <HAL_RCC_OscConfig+0x4e2>
 8002fc2:	687b      	ldr	r3, [r7, #4]
 8002fc4:	681b      	ldr	r3, [r3, #0]
 8002fc6:	f003 0301 	and.w	r3, r3, #1
 8002fca:	2b00      	cmp	r3, #0
 8002fcc:	d075      	beq.n	80030ba <HAL_RCC_OscConfig+0x10a>
 8002fce:	4b88      	ldr	r3, [pc, #544]	@ (80031f0 <HAL_RCC_OscConfig+0x240>)
 8002fd0:	689b      	ldr	r3, [r3, #8]
 8002fd2:	f003 030c 	and.w	r3, r3, #12
 8002fd6:	2b04      	cmp	r3, #4
 8002fd8:	d00c      	beq.n	8002ff4 <HAL_RCC_OscConfig+0x44>
 8002fda:	4b85      	ldr	r3, [pc, #532]	@ (80031f0 <HAL_RCC_OscConfig+0x240>)
 8002fdc:	689b      	ldr	r3, [r3, #8]
 8002fde:	f003 030c 	and.w	r3, r3, #12
 8002fe2:	2b08      	cmp	r3, #8
 8002fe4:	d112      	bne.n	800300c <HAL_RCC_OscConfig+0x5c>
 8002fe6:	4b82      	ldr	r3, [pc, #520]	@ (80031f0 <HAL_RCC_OscConfig+0x240>)
 8002fe8:	685b      	ldr	r3, [r3, #4]
 8002fea:	f403 0380 	and.w	r3, r3, #4194304	@ 0x400000
 8002fee:	f5b3 0f80 	cmp.w	r3, #4194304	@ 0x400000
 8002ff2:	d10b      	bne.n	800300c <HAL_RCC_OscConfig+0x5c>
 8002ff4:	4b7e      	ldr	r3, [pc, #504]	@ (80031f0 <HAL_RCC_OscConfig+0x240>)
 8002ff6:	681b      	ldr	r3, [r3, #0]
 8002ff8:	f403 3300 	and.w	r3, r3, #131072	@ 0x20000
 8002ffc:	2b00      	cmp	r3, #0
 8002ffe:	d05b      	beq.n	80030b8 <HAL_RCC_OscConfig+0x108>
 8003000:	687b      	ldr	r3, [r7, #4]
 8003002:	685b      	ldr	r3, [r3, #4]
 8003004:	2b00      	cmp	r3, #0
 8003006:	d157      	bne.n	80030b8 <HAL_RCC_OscConfig+0x108>
 8003008:	2301      	movs	r3, #1
 800300a:	e242      	b.n	8003492 <HAL_RCC_OscConfig+0x4e2>
 800300c:	687b      	ldr	r3, [r7, #4]
 800300e:	685b      	ldr	r3, [r3, #4]
 8003010:	f5b3 3f80 	cmp.w	r3, #65536	@ 0x10000
 8003014:	d106      	bne.n	8003024 <HAL_RCC_OscConfig+0x74>
 8003016:	4b76      	ldr	r3, [pc, #472]	@ (80031f0 <HAL_RCC_OscConfig+0x240>)
 8003018:	681b      	ldr	r3, [r3, #0]
 800301a:	4a75      	ldr	r2, [pc, #468]	@ (80031f0 <HAL_RCC_OscConfig+0x240>)
 800301c:	f443 3380 	orr.w	r3, r3, #65536	@ 0x10000
 8003020:	6013      	str	r3, [r2, #0]
 8003022:	e01d      	b.n	8003060 <HAL_RCC_OscConfig+0xb0>
 8003024:	687b      	ldr	r3, [r7, #4]
 8003026:	685b      	ldr	r3, [r3, #4]
 8003028:	f5b3 2fa0 	cmp.w	r3, #327680	@ 0x50000
 800302c:	d10c      	bne.n	8003048 <HAL_RCC_OscConfig+0x98>
 800302e:	4b70      	ldr	r3, [pc, #448]	@ (80031f0 <HAL_RCC_OscConfig+0x240>)
 8003030:	681b      	ldr	r3, [r3, #0]
 8003032:	4a6f      	ldr	r2, [pc, #444]	@ (80031f0 <HAL_RCC_OscConfig+0x240>)
 8003034:	f443 2380 	orr.w	r3, r3, #262144	@ 0x40000
 8003038:	6013      	str	r3, [r2, #0]
 800303a:	4b6d      	ldr	r3, [pc, #436]	@ (80031f0 <HAL_RCC_OscConfig+0x240>)
 800303c:	681b      	ldr	r3, [r3, #0]
 800303e:	4a6c      	ldr	r2, [pc, #432]	@ (80031f0 <HAL_RCC_OscConfig+0x240>)
 8003040:	f443 3380 	orr.w	r3, r3, #65536	@ 0x10000
 8003044:	6013      	str	r3, [r2, #0]
 8003046:	e00b      	b.n	8003060 <HAL_RCC_OscConfig+0xb0>
 8003048:	4b69      	ldr	r3, [pc, #420]	@ (80031f0 <HAL_RCC_OscConfig+0x240>)
 800304a:	681b      	ldr	r3, [r3, #0]
 800304c:	4a68      	ldr	r2, [pc, #416]	@ (80031f0 <HAL_RCC_OscConfig+0x240>)
 800304e:	f423 3380 	bic.w	r3, r3, #65536	@ 0x10000
 8003052:	6013      	str	r3, [r2, #0]
 8003054:	4b66      	ldr	r3, [pc, #408]	@ (80031f0 <HAL_RCC_OscConfig+0x240>)
 8003056:	681b      	ldr	r3, [r3, #0]
 8003058:	4a65      	ldr	r2, [pc, #404]	@ (80031f0 <HAL_RCC_OscConfig+0x240>)
 800305a:	f423 2380 	bic.w	r3, r3, #262144	@ 0x40000
 800305e:	6013      	str	r3, [r2, #0]
 8003060:	687b      	ldr	r3, [r7, #4]
 8003062:	685b      	ldr	r3, [r3, #4]
 8003064:	2b00      	cmp	r3, #0
 8003066:	d013      	beq.n	8003090 <HAL_RCC_OscConfig+0xe0>
 8003068:	f7ff f85a 	bl	8002120 <HAL_GetTick>
 800306c:	6138      	str	r0, [r7, #16]
 800306e:	e008      	b.n	8003082 <HAL_RCC_OscConfig+0xd2>
 8003070:	f7ff f856 	bl	8002120 <HAL_GetTick>
 8003074:	4602      	mov	r2, r0
 8003076:	693b      	ldr	r3, [r7, #16]
 8003078:	1ad3      	subs	r3, r2, r3
 800307a:	2b64      	cmp	r3, #100	@ 0x64
 800307c:	d901      	bls.n	8003082 <HAL_RCC_OscConfig+0xd2>
 800307e:	2303      	movs	r3, #3
 8003080:	e207      	b.n	8003492 <HAL_RCC_OscConfig+0x4e2>
 8003082:	4b5b      	ldr	r3, [pc, #364]	@ (80031f0 <HAL_RCC_OscConfig+0x240>)
 8003084:	681b      	ldr	r3, [r3, #0]
 8003086:	f403 3300 	and.w	r3, r3, #131072	@ 0x20000
 800308a:	2b00      	cmp	r3, #0
 800308c:	d0f0      	beq.n	8003070 <HAL_RCC_OscConfig+0xc0>
 800308e:	e014      	b.n	80030ba <HAL_RCC_OscConfig+0x10a>
 8003090:	f7ff f846 	bl	8002120 <HAL_GetTick>
 8003094:	6138      	str	r0, [r7, #16]
 8003096:	e008      	b.n	80030aa <HAL_RCC_OscConfig+0xfa>
 8003098:	f7ff f842 	bl	8002120 <HAL_GetTick>
 800309c:	4602      	mov	r2, r0
 800309e:	693b      	ldr	r3, [r7, #16]
 80030a0:	1ad3      	subs	r3, r2, r3
 80030a2:	2b64      	cmp	r3, #100	@ 0x64
 80030a4:	d901      	bls.n	80030aa <HAL_RCC_OscConfig+0xfa>
 80030a6:	2303      	movs	r3, #3
 80030a8:	e1f3      	b.n	8003492 <HAL_RCC_OscConfig+0x4e2>
 80030aa:	4b51      	ldr	r3, [pc, #324]	@ (80031f0 <HAL_RCC_OscConfig+0x240>)
 80030ac:	681b      	ldr	r3, [r3, #0]
 80030ae:	f403 3300 	and.w	r3, r3, #131072	@ 0x20000
 80030b2:	2b00      	cmp	r3, #0
 80030b4:	d1f0      	bne.n	8003098 <HAL_RCC_OscConfig+0xe8>
 80030b6:	e000      	b.n	80030ba <HAL_RCC_OscConfig+0x10a>
 80030b8:	bf00      	nop
 80030ba:	687b      	ldr	r3, [r7, #4]
 80030bc:	681b      	ldr	r3, [r3, #0]
 80030be:	f003 0302 	and.w	r3, r3, #2
 80030c2:	2b00      	cmp	r3, #0
 80030c4:	d063      	beq.n	800318e <HAL_RCC_OscConfig+0x1de>
 80030c6:	4b4a      	ldr	r3, [pc, #296]	@ (80031f0 <HAL_RCC_OscConfig+0x240>)
 80030c8:	689b      	ldr	r3, [r3, #8]
 80030ca:	f003 030c 	and.w	r3, r3, #12
 80030ce:	2b00      	cmp	r3, #0
 80030d0:	d00b      	beq.n	80030ea <HAL_RCC_OscConfig+0x13a>
 80030d2:	4b47      	ldr	r3, [pc, #284]	@ (80031f0 <HAL_RCC_OscConfig+0x240>)
 80030d4:	689b      	ldr	r3, [r3, #8]
 80030d6:	f003 030c 	and.w	r3, r3, #12
 80030da:	2b08      	cmp	r3, #8
 80030dc:	d11c      	bne.n	8003118 <HAL_RCC_OscConfig+0x168>
 80030de:	4b44      	ldr	r3, [pc, #272]	@ (80031f0 <HAL_RCC_OscConfig+0x240>)
 80030e0:	685b      	ldr	r3, [r3, #4]
 80030e2:	f403 0380 	and.w	r3, r3, #4194304	@ 0x400000
 80030e6:	2b00      	cmp	r3, #0
 80030e8:	d116      	bne.n	8003118 <HAL_RCC_OscConfig+0x168>
 80030ea:	4b41      	ldr	r3, [pc, #260]	@ (80031f0 <HAL_RCC_OscConfig+0x240>)
 80030ec:	681b      	ldr	r3, [r3, #0]
 80030ee:	f003 0302 	and.w	r3, r3, #2
 80030f2:	2b00      	cmp	r3, #0
 80030f4:	d005      	beq.n	8003102 <HAL_RCC_OscConfig+0x152>
 80030f6:	687b      	ldr	r3, [r7, #4]
 80030f8:	68db      	ldr	r3, [r3, #12]
 80030fa:	2b01      	cmp	r3, #1
 80030fc:	d001      	beq.n	8003102 <HAL_RCC_OscConfig+0x152>
 80030fe:	2301      	movs	r3, #1
 8003100:	e1c7      	b.n	8003492 <HAL_RCC_OscConfig+0x4e2>
 8003102:	4b3b      	ldr	r3, [pc, #236]	@ (80031f0 <HAL_RCC_OscConfig+0x240>)
 8003104:	681b      	ldr	r3, [r3, #0]
 8003106:	f023 02f8 	bic.w	r2, r3, #248	@ 0xf8
 800310a:	687b      	ldr	r3, [r7, #4]
 800310c:	691b      	ldr	r3, [r3, #16]
 800310e:	00db      	lsls	r3, r3, #3
 8003110:	4937      	ldr	r1, [pc, #220]	@ (80031f0 <HAL_RCC_OscConfig+0x240>)
 8003112:	4313      	orrs	r3, r2
 8003114:	600b      	str	r3, [r1, #0]
 8003116:	e03a      	b.n	800318e <HAL_RCC_OscConfig+0x1de>
 8003118:	687b      	ldr	r3, [r7, #4]
 800311a:	68db      	ldr	r3, [r3, #12]
 800311c:	2b00      	cmp	r3, #0
 800311e:	d020      	beq.n	8003162 <HAL_RCC_OscConfig+0x1b2>
 8003120:	4b34      	ldr	r3, [pc, #208]	@ (80031f4 <HAL_RCC_OscConfig+0x244>)
 8003122:	2201      	movs	r2, #1
 8003124:	601a      	str	r2, [r3, #0]
 8003126:	f7fe fffb 	bl	8002120 <HAL_GetTick>
 800312a:	6138      	str	r0, [r7, #16]
 800312c:	e008      	b.n	8003140 <HAL_RCC_OscConfig+0x190>
 800312e:	f7fe fff7 	bl	8002120 <HAL_GetTick>
 8003132:	4602      	mov	r2, r0
 8003134:	693b      	ldr	r3, [r7, #16]
 8003136:	1ad3      	subs	r3, r2, r3
 8003138:	2b02      	cmp	r3, #2
 800313a:	d901      	bls.n	8003140 <HAL_RCC_OscConfig+0x190>
 800313c:	2303      	movs	r3, #3
 800313e:	e1a8      	b.n	8003492 <HAL_RCC_OscConfig+0x4e2>
 8003140:	4b2b      	ldr	r3, [pc, #172]	@ (80031f0 <HAL_RCC_OscConfig+0x240>)
 8003142:	681b      	ldr	r3, [r3, #0]
 8003144:	f003 0302 	and.w	r3, r3, #2
 8003148:	2b00      	cmp	r3, #0
 800314a:	d0f0      	beq.n	800312e <HAL_RCC_OscConfig+0x17e>
 800314c:	4b28      	ldr	r3, [pc, #160]	@ (80031f0 <HAL_RCC_OscConfig+0x240>)
 800314e:	681b      	ldr	r3, [r3, #0]
 8003150:	f023 02f8 	bic.w	r2, r3, #248	@ 0xf8
 8003154:	687b      	ldr	r3, [r7, #4]
 8003156:	691b      	ldr	r3, [r3, #16]
 8003158:	00db      	lsls	r3, r3, #3
 800315a:	4925      	ldr	r1, [pc, #148]	@ (80031f0 <HAL_RCC_OscConfig+0x240>)
 800315c:	4313      	orrs	r3, r2
 800315e:	600b      	str	r3, [r1, #0]
 8003160:	e015      	b.n	800318e <HAL_RCC_OscConfig+0x1de>
 8003162:	4b24      	ldr	r3, [pc, #144]	@ (80031f4 <HAL_RCC_OscConfig+0x244>)
 8003164:	2200      	movs	r2, #0
 8003166:	601a      	str	r2, [r3, #0]
 8003168:	f7fe ffda 	bl	8002120 <HAL_GetTick>
 800316c:	6138      	str	r0, [r7, #16]
 800316e:	e008      	b.n	8003182 <HAL_RCC_OscConfig+0x1d2>
 8003170:	f7fe ffd6 	bl	8002120 <HAL_GetTick>
 8003174:	4602      	mov	r2, r0
 8003176:	693b      	ldr	r3, [r7, #16]
 8003178:	1ad3      	subs	r3, r2, r3
 800317a:	2b02      	cmp	r3, #2
 800317c:	d901      	bls.n	8003182 <HAL_RCC_OscConfig+0x1d2>
 800317e:	2303      	movs	r3, #3
 8003180:	e187      	b.n	8003492 <HAL_RCC_OscConfig+0x4e2>
 8003182:	4b1b      	ldr	r3, [pc, #108]	@ (80031f0 <HAL_RCC_OscConfig+0x240>)
 8003184:	681b      	ldr	r3, [r3, #0]
 8003186:	f003 0302 	and.w	r3, r3, #2
 800318a:	2b00      	cmp	r3, #0
 800318c:	d1f0      	bne.n	8003170 <HAL_RCC_OscConfig+0x1c0>
 800318e:	687b      	ldr	r3, [r7, #4]
 8003190:	681b      	ldr	r3, [r3, #0]
 8003192:	f003 0308 	and.w	r3, r3, #8
 8003196:	2b00      	cmp	r3, #0
 8003198:	d036      	beq.n	8003208 <HAL_RCC_OscConfig+0x258>
 800319a:	687b      	ldr	r3, [r7, #4]
 800319c:	695b      	ldr	r3, [r3, #20]
 800319e:	2b00      	cmp	r3, #0
 80031a0:	d016      	beq.n	80031d0 <HAL_RCC_OscConfig+0x220>
 80031a2:	4b15      	ldr	r3, [pc, #84]	@ (80031f8 <HAL_RCC_OscConfig+0x248>)
 80031a4:	2201      	movs	r2, #1
 80031a6:	601a      	str	r2, [r3, #0]
 80031a8:	f7fe ffba 	bl	8002120 <HAL_GetTick>
 80031ac:	6138      	str	r0, [r7, #16]
 80031ae:	e008      	b.n	80031c2 <HAL_RCC_OscConfig+0x212>
 80031b0:	f7fe ffb6 	bl	8002120 <HAL_GetTick>
 80031b4:	4602      	mov	r2, r0
 80031b6:	693b      	ldr	r3, [r7, #16]
 80031b8:	1ad3      	subs	r3, r2, r3
 80031ba:	2b02      	cmp	r3, #2
 80031bc:	d901      	bls.n	80031c2 <HAL_RCC_OscConfig+0x212>
 80031be:	2303      	movs	r3, #3
 80031c0:	e167      	b.n	8003492 <HAL_RCC_OscConfig+0x4e2>
 80031c2:	4b0b      	ldr	r3, [pc, #44]	@ (80031f0 <HAL_RCC_OscConfig+0x240>)
 80031c4:	6f5b      	ldr	r3, [r3, #116]	@ 0x74
 80031c6:	f003 0302 	and.w	r3, r3, #2
 80031ca:	2b00      	cmp	r3, #0
 80031cc:	d0f0      	beq.n	80031b0 <HAL_RCC_OscConfig+0x200>
 80031ce:	e01b      	b.n	8003208 <HAL_RCC_OscConfig+0x258>
 80031d0:	4b09      	ldr	r3, [pc, #36]	@ (80031f8 <HAL_RCC_OscConfig+0x248>)
 80031d2:	2200      	movs	r2, #0
 80031d4:	601a      	str	r2, [r3, #0]
 80031d6:	f7fe ffa3 	bl	8002120 <HAL_GetTick>
 80031da:	6138      	str	r0, [r7, #16]
 80031dc:	e00e      	b.n	80031fc <HAL_RCC_OscConfig+0x24c>
 80031de:	f7fe ff9f 	bl	8002120 <HAL_GetTick>
 80031e2:	4602      	mov	r2, r0
 80031e4:	693b      	ldr	r3, [r7, #16]
 80031e6:	1ad3      	subs	r3, r2, r3
 80031e8:	2b02      	cmp	r3, #2
 80031ea:	d907      	bls.n	80031fc <HAL_RCC_OscConfig+0x24c>
 80031ec:	2303      	movs	r3, #3
 80031ee:	e150      	b.n	8003492 <HAL_RCC_OscConfig+0x4e2>
 80031f0:	40023800 	.word	0x40023800
 80031f4:	42470000 	.word	0x42470000
 80031f8:	42470e80 	.word	0x42470e80
 80031fc:	4b88      	ldr	r3, [pc, #544]	@ (8003420 <HAL_RCC_OscConfig+0x470>)
 80031fe:	6f5b      	ldr	r3, [r3, #116]	@ 0x74
 8003200:	f003 0302 	and.w	r3, r3, #2
 8003204:	2b00      	cmp	r3, #0
 8003206:	d1ea      	bne.n	80031de <HAL_RCC_OscConfig+0x22e>
 8003208:	687b      	ldr	r3, [r7, #4]
 800320a:	681b      	ldr	r3, [r3, #0]
 800320c:	f003 0304 	and.w	r3, r3, #4
 8003210:	2b00      	cmp	r3, #0
 8003212:	f000 8097 	beq.w	8003344 <HAL_RCC_OscConfig+0x394>
 8003216:	2300      	movs	r3, #0
 8003218:	75fb      	strb	r3, [r7, #23]
 800321a:	4b81      	ldr	r3, [pc, #516]	@ (8003420 <HAL_RCC_OscConfig+0x470>)
 800321c:	6c1b      	ldr	r3, [r3, #64]	@ 0x40
 800321e:	f003 5380 	and.w	r3, r3, #268435456	@ 0x10000000
 8003222:	2b00      	cmp	r3, #0
 8003224:	d10f      	bne.n	8003246 <HAL_RCC_OscConfig+0x296>
 8003226:	2300      	movs	r3, #0
 8003228:	60bb      	str	r3, [r7, #8]
 800322a:	4b7d      	ldr	r3, [pc, #500]	@ (8003420 <HAL_RCC_OscConfig+0x470>)
 800322c:	6c1b      	ldr	r3, [r3, #64]	@ 0x40
 800322e:	4a7c      	ldr	r2, [pc, #496]	@ (8003420 <HAL_RCC_OscConfig+0x470>)
 8003230:	f043 5380 	orr.w	r3, r3, #268435456	@ 0x10000000
 8003234:	6413      	str	r3, [r2, #64]	@ 0x40
 8003236:	4b7a      	ldr	r3, [pc, #488]	@ (8003420 <HAL_RCC_OscConfig+0x470>)
 8003238:	6c1b      	ldr	r3, [r3, #64]	@ 0x40
 800323a:	f003 5380 	and.w	r3, r3, #268435456	@ 0x10000000
 800323e:	60bb      	str	r3, [r7, #8]
 8003240:	68bb      	ldr	r3, [r7, #8]
 8003242:	2301      	movs	r3, #1
 8003244:	75fb      	strb	r3, [r7, #23]
 8003246:	4b77      	ldr	r3, [pc, #476]	@ (8003424 <HAL_RCC_OscConfig+0x474>)
 8003248:	681b      	ldr	r3, [r3, #0]
 800324a:	f403 7380 	and.w	r3, r3, #256	@ 0x100
 800324e:	2b00      	cmp	r3, #0
 8003250:	d118      	bne.n	8003284 <HAL_RCC_OscConfig+0x2d4>
 8003252:	4b74      	ldr	r3, [pc, #464]	@ (8003424 <HAL_RCC_OscConfig+0x474>)
 8003254:	681b      	ldr	r3, [r3, #0]
 8003256:	4a73      	ldr	r2, [pc, #460]	@ (8003424 <HAL_RCC_OscConfig+0x474>)
 8003258:	f443 7380 	orr.w	r3, r3, #256	@ 0x100
 800325c:	6013      	str	r3, [r2, #0]
 800325e:	f7fe ff5f 	bl	8002120 <HAL_GetTick>
 8003262:	6138      	str	r0, [r7, #16]
 8003264:	e008      	b.n	8003278 <HAL_RCC_OscConfig+0x2c8>
 8003266:	f7fe ff5b 	bl	8002120 <HAL_GetTick>
 800326a:	4602      	mov	r2, r0
 800326c:	693b      	ldr	r3, [r7, #16]
 800326e:	1ad3      	subs	r3, r2, r3
 8003270:	2b02      	cmp	r3, #2
 8003272:	d901      	bls.n	8003278 <HAL_RCC_OscConfig+0x2c8>
 8003274:	2303      	movs	r3, #3
 8003276:	e10c      	b.n	8003492 <HAL_RCC_OscConfig+0x4e2>
 8003278:	4b6a      	ldr	r3, [pc, #424]	@ (8003424 <HAL_RCC_OscConfig+0x474>)
 800327a:	681b      	ldr	r3, [r3, #0]
 800327c:	f403 7380 	and.w	r3, r3, #256	@ 0x100
 8003280:	2b00      	cmp	r3, #0
 8003282:	d0f0      	beq.n	8003266 <HAL_RCC_OscConfig+0x2b6>
 8003284:	687b      	ldr	r3, [r7, #4]
 8003286:	689b      	ldr	r3, [r3, #8]
 8003288:	2b01      	cmp	r3, #1
 800328a:	d106      	bne.n	800329a <HAL_RCC_OscConfig+0x2ea>
 800328c:	4b64      	ldr	r3, [pc, #400]	@ (8003420 <HAL_RCC_OscConfig+0x470>)
 800328e:	6f1b      	ldr	r3, [r3, #112]	@ 0x70
 8003290:	4a63      	ldr	r2, [pc, #396]	@ (8003420 <HAL_RCC_OscConfig+0x470>)
 8003292:	f043 0301 	orr.w	r3, r3, #1
 8003296:	6713      	str	r3, [r2, #112]	@ 0x70
 8003298:	e01c      	b.n	80032d4 <HAL_RCC_OscConfig+0x324>
 800329a:	687b      	ldr	r3, [r7, #4]
 800329c:	689b      	ldr	r3, [r3, #8]
 800329e:	2b05      	cmp	r3, #5
 80032a0:	d10c      	bne.n	80032bc <HAL_RCC_OscConfig+0x30c>
 80032a2:	4b5f      	ldr	r3, [pc, #380]	@ (8003420 <HAL_RCC_OscConfig+0x470>)
 80032a4:	6f1b      	ldr	r3, [r3, #112]	@ 0x70
 80032a6:	4a5e      	ldr	r2, [pc, #376]	@ (8003420 <HAL_RCC_OscConfig+0x470>)
 80032a8:	f043 0304 	orr.w	r3, r3, #4
 80032ac:	6713      	str	r3, [r2, #112]	@ 0x70
 80032ae:	4b5c      	ldr	r3, [pc, #368]	@ (8003420 <HAL_RCC_OscConfig+0x470>)
 80032b0:	6f1b      	ldr	r3, [r3, #112]	@ 0x70
 80032b2:	4a5b      	ldr	r2, [pc, #364]	@ (8003420 <HAL_RCC_OscConfig+0x470>)
 80032b4:	f043 0301 	orr.w	r3, r3, #1
 80032b8:	6713      	str	r3, [r2, #112]	@ 0x70
 80032ba:	e00b      	b.n	80032d4 <HAL_RCC_OscConfig+0x324>
 80032bc:	4b58      	ldr	r3, [pc, #352]	@ (8003420 <HAL_RCC_OscConfig+0x470>)
 80032be:	6f1b      	ldr	r3, [r3, #112]	@ 0x70
 80032c0:	4a57      	ldr	r2, [pc, #348]	@ (8003420 <HAL_RCC_OscConfig+0x470>)
 80032c2:	f023 0301 	bic.w	r3, r3, #1
 80032c6:	6713      	str	r3, [r2, #112]	@ 0x70
 80032c8:	4b55      	ldr	r3, [pc, #340]	@ (8003420 <HAL_RCC_OscConfig+0x470>)
 80032ca:	6f1b      	ldr	r3, [r3, #112]	@ 0x70
 80032cc:	4a54      	ldr	r2, [pc, #336]	@ (8003420 <HAL_RCC_OscConfig+0x470>)
 80032ce:	f023 0304 	bic.w	r3, r3, #4
 80032d2:	6713      	str	r3, [r2, #112]	@ 0x70
 80032d4:	687b      	ldr	r3, [r7, #4]
 80032d6:	689b      	ldr	r3, [r3, #8]
 80032d8:	2b00      	cmp	r3, #0
 80032da:	d015      	beq.n	8003308 <HAL_RCC_OscConfig+0x358>
 80032dc:	f7fe ff20 	bl	8002120 <HAL_GetTick>
 80032e0:	6138      	str	r0, [r7, #16]
 80032e2:	e00a      	b.n	80032fa <HAL_RCC_OscConfig+0x34a>
 80032e4:	f7fe ff1c 	bl	8002120 <HAL_GetTick>
 80032e8:	4602      	mov	r2, r0
 80032ea:	693b      	ldr	r3, [r7, #16]
 80032ec:	1ad3      	subs	r3, r2, r3
 80032ee:	f241 3288 	movw	r2, #5000	@ 0x1388
 80032f2:	4293      	cmp	r3, r2
 80032f4:	d901      	bls.n	80032fa <HAL_RCC_OscConfig+0x34a>
 80032f6:	2303      	movs	r3, #3
 80032f8:	e0cb      	b.n	8003492 <HAL_RCC_OscConfig+0x4e2>
 80032fa:	4b49      	ldr	r3, [pc, #292]	@ (8003420 <HAL_RCC_OscConfig+0x470>)
 80032fc:	6f1b      	ldr	r3, [r3, #112]	@ 0x70
 80032fe:	f003 0302 	and.w	r3, r3, #2
 8003302:	2b00      	cmp	r3, #0
 8003304:	d0ee      	beq.n	80032e4 <HAL_RCC_OscConfig+0x334>
 8003306:	e014      	b.n	8003332 <HAL_RCC_OscConfig+0x382>
 8003308:	f7fe ff0a 	bl	8002120 <HAL_GetTick>
 800330c:	6138      	str	r0, [r7, #16]
 800330e:	e00a      	b.n	8003326 <HAL_RCC_OscConfig+0x376>
 8003310:	f7fe ff06 	bl	8002120 <HAL_GetTick>
 8003314:	4602      	mov	r2, r0
 8003316:	693b      	ldr	r3, [r7, #16]
 8003318:	1ad3      	subs	r3, r2, r3
 800331a:	f241 3288 	movw	r2, #5000	@ 0x1388
 800331e:	4293      	cmp	r3, r2
 8003320:	d901      	bls.n	8003326 <HAL_RCC_OscConfig+0x376>
 8003322:	2303      	movs	r3, #3
 8003324:	e0b5      	b.n	8003492 <HAL_RCC_OscConfig+0x4e2>
 8003326:	4b3e      	ldr	r3, [pc, #248]	@ (8003420 <HAL_RCC_OscConfig+0x470>)
 8003328:	6f1b      	ldr	r3, [r3, #112]	@ 0x70
 800332a:	f003 0302 	and.w	r3, r3, #2
 800332e:	2b00      	cmp	r3, #0
 8003330:	d1ee      	bne.n	8003310 <HAL_RCC_OscConfig+0x360>
 8003332:	7dfb      	ldrb	r3, [r7, #23]
 8003334:	2b01      	cmp	r3, #1
 8003336:	d105      	bne.n	8003344 <HAL_RCC_OscConfig+0x394>
 8003338:	4b39      	ldr	r3, [pc, #228]	@ (8003420 <HAL_RCC_OscConfig+0x470>)
 800333a:	6c1b      	ldr	r3, [r3, #64]	@ 0x40
 800333c:	4a38      	ldr	r2, [pc, #224]	@ (8003420 <HAL_RCC_OscConfig+0x470>)
 800333e:	f023 5380 	bic.w	r3, r3, #268435456	@ 0x10000000
 8003342:	6413      	str	r3, [r2, #64]	@ 0x40
 8003344:	687b      	ldr	r3, [r7, #4]
 8003346:	699b      	ldr	r3, [r3, #24]
 8003348:	2b00      	cmp	r3, #0
 800334a:	f000 80a1 	beq.w	8003490 <HAL_RCC_OscConfig+0x4e0>
 800334e:	4b34      	ldr	r3, [pc, #208]	@ (8003420 <HAL_RCC_OscConfig+0x470>)
 8003350:	689b      	ldr	r3, [r3, #8]
 8003352:	f003 030c 	and.w	r3, r3, #12
 8003356:	2b08      	cmp	r3, #8
 8003358:	d05c      	beq.n	8003414 <HAL_RCC_OscConfig+0x464>
 800335a:	687b      	ldr	r3, [r7, #4]
 800335c:	699b      	ldr	r3, [r3, #24]
 800335e:	2b02      	cmp	r3, #2
 8003360:	d141      	bne.n	80033e6 <HAL_RCC_OscConfig+0x436>
 8003362:	4b31      	ldr	r3, [pc, #196]	@ (8003428 <HAL_RCC_OscConfig+0x478>)
 8003364:	2200      	movs	r2, #0
 8003366:	601a      	str	r2, [r3, #0]
 8003368:	f7fe feda 	bl	8002120 <HAL_GetTick>
 800336c:	6138      	str	r0, [r7, #16]
 800336e:	e008      	b.n	8003382 <HAL_RCC_OscConfig+0x3d2>
 8003370:	f7fe fed6 	bl	8002120 <HAL_GetTick>
 8003374:	4602      	mov	r2, r0
 8003376:	693b      	ldr	r3, [r7, #16]
 8003378:	1ad3      	subs	r3, r2, r3
 800337a:	2b02      	cmp	r3, #2
 800337c:	d901      	bls.n	8003382 <HAL_RCC_OscConfig+0x3d2>
 800337e:	2303      	movs	r3, #3
 8003380:	e087      	b.n	8003492 <HAL_RCC_OscConfig+0x4e2>
 8003382:	4b27      	ldr	r3, [pc, #156]	@ (8003420 <HAL_RCC_OscConfig+0x470>)
 8003384:	681b      	ldr	r3, [r3, #0]
 8003386:	f003 7300 	and.w	r3, r3, #33554432	@ 0x2000000
 800338a:	2b00      	cmp	r3, #0
 800338c:	d1f0      	bne.n	8003370 <HAL_RCC_OscConfig+0x3c0>
 800338e:	687b      	ldr	r3, [r7, #4]
 8003390:	69da      	ldr	r2, [r3, #28]
 8003392:	687b      	ldr	r3, [r7, #4]
 8003394:	6a1b      	ldr	r3, [r3, #32]
 8003396:	431a      	orrs	r2, r3
 8003398:	687b      	ldr	r3, [r7, #4]
 800339a:	6a5b      	ldr	r3, [r3, #36]	@ 0x24
 800339c:	019b      	lsls	r3, r3, #6
 800339e:	431a      	orrs	r2, r3
 80033a0:	687b      	ldr	r3, [r7, #4]
 80033a2:	6a9b      	ldr	r3, [r3, #40]	@ 0x28
 80033a4:	085b      	lsrs	r3, r3, #1
 80033a6:	3b01      	subs	r3, #1
 80033a8:	041b      	lsls	r3, r3, #16
 80033aa:	431a      	orrs	r2, r3
 80033ac:	687b      	ldr	r3, [r7, #4]
 80033ae:	6adb      	ldr	r3, [r3, #44]	@ 0x2c
 80033b0:	061b      	lsls	r3, r3, #24
 80033b2:	491b      	ldr	r1, [pc, #108]	@ (8003420 <HAL_RCC_OscConfig+0x470>)
 80033b4:	4313      	orrs	r3, r2
 80033b6:	604b      	str	r3, [r1, #4]
 80033b8:	4b1b      	ldr	r3, [pc, #108]	@ (8003428 <HAL_RCC_OscConfig+0x478>)
 80033ba:	2201      	movs	r2, #1
 80033bc:	601a      	str	r2, [r3, #0]
 80033be:	f7fe feaf 	bl	8002120 <HAL_GetTick>
 80033c2:	6138      	str	r0, [r7, #16]
 80033c4:	e008      	b.n	80033d8 <HAL_RCC_OscConfig+0x428>
 80033c6:	f7fe feab 	bl	8002120 <HAL_GetTick>
 80033ca:	4602      	mov	r2, r0
 80033cc:	693b      	ldr	r3, [r7, #16]
 80033ce:	1ad3      	subs	r3, r2, r3
 80033d0:	2b02      	cmp	r3, #2
 80033d2:	d901      	bls.n	80033d8 <HAL_RCC_OscConfig+0x428>
 80033d4:	2303      	movs	r3, #3
 80033d6:	e05c      	b.n	8003492 <HAL_RCC_OscConfig+0x4e2>
 80033d8:	4b11      	ldr	r3, [pc, #68]	@ (8003420 <HAL_RCC_OscConfig+0x470>)
 80033da:	681b      	ldr	r3, [r3, #0]
 80033dc:	f003 7300 	and.w	r3, r3, #33554432	@ 0x2000000
 80033e0:	2b00      	cmp	r3, #0
 80033e2:	d0f0      	beq.n	80033c6 <HAL_RCC_OscConfig+0x416>
 80033e4:	e054      	b.n	8003490 <HAL_RCC_OscConfig+0x4e0>
 80033e6:	4b10      	ldr	r3, [pc, #64]	@ (8003428 <HAL_RCC_OscConfig+0x478>)
 80033e8:	2200      	movs	r2, #0
 80033ea:	601a      	str	r2, [r3, #0]
 80033ec:	f7fe fe98 	bl	8002120 <HAL_GetTick>
 80033f0:	6138      	str	r0, [r7, #16]
 80033f2:	e008      	b.n	8003406 <HAL_RCC_OscConfig+0x456>
 80033f4:	f7fe fe94 	bl	8002120 <HAL_GetTick>
 80033f8:	4602      	mov	r2, r0
 80033fa:	693b      	ldr	r3, [r7, #16]
 80033fc:	1ad3      	subs	r3, r2, r3
 80033fe:	2b02      	cmp	r3, #2
 8003400:	d901      	bls.n	8003406 <HAL_RCC_OscConfig+0x456>
 8003402:	2303      	movs	r3, #3
 8003404:	e045      	b.n	8003492 <HAL_RCC_OscConfig+0x4e2>
 8003406:	4b06      	ldr	r3, [pc, #24]	@ (8003420 <HAL_RCC_OscConfig+0x470>)
 8003408:	681b      	ldr	r3, [r3, #0]
 800340a:	f003 7300 	and.w	r3, r3, #33554432	@ 0x2000000
 800340e:	2b00      	cmp	r3, #0
 8003410:	d1f0      	bne.n	80033f4 <HAL_RCC_OscConfig+0x444>
 8003412:	e03d      	b.n	8003490 <HAL_RCC_OscConfig+0x4e0>
 8003414:	687b      	ldr	r3, [r7, #4]
 8003416:	699b      	ldr	r3, [r3, #24]
 8003418:	2b01      	cmp	r3, #1
 800341a:	d107      	bne.n	800342c <HAL_RCC_OscConfig+0x47c>
 800341c:	2301      	movs	r3, #1
 800341e:	e038      	b.n	8003492 <HAL_RCC_OscConfig+0x4e2>
 8003420:	40023800 	.word	0x40023800
 8003424:	40007000 	.word	0x40007000
 8003428:	42470060 	.word	0x42470060
 800342c:	4b1b      	ldr	r3, [pc, #108]	@ (800349c <HAL_RCC_OscConfig+0x4ec>)
 800342e:	685b      	ldr	r3, [r3, #4]
 8003430:	60fb      	str	r3, [r7, #12]
 8003432:	687b      	ldr	r3, [r7, #4]
 8003434:	699b      	ldr	r3, [r3, #24]
 8003436:	2b01      	cmp	r3, #1
 8003438:	d028      	beq.n	800348c <HAL_RCC_OscConfig+0x4dc>
 800343a:	68fb      	ldr	r3, [r7, #12]
 800343c:	f403 0280 	and.w	r2, r3, #4194304	@ 0x400000
 8003440:	687b      	ldr	r3, [r7, #4]
 8003442:	69db      	ldr	r3, [r3, #28]
 8003444:	429a      	cmp	r2, r3
 8003446:	d121      	bne.n	800348c <HAL_RCC_OscConfig+0x4dc>
 8003448:	68fb      	ldr	r3, [r7, #12]
 800344a:	f003 023f 	and.w	r2, r3, #63	@ 0x3f
 800344e:	687b      	ldr	r3, [r7, #4]
 8003450:	6a1b      	ldr	r3, [r3, #32]
 8003452:	429a      	cmp	r2, r3
 8003454:	d11a      	bne.n	800348c <HAL_RCC_OscConfig+0x4dc>
 8003456:	68fa      	ldr	r2, [r7, #12]
 8003458:	f647 73c0 	movw	r3, #32704	@ 0x7fc0
 800345c:	4013      	ands	r3, r2
 800345e:	687a      	ldr	r2, [r7, #4]
 8003460:	6a52      	ldr	r2, [r2, #36]	@ 0x24
 8003462:	0192      	lsls	r2, r2, #6
 8003464:	4293      	cmp	r3, r2
 8003466:	d111      	bne.n	800348c <HAL_RCC_OscConfig+0x4dc>
 8003468:	68fb      	ldr	r3, [r7, #12]
 800346a:	f403 3240 	and.w	r2, r3, #196608	@ 0x30000
 800346e:	687b      	ldr	r3, [r7, #4]
 8003470:	6a9b      	ldr	r3, [r3, #40]	@ 0x28
 8003472:	085b      	lsrs	r3, r3, #1
 8003474:	3b01      	subs	r3, #1
 8003476:	041b      	lsls	r3, r3, #16
 8003478:	429a      	cmp	r2, r3
 800347a:	d107      	bne.n	800348c <HAL_RCC_OscConfig+0x4dc>
 800347c:	68fb      	ldr	r3, [r7, #12]
 800347e:	f003 6270 	and.w	r2, r3, #251658240	@ 0xf000000
 8003482:	687b      	ldr	r3, [r7, #4]
 8003484:	6adb      	ldr	r3, [r3, #44]	@ 0x2c
 8003486:	061b      	lsls	r3, r3, #24
 8003488:	429a      	cmp	r2, r3
 800348a:	d001      	beq.n	8003490 <HAL_RCC_OscConfig+0x4e0>
 800348c:	2301      	movs	r3, #1
 800348e:	e000      	b.n	8003492 <HAL_RCC_OscConfig+0x4e2>
 8003490:	2300      	movs	r3, #0
 8003492:	4618      	mov	r0, r3
 8003494:	3718      	adds	r7, #24
 8003496:	46bd      	mov	sp, r7
 8003498:	bd80      	pop	{r7, pc}
 800349a:	bf00      	nop
 800349c:	40023800 	.word	0x40023800

080034a0 <HAL_RCC_ClockConfig>:
 80034a0:	b580      	push	{r7, lr}
 80034a2:	b084      	sub	sp, #16
 80034a4:	af00      	add	r7, sp, #0
 80034a6:	6078      	str	r0, [r7, #4]
 80034a8:	6039      	str	r1, [r7, #0]
 80034aa:	687b      	ldr	r3, [r7, #4]
 80034ac:	2b00      	cmp	r3, #0
 80034ae:	d101      	bne.n	80034b4 <HAL_RCC_ClockConfig+0x14>
 80034b0:	2301      	movs	r3, #1
 80034b2:	e0cc      	b.n	800364e <HAL_RCC_ClockConfig+0x1ae>
 80034b4:	4b68      	ldr	r3, [pc, #416]	@ (8003658 <HAL_RCC_ClockConfig+0x1b8>)
 80034b6:	681b      	ldr	r3, [r3, #0]
 80034b8:	f003 0307 	and.w	r3, r3, #7
 80034bc:	683a      	ldr	r2, [r7, #0]
 80034be:	429a      	cmp	r2, r3
 80034c0:	d90c      	bls.n	80034dc <HAL_RCC_ClockConfig+0x3c>
 80034c2:	4b65      	ldr	r3, [pc, #404]	@ (8003658 <HAL_RCC_ClockConfig+0x1b8>)
 80034c4:	683a      	ldr	r2, [r7, #0]
 80034c6:	b2d2      	uxtb	r2, r2
 80034c8:	701a      	strb	r2, [r3, #0]
 80034ca:	4b63      	ldr	r3, [pc, #396]	@ (8003658 <HAL_RCC_ClockConfig+0x1b8>)
 80034cc:	681b      	ldr	r3, [r3, #0]
 80034ce:	f003 0307 	and.w	r3, r3, #7
 80034d2:	683a      	ldr	r2, [r7, #0]
 80034d4:	429a      	cmp	r2, r3
 80034d6:	d001      	beq.n	80034dc <HAL_RCC_ClockConfig+0x3c>
 80034d8:	2301      	movs	r3, #1
 80034da:	e0b8      	b.n	800364e <HAL_RCC_ClockConfig+0x1ae>
 80034dc:	687b      	ldr	r3, [r7, #4]
 80034de:	681b      	ldr	r3, [r3, #0]
 80034e0:	f003 0302 	and.w	r3, r3, #2
 80034e4:	2b00      	cmp	r3, #0
 80034e6:	d020      	beq.n	800352a <HAL_RCC_ClockConfig+0x8a>
 80034e8:	687b      	ldr	r3, [r7, #4]
 80034ea:	681b      	ldr	r3, [r3, #0]
 80034ec:	f003 0304 	and.w	r3, r3, #4
 80034f0:	2b00      	cmp	r3, #0
 80034f2:	d005      	beq.n	8003500 <HAL_RCC_ClockConfig+0x60>
 80034f4:	4b59      	ldr	r3, [pc, #356]	@ (800365c <HAL_RCC_ClockConfig+0x1bc>)
 80034f6:	689b      	ldr	r3, [r3, #8]
 80034f8:	4a58      	ldr	r2, [pc, #352]	@ (800365c <HAL_RCC_ClockConfig+0x1bc>)
 80034fa:	f443 53e0 	orr.w	r3, r3, #7168	@ 0x1c00
 80034fe:	6093      	str	r3, [r2, #8]
 8003500:	687b      	ldr	r3, [r7, #4]
 8003502:	681b      	ldr	r3, [r3, #0]
 8003504:	f003 0308 	and.w	r3, r3, #8
 8003508:	2b00      	cmp	r3, #0
 800350a:	d005      	beq.n	8003518 <HAL_RCC_ClockConfig+0x78>
 800350c:	4b53      	ldr	r3, [pc, #332]	@ (800365c <HAL_RCC_ClockConfig+0x1bc>)
 800350e:	689b      	ldr	r3, [r3, #8]
 8003510:	4a52      	ldr	r2, [pc, #328]	@ (800365c <HAL_RCC_ClockConfig+0x1bc>)
 8003512:	f443 4360 	orr.w	r3, r3, #57344	@ 0xe000
 8003516:	6093      	str	r3, [r2, #8]
 8003518:	4b50      	ldr	r3, [pc, #320]	@ (800365c <HAL_RCC_ClockConfig+0x1bc>)
 800351a:	689b      	ldr	r3, [r3, #8]
 800351c:	f023 02f0 	bic.w	r2, r3, #240	@ 0xf0
 8003520:	687b      	ldr	r3, [r7, #4]
 8003522:	689b      	ldr	r3, [r3, #8]
 8003524:	494d      	ldr	r1, [pc, #308]	@ (800365c <HAL_RCC_ClockConfig+0x1bc>)
 8003526:	4313      	orrs	r3, r2
 8003528:	608b      	str	r3, [r1, #8]
 800352a:	687b      	ldr	r3, [r7, #4]
 800352c:	681b      	ldr	r3, [r3, #0]
 800352e:	f003 0301 	and.w	r3, r3, #1
 8003532:	2b00      	cmp	r3, #0
 8003534:	d044      	beq.n	80035c0 <HAL_RCC_ClockConfig+0x120>
 8003536:	687b      	ldr	r3, [r7, #4]
 8003538:	685b      	ldr	r3, [r3, #4]
 800353a:	2b01      	cmp	r3, #1
 800353c:	d107      	bne.n	800354e <HAL_RCC_ClockConfig+0xae>
 800353e:	4b47      	ldr	r3, [pc, #284]	@ (800365c <HAL_RCC_ClockConfig+0x1bc>)
 8003540:	681b      	ldr	r3, [r3, #0]
 8003542:	f403 3300 	and.w	r3, r3, #131072	@ 0x20000
 8003546:	2b00      	cmp	r3, #0
 8003548:	d119      	bne.n	800357e <HAL_RCC_ClockConfig+0xde>
 800354a:	2301      	movs	r3, #1
 800354c:	e07f      	b.n	800364e <HAL_RCC_ClockConfig+0x1ae>
 800354e:	687b      	ldr	r3, [r7, #4]
 8003550:	685b      	ldr	r3, [r3, #4]
 8003552:	2b02      	cmp	r3, #2
 8003554:	d003      	beq.n	800355e <HAL_RCC_ClockConfig+0xbe>
 8003556:	687b      	ldr	r3, [r7, #4]
 8003558:	685b      	ldr	r3, [r3, #4]
 800355a:	2b03      	cmp	r3, #3
 800355c:	d107      	bne.n	800356e <HAL_RCC_ClockConfig+0xce>
 800355e:	4b3f      	ldr	r3, [pc, #252]	@ (800365c <HAL_RCC_ClockConfig+0x1bc>)
 8003560:	681b      	ldr	r3, [r3, #0]
 8003562:	f003 7300 	and.w	r3, r3, #33554432	@ 0x2000000
 8003566:	2b00      	cmp	r3, #0
 8003568:	d109      	bne.n	800357e <HAL_RCC_ClockConfig+0xde>
 800356a:	2301      	movs	r3, #1
 800356c:	e06f      	b.n	800364e <HAL_RCC_ClockConfig+0x1ae>
 800356e:	4b3b      	ldr	r3, [pc, #236]	@ (800365c <HAL_RCC_ClockConfig+0x1bc>)
 8003570:	681b      	ldr	r3, [r3, #0]
 8003572:	f003 0302 	and.w	r3, r3, #2
 8003576:	2b00      	cmp	r3, #0
 8003578:	d101      	bne.n	800357e <HAL_RCC_ClockConfig+0xde>
 800357a:	2301      	movs	r3, #1
 800357c:	e067      	b.n	800364e <HAL_RCC_ClockConfig+0x1ae>
 800357e:	4b37      	ldr	r3, [pc, #220]	@ (800365c <HAL_RCC_ClockConfig+0x1bc>)
 8003580:	689b      	ldr	r3, [r3, #8]
 8003582:	f023 0203 	bic.w	r2, r3, #3
 8003586:	687b      	ldr	r3, [r7, #4]
 8003588:	685b      	ldr	r3, [r3, #4]
 800358a:	4934      	ldr	r1, [pc, #208]	@ (800365c <HAL_RCC_ClockConfig+0x1bc>)
 800358c:	4313      	orrs	r3, r2
 800358e:	608b      	str	r3, [r1, #8]
 8003590:	f7fe fdc6 	bl	8002120 <HAL_GetTick>
 8003594:	60f8      	str	r0, [r7, #12]
 8003596:	e00a      	b.n	80035ae <HAL_RCC_ClockConfig+0x10e>
 8003598:	f7fe fdc2 	bl	8002120 <HAL_GetTick>
 800359c:	4602      	mov	r2, r0
 800359e:	68fb      	ldr	r3, [r7, #12]
 80035a0:	1ad3      	subs	r3, r2, r3
 80035a2:	f241 3288 	movw	r2, #5000	@ 0x1388
 80035a6:	4293      	cmp	r3, r2
 80035a8:	d901      	bls.n	80035ae <HAL_RCC_ClockConfig+0x10e>
 80035aa:	2303      	movs	r3, #3
 80035ac:	e04f      	b.n	800364e <HAL_RCC_ClockConfig+0x1ae>
 80035ae:	4b2b      	ldr	r3, [pc, #172]	@ (800365c <HAL_RCC_ClockConfig+0x1bc>)
 80035b0:	689b      	ldr	r3, [r3, #8]
 80035b2:	f003 020c 	and.w	r2, r3, #12
 80035b6:	687b      	ldr	r3, [r7, #4]
 80035b8:	685b      	ldr	r3, [r3, #4]
 80035ba:	009b      	lsls	r3, r3, #2
 80035bc:	429a      	cmp	r2, r3
 80035be:	d1eb      	bne.n	8003598 <HAL_RCC_ClockConfig+0xf8>
 80035c0:	4b25      	ldr	r3, [pc, #148]	@ (8003658 <HAL_RCC_ClockConfig+0x1b8>)
 80035c2:	681b      	ldr	r3, [r3, #0]
 80035c4:	f003 0307 	and.w	r3, r3, #7
 80035c8:	683a      	ldr	r2, [r7, #0]
 80035ca:	429a      	cmp	r2, r3
 80035cc:	d20c      	bcs.n	80035e8 <HAL_RCC_ClockConfig+0x148>
 80035ce:	4b22      	ldr	r3, [pc, #136]	@ (8003658 <HAL_RCC_ClockConfig+0x1b8>)
 80035d0:	683a      	ldr	r2, [r7, #0]
 80035d2:	b2d2      	uxtb	r2, r2
 80035d4:	701a      	strb	r2, [r3, #0]
 80035d6:	4b20      	ldr	r3, [pc, #128]	@ (8003658 <HAL_RCC_ClockConfig+0x1b8>)
 80035d8:	681b      	ldr	r3, [r3, #0]
 80035da:	f003 0307 	and.w	r3, r3, #7
 80035de:	683a      	ldr	r2, [r7, #0]
 80035e0:	429a      	cmp	r2, r3
 80035e2:	d001      	beq.n	80035e8 <HAL_RCC_ClockConfig+0x148>
 80035e4:	2301      	movs	r3, #1
 80035e6:	e032      	b.n	800364e <HAL_RCC_ClockConfig+0x1ae>
 80035e8:	687b      	ldr	r3, [r7, #4]
 80035ea:	681b      	ldr	r3, [r3, #0]
 80035ec:	f003 0304 	and.w	r3, r3, #4
 80035f0:	2b00      	cmp	r3, #0
 80035f2:	d008      	beq.n	8003606 <HAL_RCC_ClockConfig+0x166>
 80035f4:	4b19      	ldr	r3, [pc, #100]	@ (800365c <HAL_RCC_ClockConfig+0x1bc>)
 80035f6:	689b      	ldr	r3, [r3, #8]
 80035f8:	f423 52e0 	bic.w	r2, r3, #7168	@ 0x1c00
 80035fc:	687b      	ldr	r3, [r7, #4]
 80035fe:	68db      	ldr	r3, [r3, #12]
 8003600:	4916      	ldr	r1, [pc, #88]	@ (800365c <HAL_RCC_ClockConfig+0x1bc>)
 8003602:	4313      	orrs	r3, r2
 8003604:	608b      	str	r3, [r1, #8]
 8003606:	687b      	ldr	r3, [r7, #4]
 8003608:	681b      	ldr	r3, [r3, #0]
 800360a:	f003 0308 	and.w	r3, r3, #8
 800360e:	2b00      	cmp	r3, #0
 8003610:	d009      	beq.n	8003626 <HAL_RCC_ClockConfig+0x186>
 8003612:	4b12      	ldr	r3, [pc, #72]	@ (800365c <HAL_RCC_ClockConfig+0x1bc>)
 8003614:	689b      	ldr	r3, [r3, #8]
 8003616:	f423 4260 	bic.w	r2, r3, #57344	@ 0xe000
 800361a:	687b      	ldr	r3, [r7, #4]
 800361c:	691b      	ldr	r3, [r3, #16]
 800361e:	00db      	lsls	r3, r3, #3
 8003620:	490e      	ldr	r1, [pc, #56]	@ (800365c <HAL_RCC_ClockConfig+0x1bc>)
 8003622:	4313      	orrs	r3, r2
 8003624:	608b      	str	r3, [r1, #8]
 8003626:	f000 f821 	bl	800366c <HAL_RCC_GetSysClockFreq>
 800362a:	4602      	mov	r2, r0
 800362c:	4b0b      	ldr	r3, [pc, #44]	@ (800365c <HAL_RCC_ClockConfig+0x1bc>)
 800362e:	689b      	ldr	r3, [r3, #8]
 8003630:	091b      	lsrs	r3, r3, #4
 8003632:	f003 030f 	and.w	r3, r3, #15
 8003636:	490a      	ldr	r1, [pc, #40]	@ (8003660 <HAL_RCC_ClockConfig+0x1c0>)
 8003638:	5ccb      	ldrb	r3, [r1, r3]
 800363a:	fa22 f303 	lsr.w	r3, r2, r3
 800363e:	4a09      	ldr	r2, [pc, #36]	@ (8003664 <HAL_RCC_ClockConfig+0x1c4>)
 8003640:	6013      	str	r3, [r2, #0]
 8003642:	4b09      	ldr	r3, [pc, #36]	@ (8003668 <HAL_RCC_ClockConfig+0x1c8>)
 8003644:	681b      	ldr	r3, [r3, #0]
 8003646:	4618      	mov	r0, r3
 8003648:	f7fe fd26 	bl	8002098 <HAL_InitTick>
 800364c:	2300      	movs	r3, #0
 800364e:	4618      	mov	r0, r3
 8003650:	3710      	adds	r7, #16
 8003652:	46bd      	mov	sp, r7
 8003654:	bd80      	pop	{r7, pc}
 8003656:	bf00      	nop
 8003658:	40023c00 	.word	0x40023c00
 800365c:	40023800 	.word	0x40023800
 8003660:	08005f04 	.word	0x08005f04
 8003664:	20000000 	.word	0x20000000
 8003668:	2000001c 	.word	0x2000001c

0800366c <HAL_RCC_GetSysClockFreq>:
 800366c:	e92d 4fb0 	stmdb	sp!, {r4, r5, r7, r8, r9, sl, fp, lr}
 8003670:	b090      	sub	sp, #64	@ 0x40
 8003672:	af00      	add	r7, sp, #0
 8003674:	2300      	movs	r3, #0
 8003676:	637b      	str	r3, [r7, #52]	@ 0x34
 8003678:	2300      	movs	r3, #0
 800367a:	63fb      	str	r3, [r7, #60]	@ 0x3c
 800367c:	2300      	movs	r3, #0
 800367e:	633b      	str	r3, [r7, #48]	@ 0x30
 8003680:	2300      	movs	r3, #0
 8003682:	63bb      	str	r3, [r7, #56]	@ 0x38
 8003684:	4b59      	ldr	r3, [pc, #356]	@ (80037ec <HAL_RCC_GetSysClockFreq+0x180>)
 8003686:	689b      	ldr	r3, [r3, #8]
 8003688:	f003 030c 	and.w	r3, r3, #12
 800368c:	2b08      	cmp	r3, #8
 800368e:	d00d      	beq.n	80036ac <HAL_RCC_GetSysClockFreq+0x40>
 8003690:	2b08      	cmp	r3, #8
 8003692:	f200 80a1 	bhi.w	80037d8 <HAL_RCC_GetSysClockFreq+0x16c>
 8003696:	2b00      	cmp	r3, #0
 8003698:	d002      	beq.n	80036a0 <HAL_RCC_GetSysClockFreq+0x34>
 800369a:	2b04      	cmp	r3, #4
 800369c:	d003      	beq.n	80036a6 <HAL_RCC_GetSysClockFreq+0x3a>
 800369e:	e09b      	b.n	80037d8 <HAL_RCC_GetSysClockFreq+0x16c>
 80036a0:	4b53      	ldr	r3, [pc, #332]	@ (80037f0 <HAL_RCC_GetSysClockFreq+0x184>)
 80036a2:	63bb      	str	r3, [r7, #56]	@ 0x38
 80036a4:	e09b      	b.n	80037de <HAL_RCC_GetSysClockFreq+0x172>
 80036a6:	4b53      	ldr	r3, [pc, #332]	@ (80037f4 <HAL_RCC_GetSysClockFreq+0x188>)
 80036a8:	63bb      	str	r3, [r7, #56]	@ 0x38
 80036aa:	e098      	b.n	80037de <HAL_RCC_GetSysClockFreq+0x172>
 80036ac:	4b4f      	ldr	r3, [pc, #316]	@ (80037ec <HAL_RCC_GetSysClockFreq+0x180>)
 80036ae:	685b      	ldr	r3, [r3, #4]
 80036b0:	f003 033f 	and.w	r3, r3, #63	@ 0x3f
 80036b4:	637b      	str	r3, [r7, #52]	@ 0x34
 80036b6:	4b4d      	ldr	r3, [pc, #308]	@ (80037ec <HAL_RCC_GetSysClockFreq+0x180>)
 80036b8:	685b      	ldr	r3, [r3, #4]
 80036ba:	f403 0380 	and.w	r3, r3, #4194304	@ 0x400000
 80036be:	2b00      	cmp	r3, #0
 80036c0:	d028      	beq.n	8003714 <HAL_RCC_GetSysClockFreq+0xa8>
 80036c2:	4b4a      	ldr	r3, [pc, #296]	@ (80037ec <HAL_RCC_GetSysClockFreq+0x180>)
 80036c4:	685b      	ldr	r3, [r3, #4]
 80036c6:	099b      	lsrs	r3, r3, #6
 80036c8:	2200      	movs	r2, #0
 80036ca:	623b      	str	r3, [r7, #32]
 80036cc:	627a      	str	r2, [r7, #36]	@ 0x24
 80036ce:	6a3b      	ldr	r3, [r7, #32]
 80036d0:	f3c3 0008 	ubfx	r0, r3, #0, #9
 80036d4:	2100      	movs	r1, #0
 80036d6:	4b47      	ldr	r3, [pc, #284]	@ (80037f4 <HAL_RCC_GetSysClockFreq+0x188>)
 80036d8:	fb03 f201 	mul.w	r2, r3, r1
 80036dc:	2300      	movs	r3, #0
 80036de:	fb00 f303 	mul.w	r3, r0, r3
 80036e2:	4413      	add	r3, r2
 80036e4:	4a43      	ldr	r2, [pc, #268]	@ (80037f4 <HAL_RCC_GetSysClockFreq+0x188>)
 80036e6:	fba0 1202 	umull	r1, r2, r0, r2
 80036ea:	62fa      	str	r2, [r7, #44]	@ 0x2c
 80036ec:	460a      	mov	r2, r1
 80036ee:	62ba      	str	r2, [r7, #40]	@ 0x28
 80036f0:	6afa      	ldr	r2, [r7, #44]	@ 0x2c
 80036f2:	4413      	add	r3, r2
 80036f4:	62fb      	str	r3, [r7, #44]	@ 0x2c
 80036f6:	6b7b      	ldr	r3, [r7, #52]	@ 0x34
 80036f8:	2200      	movs	r2, #0
 80036fa:	61bb      	str	r3, [r7, #24]
 80036fc:	61fa      	str	r2, [r7, #28]
 80036fe:	e9d7 2306 	ldrd	r2, r3, [r7, #24]
 8003702:	e9d7 010a 	ldrd	r0, r1, [r7, #40]	@ 0x28
 8003706:	f7fd f9b1 	bl	8000a6c <__aeabi_uldivmod>
 800370a:	4602      	mov	r2, r0
 800370c:	460b      	mov	r3, r1
 800370e:	4613      	mov	r3, r2
 8003710:	63fb      	str	r3, [r7, #60]	@ 0x3c
 8003712:	e053      	b.n	80037bc <HAL_RCC_GetSysClockFreq+0x150>
 8003714:	4b35      	ldr	r3, [pc, #212]	@ (80037ec <HAL_RCC_GetSysClockFreq+0x180>)
 8003716:	685b      	ldr	r3, [r3, #4]
 8003718:	099b      	lsrs	r3, r3, #6
 800371a:	2200      	movs	r2, #0
 800371c:	613b      	str	r3, [r7, #16]
 800371e:	617a      	str	r2, [r7, #20]
 8003720:	693b      	ldr	r3, [r7, #16]
 8003722:	f3c3 0a08 	ubfx	sl, r3, #0, #9
 8003726:	f04f 0b00 	mov.w	fp, #0
 800372a:	4652      	mov	r2, sl
 800372c:	465b      	mov	r3, fp
 800372e:	f04f 0000 	mov.w	r0, #0
 8003732:	f04f 0100 	mov.w	r1, #0
 8003736:	0159      	lsls	r1, r3, #5
 8003738:	ea41 61d2 	orr.w	r1, r1, r2, lsr #27
 800373c:	0150      	lsls	r0, r2, #5
 800373e:	4602      	mov	r2, r0
 8003740:	460b      	mov	r3, r1
 8003742:	ebb2 080a 	subs.w	r8, r2, sl
 8003746:	eb63 090b 	sbc.w	r9, r3, fp
 800374a:	f04f 0200 	mov.w	r2, #0
 800374e:	f04f 0300 	mov.w	r3, #0
 8003752:	ea4f 1389 	mov.w	r3, r9, lsl #6
 8003756:	ea43 6398 	orr.w	r3, r3, r8, lsr #26
 800375a:	ea4f 1288 	mov.w	r2, r8, lsl #6
 800375e:	ebb2 0408 	subs.w	r4, r2, r8
 8003762:	eb63 0509 	sbc.w	r5, r3, r9
 8003766:	f04f 0200 	mov.w	r2, #0
 800376a:	f04f 0300 	mov.w	r3, #0
 800376e:	00eb      	lsls	r3, r5, #3
 8003770:	ea43 7354 	orr.w	r3, r3, r4, lsr #29
 8003774:	00e2      	lsls	r2, r4, #3
 8003776:	4614      	mov	r4, r2
 8003778:	461d      	mov	r5, r3
 800377a:	eb14 030a 	adds.w	r3, r4, sl
 800377e:	603b      	str	r3, [r7, #0]
 8003780:	eb45 030b 	adc.w	r3, r5, fp
 8003784:	607b      	str	r3, [r7, #4]
 8003786:	f04f 0200 	mov.w	r2, #0
 800378a:	f04f 0300 	mov.w	r3, #0
 800378e:	e9d7 4500 	ldrd	r4, r5, [r7]
 8003792:	4629      	mov	r1, r5
 8003794:	028b      	lsls	r3, r1, #10
 8003796:	4621      	mov	r1, r4
 8003798:	ea43 5391 	orr.w	r3, r3, r1, lsr #22
 800379c:	4621      	mov	r1, r4
 800379e:	028a      	lsls	r2, r1, #10
 80037a0:	4610      	mov	r0, r2
 80037a2:	4619      	mov	r1, r3
 80037a4:	6b7b      	ldr	r3, [r7, #52]	@ 0x34
 80037a6:	2200      	movs	r2, #0
 80037a8:	60bb      	str	r3, [r7, #8]
 80037aa:	60fa      	str	r2, [r7, #12]
 80037ac:	e9d7 2302 	ldrd	r2, r3, [r7, #8]
 80037b0:	f7fd f95c 	bl	8000a6c <__aeabi_uldivmod>
 80037b4:	4602      	mov	r2, r0
 80037b6:	460b      	mov	r3, r1
 80037b8:	4613      	mov	r3, r2
 80037ba:	63fb      	str	r3, [r7, #60]	@ 0x3c
 80037bc:	4b0b      	ldr	r3, [pc, #44]	@ (80037ec <HAL_RCC_GetSysClockFreq+0x180>)
 80037be:	685b      	ldr	r3, [r3, #4]
 80037c0:	0c1b      	lsrs	r3, r3, #16
 80037c2:	f003 0303 	and.w	r3, r3, #3
 80037c6:	3301      	adds	r3, #1
 80037c8:	005b      	lsls	r3, r3, #1
 80037ca:	633b      	str	r3, [r7, #48]	@ 0x30
 80037cc:	6bfa      	ldr	r2, [r7, #60]	@ 0x3c
 80037ce:	6b3b      	ldr	r3, [r7, #48]	@ 0x30
 80037d0:	fbb2 f3f3 	udiv	r3, r2, r3
 80037d4:	63bb      	str	r3, [r7, #56]	@ 0x38
 80037d6:	e002      	b.n	80037de <HAL_RCC_GetSysClockFreq+0x172>
 80037d8:	4b05      	ldr	r3, [pc, #20]	@ (80037f0 <HAL_RCC_GetSysClockFreq+0x184>)
 80037da:	63bb      	str	r3, [r7, #56]	@ 0x38
 80037dc:	bf00      	nop
 80037de:	6bbb      	ldr	r3, [r7, #56]	@ 0x38
 80037e0:	4618      	mov	r0, r3
 80037e2:	3740      	adds	r7, #64	@ 0x40
 80037e4:	46bd      	mov	sp, r7
 80037e6:	e8bd 8fb0 	ldmia.w	sp!, {r4, r5, r7, r8, r9, sl, fp, pc}
 80037ea:	bf00      	nop
 80037ec:	40023800 	.word	0x40023800
 80037f0:	00f42400 	.word	0x00f42400
 80037f4:	017d7840 	.word	0x017d7840

080037f8 <HAL_RCC_GetHCLKFreq>:
 80037f8:	b480      	push	{r7}
 80037fa:	af00      	add	r7, sp, #0
 80037fc:	4b03      	ldr	r3, [pc, #12]	@ (800380c <HAL_RCC_GetHCLKFreq+0x14>)
 80037fe:	681b      	ldr	r3, [r3, #0]
 8003800:	4618      	mov	r0, r3
 8003802:	46bd      	mov	sp, r7
 8003804:	f85d 7b04 	ldr.w	r7, [sp], #4
 8003808:	4770      	bx	lr
 800380a:	bf00      	nop
 800380c:	20000000 	.word	0x20000000

08003810 <HAL_RCC_GetPCLK1Freq>:
 8003810:	b580      	push	{r7, lr}
 8003812:	af00      	add	r7, sp, #0
 8003814:	f7ff fff0 	bl	80037f8 <HAL_RCC_GetHCLKFreq>
 8003818:	4602      	mov	r2, r0
 800381a:	4b05      	ldr	r3, [pc, #20]	@ (8003830 <HAL_RCC_GetPCLK1Freq+0x20>)
 800381c:	689b      	ldr	r3, [r3, #8]
 800381e:	0a9b      	lsrs	r3, r3, #10
 8003820:	f003 0307 	and.w	r3, r3, #7
 8003824:	4903      	ldr	r1, [pc, #12]	@ (8003834 <HAL_RCC_GetPCLK1Freq+0x24>)
 8003826:	5ccb      	ldrb	r3, [r1, r3]
 8003828:	fa22 f303 	lsr.w	r3, r2, r3
 800382c:	4618      	mov	r0, r3
 800382e:	bd80      	pop	{r7, pc}
 8003830:	40023800 	.word	0x40023800
 8003834:	08005f14 	.word	0x08005f14

08003838 <HAL_RCC_GetPCLK2Freq>:
 8003838:	b580      	push	{r7, lr}
 800383a:	af00      	add	r7, sp, #0
 800383c:	f7ff ffdc 	bl	80037f8 <HAL_RCC_GetHCLKFreq>
 8003840:	4602      	mov	r2, r0
 8003842:	4b05      	ldr	r3, [pc, #20]	@ (8003858 <HAL_RCC_GetPCLK2Freq+0x20>)
 8003844:	689b      	ldr	r3, [r3, #8]
 8003846:	0b5b      	lsrs	r3, r3, #13
 8003848:	f003 0307 	and.w	r3, r3, #7
 800384c:	4903      	ldr	r1, [pc, #12]	@ (800385c <HAL_RCC_GetPCLK2Freq+0x24>)
 800384e:	5ccb      	ldrb	r3, [r1, r3]
 8003850:	fa22 f303 	lsr.w	r3, r2, r3
 8003854:	4618      	mov	r0, r3
 8003856:	bd80      	pop	{r7, pc}
 8003858:	40023800 	.word	0x40023800
 800385c:	08005f14 	.word	0x08005f14

08003860 <HAL_TIM_Base_Init>:
 8003860:	b580      	push	{r7, lr}
 8003862:	b082      	sub	sp, #8
 8003864:	af00      	add	r7, sp, #0
 8003866:	6078      	str	r0, [r7, #4]
 8003868:	687b      	ldr	r3, [r7, #4]
 800386a:	2b00      	cmp	r3, #0
 800386c:	d101      	bne.n	8003872 <HAL_TIM_Base_Init+0x12>
 800386e:	2301      	movs	r3, #1
 8003870:	e041      	b.n	80038f6 <HAL_TIM_Base_Init+0x96>
 8003872:	687b      	ldr	r3, [r7, #4]
 8003874:	f893 303d 	ldrb.w	r3, [r3, #61]	@ 0x3d
 8003878:	b2db      	uxtb	r3, r3
 800387a:	2b00      	cmp	r3, #0
 800387c:	d106      	bne.n	800388c <HAL_TIM_Base_Init+0x2c>
 800387e:	687b      	ldr	r3, [r7, #4]
 8003880:	2200      	movs	r2, #0
 8003882:	f883 203c 	strb.w	r2, [r3, #60]	@ 0x3c
 8003886:	6878      	ldr	r0, [r7, #4]
 8003888:	f7fd fea4 	bl	80015d4 <HAL_TIM_Base_MspInit>
 800388c:	687b      	ldr	r3, [r7, #4]
 800388e:	2202      	movs	r2, #2
 8003890:	f883 203d 	strb.w	r2, [r3, #61]	@ 0x3d
 8003894:	687b      	ldr	r3, [r7, #4]
 8003896:	681a      	ldr	r2, [r3, #0]
 8003898:	687b      	ldr	r3, [r7, #4]
 800389a:	3304      	adds	r3, #4
 800389c:	4619      	mov	r1, r3
 800389e:	4610      	mov	r0, r2
 80038a0:	f000 fa10 	bl	8003cc4 <TIM_Base_SetConfig>
 80038a4:	687b      	ldr	r3, [r7, #4]
 80038a6:	2201      	movs	r2, #1
 80038a8:	f883 2046 	strb.w	r2, [r3, #70]	@ 0x46
 80038ac:	687b      	ldr	r3, [r7, #4]
 80038ae:	2201      	movs	r2, #1
 80038b0:	f883 203e 	strb.w	r2, [r3, #62]	@ 0x3e
 80038b4:	687b      	ldr	r3, [r7, #4]
 80038b6:	2201      	movs	r2, #1
 80038b8:	f883 203f 	strb.w	r2, [r3, #63]	@ 0x3f
 80038bc:	687b      	ldr	r3, [r7, #4]
 80038be:	2201      	movs	r2, #1
 80038c0:	f883 2040 	strb.w	r2, [r3, #64]	@ 0x40
 80038c4:	687b      	ldr	r3, [r7, #4]
 80038c6:	2201      	movs	r2, #1
 80038c8:	f883 2041 	strb.w	r2, [r3, #65]	@ 0x41
 80038cc:	687b      	ldr	r3, [r7, #4]
 80038ce:	2201      	movs	r2, #1
 80038d0:	f883 2042 	strb.w	r2, [r3, #66]	@ 0x42
 80038d4:	687b      	ldr	r3, [r7, #4]
 80038d6:	2201      	movs	r2, #1
 80038d8:	f883 2043 	strb.w	r2, [r3, #67]	@ 0x43
 80038dc:	687b      	ldr	r3, [r7, #4]
 80038de:	2201      	movs	r2, #1
 80038e0:	f883 2044 	strb.w	r2, [r3, #68]	@ 0x44
 80038e4:	687b      	ldr	r3, [r7, #4]
 80038e6:	2201      	movs	r2, #1
 80038e8:	f883 2045 	strb.w	r2, [r3, #69]	@ 0x45
 80038ec:	687b      	ldr	r3, [r7, #4]
 80038ee:	2201      	movs	r2, #1
 80038f0:	f883 203d 	strb.w	r2, [r3, #61]	@ 0x3d
 80038f4:	2300      	movs	r3, #0
 80038f6:	4618      	mov	r0, r3
 80038f8:	3708      	adds	r7, #8
 80038fa:	46bd      	mov	sp, r7
 80038fc:	bd80      	pop	{r7, pc}

080038fe <HAL_TIM_PWM_Init>:
 80038fe:	b580      	push	{r7, lr}
 8003900:	b082      	sub	sp, #8
 8003902:	af00      	add	r7, sp, #0
 8003904:	6078      	str	r0, [r7, #4]
 8003906:	687b      	ldr	r3, [r7, #4]
 8003908:	2b00      	cmp	r3, #0
 800390a:	d101      	bne.n	8003910 <HAL_TIM_PWM_Init+0x12>
 800390c:	2301      	movs	r3, #1
 800390e:	e041      	b.n	8003994 <HAL_TIM_PWM_Init+0x96>
 8003910:	687b      	ldr	r3, [r7, #4]
 8003912:	f893 303d 	ldrb.w	r3, [r3, #61]	@ 0x3d
 8003916:	b2db      	uxtb	r3, r3
 8003918:	2b00      	cmp	r3, #0
 800391a:	d106      	bne.n	800392a <HAL_TIM_PWM_Init+0x2c>
 800391c:	687b      	ldr	r3, [r7, #4]
 800391e:	2200      	movs	r2, #0
 8003920:	f883 203c 	strb.w	r2, [r3, #60]	@ 0x3c
 8003924:	6878      	ldr	r0, [r7, #4]
 8003926:	f000 f839 	bl	800399c <HAL_TIM_PWM_MspInit>
 800392a:	687b      	ldr	r3, [r7, #4]
 800392c:	2202      	movs	r2, #2
 800392e:	f883 203d 	strb.w	r2, [r3, #61]	@ 0x3d
 8003932:	687b      	ldr	r3, [r7, #4]
 8003934:	681a      	ldr	r2, [r3, #0]
 8003936:	687b      	ldr	r3, [r7, #4]
 8003938:	3304      	adds	r3, #4
 800393a:	4619      	mov	r1, r3
 800393c:	4610      	mov	r0, r2
 800393e:	f000 f9c1 	bl	8003cc4 <TIM_Base_SetConfig>
 8003942:	687b      	ldr	r3, [r7, #4]
 8003944:	2201      	movs	r2, #1
 8003946:	f883 2046 	strb.w	r2, [r3, #70]	@ 0x46
 800394a:	687b      	ldr	r3, [r7, #4]
 800394c:	2201      	movs	r2, #1
 800394e:	f883 203e 	strb.w	r2, [r3, #62]	@ 0x3e
 8003952:	687b      	ldr	r3, [r7, #4]
 8003954:	2201      	movs	r2, #1
 8003956:	f883 203f 	strb.w	r2, [r3, #63]	@ 0x3f
 800395a:	687b      	ldr	r3, [r7, #4]
 800395c:	2201      	movs	r2, #1
 800395e:	f883 2040 	strb.w	r2, [r3, #64]	@ 0x40
 8003962:	687b      	ldr	r3, [r7, #4]
 8003964:	2201      	movs	r2, #1
 8003966:	f883 2041 	strb.w	r2, [r3, #65]	@ 0x41
 800396a:	687b      	ldr	r3, [r7, #4]
 800396c:	2201      	movs	r2, #1
 800396e:	f883 2042 	strb.w	r2, [r3, #66]	@ 0x42
 8003972:	687b      	ldr	r3, [r7, #4]
 8003974:	2201      	movs	r2, #1
 8003976:	f883 2043 	strb.w	r2, [r3, #67]	@ 0x43
 800397a:	687b      	ldr	r3, [r7, #4]
 800397c:	2201      	movs	r2, #1
 800397e:	f883 2044 	strb.w	r2, [r3, #68]	@ 0x44
 8003982:	687b      	ldr	r3, [r7, #4]
 8003984:	2201      	movs	r2, #1
 8003986:	f883 2045 	strb.w	r2, [r3, #69]	@ 0x45
 800398a:	687b      	ldr	r3, [r7, #4]
 800398c:	2201      	movs	r2, #1
 800398e:	f883 203d 	strb.w	r2, [r3, #61]	@ 0x3d
 8003992:	2300      	movs	r3, #0
 8003994:	4618      	mov	r0, r3
 8003996:	3708      	adds	r7, #8
 8003998:	46bd      	mov	sp, r7
 800399a:	bd80      	pop	{r7, pc}

0800399c <HAL_TIM_PWM_MspInit>:
 800399c:	b480      	push	{r7}
 800399e:	b083      	sub	sp, #12
 80039a0:	af00      	add	r7, sp, #0
 80039a2:	6078      	str	r0, [r7, #4]
 80039a4:	bf00      	nop
 80039a6:	370c      	adds	r7, #12
 80039a8:	46bd      	mov	sp, r7
 80039aa:	f85d 7b04 	ldr.w	r7, [sp], #4
 80039ae:	4770      	bx	lr

080039b0 <HAL_TIM_PWM_ConfigChannel>:
 80039b0:	b580      	push	{r7, lr}
 80039b2:	b086      	sub	sp, #24
 80039b4:	af00      	add	r7, sp, #0
 80039b6:	60f8      	str	r0, [r7, #12]
 80039b8:	60b9      	str	r1, [r7, #8]
 80039ba:	607a      	str	r2, [r7, #4]
 80039bc:	2300      	movs	r3, #0
 80039be:	75fb      	strb	r3, [r7, #23]
 80039c0:	68fb      	ldr	r3, [r7, #12]
 80039c2:	f893 303c 	ldrb.w	r3, [r3, #60]	@ 0x3c
 80039c6:	2b01      	cmp	r3, #1
 80039c8:	d101      	bne.n	80039ce <HAL_TIM_PWM_ConfigChannel+0x1e>
 80039ca:	2302      	movs	r3, #2
 80039cc:	e0ae      	b.n	8003b2c <HAL_TIM_PWM_ConfigChannel+0x17c>
 80039ce:	68fb      	ldr	r3, [r7, #12]
 80039d0:	2201      	movs	r2, #1
 80039d2:	f883 203c 	strb.w	r2, [r3, #60]	@ 0x3c
 80039d6:	687b      	ldr	r3, [r7, #4]
 80039d8:	2b0c      	cmp	r3, #12
 80039da:	f200 809f 	bhi.w	8003b1c <HAL_TIM_PWM_ConfigChannel+0x16c>
 80039de:	a201      	add	r2, pc, #4	@ (adr r2, 80039e4 <HAL_TIM_PWM_ConfigChannel+0x34>)
 80039e0:	f852 f023 	ldr.w	pc, [r2, r3, lsl #2]
 80039e4:	08003a19 	.word	0x08003a19
 80039e8:	08003b1d 	.word	0x08003b1d
 80039ec:	08003b1d 	.word	0x08003b1d
 80039f0:	08003b1d 	.word	0x08003b1d
 80039f4:	08003a59 	.word	0x08003a59
 80039f8:	08003b1d 	.word	0x08003b1d
 80039fc:	08003b1d 	.word	0x08003b1d
 8003a00:	08003b1d 	.word	0x08003b1d
 8003a04:	08003a9b 	.word	0x08003a9b
 8003a08:	08003b1d 	.word	0x08003b1d
 8003a0c:	08003b1d 	.word	0x08003b1d
 8003a10:	08003b1d 	.word	0x08003b1d
 8003a14:	08003adb 	.word	0x08003adb
 8003a18:	68fb      	ldr	r3, [r7, #12]
 8003a1a:	681b      	ldr	r3, [r3, #0]
 8003a1c:	68b9      	ldr	r1, [r7, #8]
 8003a1e:	4618      	mov	r0, r3
 8003a20:	f000 f9fc 	bl	8003e1c <TIM_OC1_SetConfig>
 8003a24:	68fb      	ldr	r3, [r7, #12]
 8003a26:	681b      	ldr	r3, [r3, #0]
 8003a28:	699a      	ldr	r2, [r3, #24]
 8003a2a:	68fb      	ldr	r3, [r7, #12]
 8003a2c:	681b      	ldr	r3, [r3, #0]
 8003a2e:	f042 0208 	orr.w	r2, r2, #8
 8003a32:	619a      	str	r2, [r3, #24]
 8003a34:	68fb      	ldr	r3, [r7, #12]
 8003a36:	681b      	ldr	r3, [r3, #0]
 8003a38:	699a      	ldr	r2, [r3, #24]
 8003a3a:	68fb      	ldr	r3, [r7, #12]
 8003a3c:	681b      	ldr	r3, [r3, #0]
 8003a3e:	f022 0204 	bic.w	r2, r2, #4
 8003a42:	619a      	str	r2, [r3, #24]
 8003a44:	68fb      	ldr	r3, [r7, #12]
 8003a46:	681b      	ldr	r3, [r3, #0]
 8003a48:	6999      	ldr	r1, [r3, #24]
 8003a4a:	68bb      	ldr	r3, [r7, #8]
 8003a4c:	691a      	ldr	r2, [r3, #16]
 8003a4e:	68fb      	ldr	r3, [r7, #12]
 8003a50:	681b      	ldr	r3, [r3, #0]
 8003a52:	430a      	orrs	r2, r1
 8003a54:	619a      	str	r2, [r3, #24]
 8003a56:	e064      	b.n	8003b22 <HAL_TIM_PWM_ConfigChannel+0x172>
 8003a58:	68fb      	ldr	r3, [r7, #12]
 8003a5a:	681b      	ldr	r3, [r3, #0]
 8003a5c:	68b9      	ldr	r1, [r7, #8]
 8003a5e:	4618      	mov	r0, r3
 8003a60:	f000 fa4c 	bl	8003efc <TIM_OC2_SetConfig>
 8003a64:	68fb      	ldr	r3, [r7, #12]
 8003a66:	681b      	ldr	r3, [r3, #0]
 8003a68:	699a      	ldr	r2, [r3, #24]
 8003a6a:	68fb      	ldr	r3, [r7, #12]
 8003a6c:	681b      	ldr	r3, [r3, #0]
 8003a6e:	f442 6200 	orr.w	r2, r2, #2048	@ 0x800
 8003a72:	619a      	str	r2, [r3, #24]
 8003a74:	68fb      	ldr	r3, [r7, #12]
 8003a76:	681b      	ldr	r3, [r3, #0]
 8003a78:	699a      	ldr	r2, [r3, #24]
 8003a7a:	68fb      	ldr	r3, [r7, #12]
 8003a7c:	681b      	ldr	r3, [r3, #0]
 8003a7e:	f422 6280 	bic.w	r2, r2, #1024	@ 0x400
 8003a82:	619a      	str	r2, [r3, #24]
 8003a84:	68fb      	ldr	r3, [r7, #12]
 8003a86:	681b      	ldr	r3, [r3, #0]
 8003a88:	6999      	ldr	r1, [r3, #24]
 8003a8a:	68bb      	ldr	r3, [r7, #8]
 8003a8c:	691b      	ldr	r3, [r3, #16]
 8003a8e:	021a      	lsls	r2, r3, #8
 8003a90:	68fb      	ldr	r3, [r7, #12]
 8003a92:	681b      	ldr	r3, [r3, #0]
 8003a94:	430a      	orrs	r2, r1
 8003a96:	619a      	str	r2, [r3, #24]
 8003a98:	e043      	b.n	8003b22 <HAL_TIM_PWM_ConfigChannel+0x172>
 8003a9a:	68fb      	ldr	r3, [r7, #12]
 8003a9c:	681b      	ldr	r3, [r3, #0]
 8003a9e:	68b9      	ldr	r1, [r7, #8]
 8003aa0:	4618      	mov	r0, r3
 8003aa2:	f000 faa1 	bl	8003fe8 <TIM_OC3_SetConfig>
 8003aa6:	68fb      	ldr	r3, [r7, #12]
 8003aa8:	681b      	ldr	r3, [r3, #0]
 8003aaa:	69da      	ldr	r2, [r3, #28]
 8003aac:	68fb      	ldr	r3, [r7, #12]
 8003aae:	681b      	ldr	r3, [r3, #0]
 8003ab0:	f042 0208 	orr.w	r2, r2, #8
 8003ab4:	61da      	str	r2, [r3, #28]
 8003ab6:	68fb      	ldr	r3, [r7, #12]
 8003ab8:	681b      	ldr	r3, [r3, #0]
 8003aba:	69da      	ldr	r2, [r3, #28]
 8003abc:	68fb      	ldr	r3, [r7, #12]
 8003abe:	681b      	ldr	r3, [r3, #0]
 8003ac0:	f022 0204 	bic.w	r2, r2, #4
 8003ac4:	61da      	str	r2, [r3, #28]
 8003ac6:	68fb      	ldr	r3, [r7, #12]
 8003ac8:	681b      	ldr	r3, [r3, #0]
 8003aca:	69d9      	ldr	r1, [r3, #28]
 8003acc:	68bb      	ldr	r3, [r7, #8]
 8003ace:	691a      	ldr	r2, [r3, #16]
 8003ad0:	68fb      	ldr	r3, [r7, #12]
 8003ad2:	681b      	ldr	r3, [r3, #0]
 8003ad4:	430a      	orrs	r2, r1
 8003ad6:	61da      	str	r2, [r3, #28]
 8003ad8:	e023      	b.n	8003b22 <HAL_TIM_PWM_ConfigChannel+0x172>
 8003ada:	68fb      	ldr	r3, [r7, #12]
 8003adc:	681b      	ldr	r3, [r3, #0]
 8003ade:	68b9      	ldr	r1, [r7, #8]
 8003ae0:	4618      	mov	r0, r3
 8003ae2:	f000 faf5 	bl	80040d0 <TIM_OC4_SetConfig>
 8003ae6:	68fb      	ldr	r3, [r7, #12]
 8003ae8:	681b      	ldr	r3, [r3, #0]
 8003aea:	69da      	ldr	r2, [r3, #28]
 8003aec:	68fb      	ldr	r3, [r7, #12]
 8003aee:	681b      	ldr	r3, [r3, #0]
 8003af0:	f442 6200 	orr.w	r2, r2, #2048	@ 0x800
 8003af4:	61da      	str	r2, [r3, #28]
 8003af6:	68fb      	ldr	r3, [r7, #12]
 8003af8:	681b      	ldr	r3, [r3, #0]
 8003afa:	69da      	ldr	r2, [r3, #28]
 8003afc:	68fb      	ldr	r3, [r7, #12]
 8003afe:	681b      	ldr	r3, [r3, #0]
 8003b00:	f422 6280 	bic.w	r2, r2, #1024	@ 0x400
 8003b04:	61da      	str	r2, [r3, #28]
 8003b06:	68fb      	ldr	r3, [r7, #12]
 8003b08:	681b      	ldr	r3, [r3, #0]
 8003b0a:	69d9      	ldr	r1, [r3, #28]
 8003b0c:	68bb      	ldr	r3, [r7, #8]
 8003b0e:	691b      	ldr	r3, [r3, #16]
 8003b10:	021a      	lsls	r2, r3, #8
 8003b12:	68fb      	ldr	r3, [r7, #12]
 8003b14:	681b      	ldr	r3, [r3, #0]
 8003b16:	430a      	orrs	r2, r1
 8003b18:	61da      	str	r2, [r3, #28]
 8003b1a:	e002      	b.n	8003b22 <HAL_TIM_PWM_ConfigChannel+0x172>
 8003b1c:	2301      	movs	r3, #1
 8003b1e:	75fb      	strb	r3, [r7, #23]
 8003b20:	bf00      	nop
 8003b22:	68fb      	ldr	r3, [r7, #12]
 8003b24:	2200      	movs	r2, #0
 8003b26:	f883 203c 	strb.w	r2, [r3, #60]	@ 0x3c
 8003b2a:	7dfb      	ldrb	r3, [r7, #23]
 8003b2c:	4618      	mov	r0, r3
 8003b2e:	3718      	adds	r7, #24
 8003b30:	46bd      	mov	sp, r7
 8003b32:	bd80      	pop	{r7, pc}

08003b34 <HAL_TIM_ConfigClockSource>:
 8003b34:	b580      	push	{r7, lr}
 8003b36:	b084      	sub	sp, #16
 8003b38:	af00      	add	r7, sp, #0
 8003b3a:	6078      	str	r0, [r7, #4]
 8003b3c:	6039      	str	r1, [r7, #0]
 8003b3e:	2300      	movs	r3, #0
 8003b40:	73fb      	strb	r3, [r7, #15]
 8003b42:	687b      	ldr	r3, [r7, #4]
 8003b44:	f893 303c 	ldrb.w	r3, [r3, #60]	@ 0x3c
 8003b48:	2b01      	cmp	r3, #1
 8003b4a:	d101      	bne.n	8003b50 <HAL_TIM_ConfigClockSource+0x1c>
 8003b4c:	2302      	movs	r3, #2
 8003b4e:	e0b4      	b.n	8003cba <HAL_TIM_ConfigClockSource+0x186>
 8003b50:	687b      	ldr	r3, [r7, #4]
 8003b52:	2201      	movs	r2, #1
 8003b54:	f883 203c 	strb.w	r2, [r3, #60]	@ 0x3c
 8003b58:	687b      	ldr	r3, [r7, #4]
 8003b5a:	2202      	movs	r2, #2
 8003b5c:	f883 203d 	strb.w	r2, [r3, #61]	@ 0x3d
 8003b60:	687b      	ldr	r3, [r7, #4]
 8003b62:	681b      	ldr	r3, [r3, #0]
 8003b64:	689b      	ldr	r3, [r3, #8]
 8003b66:	60bb      	str	r3, [r7, #8]
 8003b68:	68bb      	ldr	r3, [r7, #8]
 8003b6a:	f023 0377 	bic.w	r3, r3, #119	@ 0x77
 8003b6e:	60bb      	str	r3, [r7, #8]
 8003b70:	68bb      	ldr	r3, [r7, #8]
 8003b72:	f423 437f 	bic.w	r3, r3, #65280	@ 0xff00
 8003b76:	60bb      	str	r3, [r7, #8]
 8003b78:	687b      	ldr	r3, [r7, #4]
 8003b7a:	681b      	ldr	r3, [r3, #0]
 8003b7c:	68ba      	ldr	r2, [r7, #8]
 8003b7e:	609a      	str	r2, [r3, #8]
 8003b80:	683b      	ldr	r3, [r7, #0]
 8003b82:	681b      	ldr	r3, [r3, #0]
 8003b84:	f5b3 5f00 	cmp.w	r3, #8192	@ 0x2000
 8003b88:	d03e      	beq.n	8003c08 <HAL_TIM_ConfigClockSource+0xd4>
 8003b8a:	f5b3 5f00 	cmp.w	r3, #8192	@ 0x2000
 8003b8e:	f200 8087 	bhi.w	8003ca0 <HAL_TIM_ConfigClockSource+0x16c>
 8003b92:	f5b3 5f80 	cmp.w	r3, #4096	@ 0x1000
 8003b96:	f000 8086 	beq.w	8003ca6 <HAL_TIM_ConfigClockSource+0x172>
 8003b9a:	f5b3 5f80 	cmp.w	r3, #4096	@ 0x1000
 8003b9e:	d87f      	bhi.n	8003ca0 <HAL_TIM_ConfigClockSource+0x16c>
 8003ba0:	2b70      	cmp	r3, #112	@ 0x70
 8003ba2:	d01a      	beq.n	8003bda <HAL_TIM_ConfigClockSource+0xa6>
 8003ba4:	2b70      	cmp	r3, #112	@ 0x70
 8003ba6:	d87b      	bhi.n	8003ca0 <HAL_TIM_ConfigClockSource+0x16c>
 8003ba8:	2b60      	cmp	r3, #96	@ 0x60
 8003baa:	d050      	beq.n	8003c4e <HAL_TIM_ConfigClockSource+0x11a>
 8003bac:	2b60      	cmp	r3, #96	@ 0x60
 8003bae:	d877      	bhi.n	8003ca0 <HAL_TIM_ConfigClockSource+0x16c>
 8003bb0:	2b50      	cmp	r3, #80	@ 0x50
 8003bb2:	d03c      	beq.n	8003c2e <HAL_TIM_ConfigClockSource+0xfa>
 8003bb4:	2b50      	cmp	r3, #80	@ 0x50
 8003bb6:	d873      	bhi.n	8003ca0 <HAL_TIM_ConfigClockSource+0x16c>
 8003bb8:	2b40      	cmp	r3, #64	@ 0x40
 8003bba:	d058      	beq.n	8003c6e <HAL_TIM_ConfigClockSource+0x13a>
 8003bbc:	2b40      	cmp	r3, #64	@ 0x40
 8003bbe:	d86f      	bhi.n	8003ca0 <HAL_TIM_ConfigClockSource+0x16c>
 8003bc0:	2b30      	cmp	r3, #48	@ 0x30
 8003bc2:	d064      	beq.n	8003c8e <HAL_TIM_ConfigClockSource+0x15a>
 8003bc4:	2b30      	cmp	r3, #48	@ 0x30
 8003bc6:	d86b      	bhi.n	8003ca0 <HAL_TIM_ConfigClockSource+0x16c>
 8003bc8:	2b20      	cmp	r3, #32
 8003bca:	d060      	beq.n	8003c8e <HAL_TIM_ConfigClockSource+0x15a>
 8003bcc:	2b20      	cmp	r3, #32
 8003bce:	d867      	bhi.n	8003ca0 <HAL_TIM_ConfigClockSource+0x16c>
 8003bd0:	2b00      	cmp	r3, #0
 8003bd2:	d05c      	beq.n	8003c8e <HAL_TIM_ConfigClockSource+0x15a>
 8003bd4:	2b10      	cmp	r3, #16
 8003bd6:	d05a      	beq.n	8003c8e <HAL_TIM_ConfigClockSource+0x15a>
 8003bd8:	e062      	b.n	8003ca0 <HAL_TIM_ConfigClockSource+0x16c>
 8003bda:	687b      	ldr	r3, [r7, #4]
 8003bdc:	6818      	ldr	r0, [r3, #0]
 8003bde:	683b      	ldr	r3, [r7, #0]
 8003be0:	6899      	ldr	r1, [r3, #8]
 8003be2:	683b      	ldr	r3, [r7, #0]
 8003be4:	685a      	ldr	r2, [r3, #4]
 8003be6:	683b      	ldr	r3, [r7, #0]
 8003be8:	68db      	ldr	r3, [r3, #12]
 8003bea:	f000 fb41 	bl	8004270 <TIM_ETR_SetConfig>
 8003bee:	687b      	ldr	r3, [r7, #4]
 8003bf0:	681b      	ldr	r3, [r3, #0]
 8003bf2:	689b      	ldr	r3, [r3, #8]
 8003bf4:	60bb      	str	r3, [r7, #8]
 8003bf6:	68bb      	ldr	r3, [r7, #8]
 8003bf8:	f043 0377 	orr.w	r3, r3, #119	@ 0x77
 8003bfc:	60bb      	str	r3, [r7, #8]
 8003bfe:	687b      	ldr	r3, [r7, #4]
 8003c00:	681b      	ldr	r3, [r3, #0]
 8003c02:	68ba      	ldr	r2, [r7, #8]
 8003c04:	609a      	str	r2, [r3, #8]
 8003c06:	e04f      	b.n	8003ca8 <HAL_TIM_ConfigClockSource+0x174>
 8003c08:	687b      	ldr	r3, [r7, #4]
 8003c0a:	6818      	ldr	r0, [r3, #0]
 8003c0c:	683b      	ldr	r3, [r7, #0]
 8003c0e:	6899      	ldr	r1, [r3, #8]
 8003c10:	683b      	ldr	r3, [r7, #0]
 8003c12:	685a      	ldr	r2, [r3, #4]
 8003c14:	683b      	ldr	r3, [r7, #0]
 8003c16:	68db      	ldr	r3, [r3, #12]
 8003c18:	f000 fb2a 	bl	8004270 <TIM_ETR_SetConfig>
 8003c1c:	687b      	ldr	r3, [r7, #4]
 8003c1e:	681b      	ldr	r3, [r3, #0]
 8003c20:	689a      	ldr	r2, [r3, #8]
 8003c22:	687b      	ldr	r3, [r7, #4]
 8003c24:	681b      	ldr	r3, [r3, #0]
 8003c26:	f442 4280 	orr.w	r2, r2, #16384	@ 0x4000
 8003c2a:	609a      	str	r2, [r3, #8]
 8003c2c:	e03c      	b.n	8003ca8 <HAL_TIM_ConfigClockSource+0x174>
 8003c2e:	687b      	ldr	r3, [r7, #4]
 8003c30:	6818      	ldr	r0, [r3, #0]
 8003c32:	683b      	ldr	r3, [r7, #0]
 8003c34:	6859      	ldr	r1, [r3, #4]
 8003c36:	683b      	ldr	r3, [r7, #0]
 8003c38:	68db      	ldr	r3, [r3, #12]
 8003c3a:	461a      	mov	r2, r3
 8003c3c:	f000 fa9e 	bl	800417c <TIM_TI1_ConfigInputStage>
 8003c40:	687b      	ldr	r3, [r7, #4]
 8003c42:	681b      	ldr	r3, [r3, #0]
 8003c44:	2150      	movs	r1, #80	@ 0x50
 8003c46:	4618      	mov	r0, r3
 8003c48:	f000 faf7 	bl	800423a <TIM_ITRx_SetConfig>
 8003c4c:	e02c      	b.n	8003ca8 <HAL_TIM_ConfigClockSource+0x174>
 8003c4e:	687b      	ldr	r3, [r7, #4]
 8003c50:	6818      	ldr	r0, [r3, #0]
 8003c52:	683b      	ldr	r3, [r7, #0]
 8003c54:	6859      	ldr	r1, [r3, #4]
 8003c56:	683b      	ldr	r3, [r7, #0]
 8003c58:	68db      	ldr	r3, [r3, #12]
 8003c5a:	461a      	mov	r2, r3
 8003c5c:	f000 fabd 	bl	80041da <TIM_TI2_ConfigInputStage>
 8003c60:	687b      	ldr	r3, [r7, #4]
 8003c62:	681b      	ldr	r3, [r3, #0]
 8003c64:	2160      	movs	r1, #96	@ 0x60
 8003c66:	4618      	mov	r0, r3
 8003c68:	f000 fae7 	bl	800423a <TIM_ITRx_SetConfig>
 8003c6c:	e01c      	b.n	8003ca8 <HAL_TIM_ConfigClockSource+0x174>
 8003c6e:	687b      	ldr	r3, [r7, #4]
 8003c70:	6818      	ldr	r0, [r3, #0]
 8003c72:	683b      	ldr	r3, [r7, #0]
 8003c74:	6859      	ldr	r1, [r3, #4]
 8003c76:	683b      	ldr	r3, [r7, #0]
 8003c78:	68db      	ldr	r3, [r3, #12]
 8003c7a:	461a      	mov	r2, r3
 8003c7c:	f000 fa7e 	bl	800417c <TIM_TI1_ConfigInputStage>
 8003c80:	687b      	ldr	r3, [r7, #4]
 8003c82:	681b      	ldr	r3, [r3, #0]
 8003c84:	2140      	movs	r1, #64	@ 0x40
 8003c86:	4618      	mov	r0, r3
 8003c88:	f000 fad7 	bl	800423a <TIM_ITRx_SetConfig>
 8003c8c:	e00c      	b.n	8003ca8 <HAL_TIM_ConfigClockSource+0x174>
 8003c8e:	687b      	ldr	r3, [r7, #4]
 8003c90:	681a      	ldr	r2, [r3, #0]
 8003c92:	683b      	ldr	r3, [r7, #0]
 8003c94:	681b      	ldr	r3, [r3, #0]
 8003c96:	4619      	mov	r1, r3
 8003c98:	4610      	mov	r0, r2
 8003c9a:	f000 face 	bl	800423a <TIM_ITRx_SetConfig>
 8003c9e:	e003      	b.n	8003ca8 <HAL_TIM_ConfigClockSource+0x174>
 8003ca0:	2301      	movs	r3, #1
 8003ca2:	73fb      	strb	r3, [r7, #15]
 8003ca4:	e000      	b.n	8003ca8 <HAL_TIM_ConfigClockSource+0x174>
 8003ca6:	bf00      	nop
 8003ca8:	687b      	ldr	r3, [r7, #4]
 8003caa:	2201      	movs	r2, #1
 8003cac:	f883 203d 	strb.w	r2, [r3, #61]	@ 0x3d
 8003cb0:	687b      	ldr	r3, [r7, #4]
 8003cb2:	2200      	movs	r2, #0
 8003cb4:	f883 203c 	strb.w	r2, [r3, #60]	@ 0x3c
 8003cb8:	7bfb      	ldrb	r3, [r7, #15]
 8003cba:	4618      	mov	r0, r3
 8003cbc:	3710      	adds	r7, #16
 8003cbe:	46bd      	mov	sp, r7
 8003cc0:	bd80      	pop	{r7, pc}
	...

08003cc4 <TIM_Base_SetConfig>:
 8003cc4:	b480      	push	{r7}
 8003cc6:	b085      	sub	sp, #20
 8003cc8:	af00      	add	r7, sp, #0
 8003cca:	6078      	str	r0, [r7, #4]
 8003ccc:	6039      	str	r1, [r7, #0]
 8003cce:	687b      	ldr	r3, [r7, #4]
 8003cd0:	681b      	ldr	r3, [r3, #0]
 8003cd2:	60fb      	str	r3, [r7, #12]
 8003cd4:	687b      	ldr	r3, [r7, #4]
 8003cd6:	4a46      	ldr	r2, [pc, #280]	@ (8003df0 <TIM_Base_SetConfig+0x12c>)
 8003cd8:	4293      	cmp	r3, r2
 8003cda:	d013      	beq.n	8003d04 <TIM_Base_SetConfig+0x40>
 8003cdc:	687b      	ldr	r3, [r7, #4]
 8003cde:	f1b3 4f80 	cmp.w	r3, #1073741824	@ 0x40000000
 8003ce2:	d00f      	beq.n	8003d04 <TIM_Base_SetConfig+0x40>
 8003ce4:	687b      	ldr	r3, [r7, #4]
 8003ce6:	4a43      	ldr	r2, [pc, #268]	@ (8003df4 <TIM_Base_SetConfig+0x130>)
 8003ce8:	4293      	cmp	r3, r2
 8003cea:	d00b      	beq.n	8003d04 <TIM_Base_SetConfig+0x40>
 8003cec:	687b      	ldr	r3, [r7, #4]
 8003cee:	4a42      	ldr	r2, [pc, #264]	@ (8003df8 <TIM_Base_SetConfig+0x134>)
 8003cf0:	4293      	cmp	r3, r2
 8003cf2:	d007      	beq.n	8003d04 <TIM_Base_SetConfig+0x40>
 8003cf4:	687b      	ldr	r3, [r7, #4]
 8003cf6:	4a41      	ldr	r2, [pc, #260]	@ (8003dfc <TIM_Base_SetConfig+0x138>)
 8003cf8:	4293      	cmp	r3, r2
 8003cfa:	d003      	beq.n	8003d04 <TIM_Base_SetConfig+0x40>
 8003cfc:	687b      	ldr	r3, [r7, #4]
 8003cfe:	4a40      	ldr	r2, [pc, #256]	@ (8003e00 <TIM_Base_SetConfig+0x13c>)
 8003d00:	4293      	cmp	r3, r2
 8003d02:	d108      	bne.n	8003d16 <TIM_Base_SetConfig+0x52>
 8003d04:	68fb      	ldr	r3, [r7, #12]
 8003d06:	f023 0370 	bic.w	r3, r3, #112	@ 0x70
 8003d0a:	60fb      	str	r3, [r7, #12]
 8003d0c:	683b      	ldr	r3, [r7, #0]
 8003d0e:	685b      	ldr	r3, [r3, #4]
 8003d10:	68fa      	ldr	r2, [r7, #12]
 8003d12:	4313      	orrs	r3, r2
 8003d14:	60fb      	str	r3, [r7, #12]
 8003d16:	687b      	ldr	r3, [r7, #4]
 8003d18:	4a35      	ldr	r2, [pc, #212]	@ (8003df0 <TIM_Base_SetConfig+0x12c>)
 8003d1a:	4293      	cmp	r3, r2
 8003d1c:	d02b      	beq.n	8003d76 <TIM_Base_SetConfig+0xb2>
 8003d1e:	687b      	ldr	r3, [r7, #4]
 8003d20:	f1b3 4f80 	cmp.w	r3, #1073741824	@ 0x40000000
 8003d24:	d027      	beq.n	8003d76 <TIM_Base_SetConfig+0xb2>
 8003d26:	687b      	ldr	r3, [r7, #4]
 8003d28:	4a32      	ldr	r2, [pc, #200]	@ (8003df4 <TIM_Base_SetConfig+0x130>)
 8003d2a:	4293      	cmp	r3, r2
 8003d2c:	d023      	beq.n	8003d76 <TIM_Base_SetConfig+0xb2>
 8003d2e:	687b      	ldr	r3, [r7, #4]
 8003d30:	4a31      	ldr	r2, [pc, #196]	@ (8003df8 <TIM_Base_SetConfig+0x134>)
 8003d32:	4293      	cmp	r3, r2
 8003d34:	d01f      	beq.n	8003d76 <TIM_Base_SetConfig+0xb2>
 8003d36:	687b      	ldr	r3, [r7, #4]
 8003d38:	4a30      	ldr	r2, [pc, #192]	@ (8003dfc <TIM_Base_SetConfig+0x138>)
 8003d3a:	4293      	cmp	r3, r2
 8003d3c:	d01b      	beq.n	8003d76 <TIM_Base_SetConfig+0xb2>
 8003d3e:	687b      	ldr	r3, [r7, #4]
 8003d40:	4a2f      	ldr	r2, [pc, #188]	@ (8003e00 <TIM_Base_SetConfig+0x13c>)
 8003d42:	4293      	cmp	r3, r2
 8003d44:	d017      	beq.n	8003d76 <TIM_Base_SetConfig+0xb2>
 8003d46:	687b      	ldr	r3, [r7, #4]
 8003d48:	4a2e      	ldr	r2, [pc, #184]	@ (8003e04 <TIM_Base_SetConfig+0x140>)
 8003d4a:	4293      	cmp	r3, r2
 8003d4c:	d013      	beq.n	8003d76 <TIM_Base_SetConfig+0xb2>
 8003d4e:	687b      	ldr	r3, [r7, #4]
 8003d50:	4a2d      	ldr	r2, [pc, #180]	@ (8003e08 <TIM_Base_SetConfig+0x144>)
 8003d52:	4293      	cmp	r3, r2
 8003d54:	d00f      	beq.n	8003d76 <TIM_Base_SetConfig+0xb2>
 8003d56:	687b      	ldr	r3, [r7, #4]
 8003d58:	4a2c      	ldr	r2, [pc, #176]	@ (8003e0c <TIM_Base_SetConfig+0x148>)
 8003d5a:	4293      	cmp	r3, r2
 8003d5c:	d00b      	beq.n	8003d76 <TIM_Base_SetConfig+0xb2>
 8003d5e:	687b      	ldr	r3, [r7, #4]
 8003d60:	4a2b      	ldr	r2, [pc, #172]	@ (8003e10 <TIM_Base_SetConfig+0x14c>)
 8003d62:	4293      	cmp	r3, r2
 8003d64:	d007      	beq.n	8003d76 <TIM_Base_SetConfig+0xb2>
 8003d66:	687b      	ldr	r3, [r7, #4]
 8003d68:	4a2a      	ldr	r2, [pc, #168]	@ (8003e14 <TIM_Base_SetConfig+0x150>)
 8003d6a:	4293      	cmp	r3, r2
 8003d6c:	d003      	beq.n	8003d76 <TIM_Base_SetConfig+0xb2>
 8003d6e:	687b      	ldr	r3, [r7, #4]
 8003d70:	4a29      	ldr	r2, [pc, #164]	@ (8003e18 <TIM_Base_SetConfig+0x154>)
 8003d72:	4293      	cmp	r3, r2
 8003d74:	d108      	bne.n	8003d88 <TIM_Base_SetConfig+0xc4>
 8003d76:	68fb      	ldr	r3, [r7, #12]
 8003d78:	f423 7340 	bic.w	r3, r3, #768	@ 0x300
 8003d7c:	60fb      	str	r3, [r7, #12]
 8003d7e:	683b      	ldr	r3, [r7, #0]
 8003d80:	68db      	ldr	r3, [r3, #12]
 8003d82:	68fa      	ldr	r2, [r7, #12]
 8003d84:	4313      	orrs	r3, r2
 8003d86:	60fb      	str	r3, [r7, #12]
 8003d88:	68fb      	ldr	r3, [r7, #12]
 8003d8a:	f023 0280 	bic.w	r2, r3, #128	@ 0x80
 8003d8e:	683b      	ldr	r3, [r7, #0]
 8003d90:	695b      	ldr	r3, [r3, #20]
 8003d92:	4313      	orrs	r3, r2
 8003d94:	60fb      	str	r3, [r7, #12]
 8003d96:	687b      	ldr	r3, [r7, #4]
 8003d98:	68fa      	ldr	r2, [r7, #12]
 8003d9a:	601a      	str	r2, [r3, #0]
 8003d9c:	683b      	ldr	r3, [r7, #0]
 8003d9e:	689a      	ldr	r2, [r3, #8]
 8003da0:	687b      	ldr	r3, [r7, #4]
 8003da2:	62da      	str	r2, [r3, #44]	@ 0x2c
 8003da4:	683b      	ldr	r3, [r7, #0]
 8003da6:	681a      	ldr	r2, [r3, #0]
 8003da8:	687b      	ldr	r3, [r7, #4]
 8003daa:	629a      	str	r2, [r3, #40]	@ 0x28
 8003dac:	687b      	ldr	r3, [r7, #4]
 8003dae:	4a10      	ldr	r2, [pc, #64]	@ (8003df0 <TIM_Base_SetConfig+0x12c>)
 8003db0:	4293      	cmp	r3, r2
 8003db2:	d003      	beq.n	8003dbc <TIM_Base_SetConfig+0xf8>
 8003db4:	687b      	ldr	r3, [r7, #4]
 8003db6:	4a12      	ldr	r2, [pc, #72]	@ (8003e00 <TIM_Base_SetConfig+0x13c>)
 8003db8:	4293      	cmp	r3, r2
 8003dba:	d103      	bne.n	8003dc4 <TIM_Base_SetConfig+0x100>
 8003dbc:	683b      	ldr	r3, [r7, #0]
 8003dbe:	691a      	ldr	r2, [r3, #16]
 8003dc0:	687b      	ldr	r3, [r7, #4]
 8003dc2:	631a      	str	r2, [r3, #48]	@ 0x30
 8003dc4:	687b      	ldr	r3, [r7, #4]
 8003dc6:	2201      	movs	r2, #1
 8003dc8:	615a      	str	r2, [r3, #20]
 8003dca:	687b      	ldr	r3, [r7, #4]
 8003dcc:	691b      	ldr	r3, [r3, #16]
 8003dce:	f003 0301 	and.w	r3, r3, #1
 8003dd2:	2b01      	cmp	r3, #1
 8003dd4:	d105      	bne.n	8003de2 <TIM_Base_SetConfig+0x11e>
 8003dd6:	687b      	ldr	r3, [r7, #4]
 8003dd8:	691b      	ldr	r3, [r3, #16]
 8003dda:	f023 0201 	bic.w	r2, r3, #1
 8003dde:	687b      	ldr	r3, [r7, #4]
 8003de0:	611a      	str	r2, [r3, #16]
 8003de2:	bf00      	nop
 8003de4:	3714      	adds	r7, #20
 8003de6:	46bd      	mov	sp, r7
 8003de8:	f85d 7b04 	ldr.w	r7, [sp], #4
 8003dec:	4770      	bx	lr
 8003dee:	bf00      	nop
 8003df0:	40010000 	.word	0x40010000
 8003df4:	40000400 	.word	0x40000400
 8003df8:	40000800 	.word	0x40000800
 8003dfc:	40000c00 	.word	0x40000c00
 8003e00:	40010400 	.word	0x40010400
 8003e04:	40014000 	.word	0x40014000
 8003e08:	40014400 	.word	0x40014400
 8003e0c:	40014800 	.word	0x40014800
 8003e10:	40001800 	.word	0x40001800
 8003e14:	40001c00 	.word	0x40001c00
 8003e18:	40002000 	.word	0x40002000

08003e1c <TIM_OC1_SetConfig>:
 8003e1c:	b480      	push	{r7}
 8003e1e:	b087      	sub	sp, #28
 8003e20:	af00      	add	r7, sp, #0
 8003e22:	6078      	str	r0, [r7, #4]
 8003e24:	6039      	str	r1, [r7, #0]
 8003e26:	687b      	ldr	r3, [r7, #4]
 8003e28:	6a1b      	ldr	r3, [r3, #32]
 8003e2a:	617b      	str	r3, [r7, #20]
 8003e2c:	687b      	ldr	r3, [r7, #4]
 8003e2e:	6a1b      	ldr	r3, [r3, #32]
 8003e30:	f023 0201 	bic.w	r2, r3, #1
 8003e34:	687b      	ldr	r3, [r7, #4]
 8003e36:	621a      	str	r2, [r3, #32]
 8003e38:	687b      	ldr	r3, [r7, #4]
 8003e3a:	685b      	ldr	r3, [r3, #4]
 8003e3c:	613b      	str	r3, [r7, #16]
 8003e3e:	687b      	ldr	r3, [r7, #4]
 8003e40:	699b      	ldr	r3, [r3, #24]
 8003e42:	60fb      	str	r3, [r7, #12]
 8003e44:	68fb      	ldr	r3, [r7, #12]
 8003e46:	f023 0370 	bic.w	r3, r3, #112	@ 0x70
 8003e4a:	60fb      	str	r3, [r7, #12]
 8003e4c:	68fb      	ldr	r3, [r7, #12]
 8003e4e:	f023 0303 	bic.w	r3, r3, #3
 8003e52:	60fb      	str	r3, [r7, #12]
 8003e54:	683b      	ldr	r3, [r7, #0]
 8003e56:	681b      	ldr	r3, [r3, #0]
 8003e58:	68fa      	ldr	r2, [r7, #12]
 8003e5a:	4313      	orrs	r3, r2
 8003e5c:	60fb      	str	r3, [r7, #12]
 8003e5e:	697b      	ldr	r3, [r7, #20]
 8003e60:	f023 0302 	bic.w	r3, r3, #2
 8003e64:	617b      	str	r3, [r7, #20]
 8003e66:	683b      	ldr	r3, [r7, #0]
 8003e68:	689b      	ldr	r3, [r3, #8]
 8003e6a:	697a      	ldr	r2, [r7, #20]
 8003e6c:	4313      	orrs	r3, r2
 8003e6e:	617b      	str	r3, [r7, #20]
 8003e70:	687b      	ldr	r3, [r7, #4]
 8003e72:	4a20      	ldr	r2, [pc, #128]	@ (8003ef4 <TIM_OC1_SetConfig+0xd8>)
 8003e74:	4293      	cmp	r3, r2
 8003e76:	d003      	beq.n	8003e80 <TIM_OC1_SetConfig+0x64>
 8003e78:	687b      	ldr	r3, [r7, #4]
 8003e7a:	4a1f      	ldr	r2, [pc, #124]	@ (8003ef8 <TIM_OC1_SetConfig+0xdc>)
 8003e7c:	4293      	cmp	r3, r2
 8003e7e:	d10c      	bne.n	8003e9a <TIM_OC1_SetConfig+0x7e>
 8003e80:	697b      	ldr	r3, [r7, #20]
 8003e82:	f023 0308 	bic.w	r3, r3, #8
 8003e86:	617b      	str	r3, [r7, #20]
 8003e88:	683b      	ldr	r3, [r7, #0]
 8003e8a:	68db      	ldr	r3, [r3, #12]
 8003e8c:	697a      	ldr	r2, [r7, #20]
 8003e8e:	4313      	orrs	r3, r2
 8003e90:	617b      	str	r3, [r7, #20]
 8003e92:	697b      	ldr	r3, [r7, #20]
 8003e94:	f023 0304 	bic.w	r3, r3, #4
 8003e98:	617b      	str	r3, [r7, #20]
 8003e9a:	687b      	ldr	r3, [r7, #4]
 8003e9c:	4a15      	ldr	r2, [pc, #84]	@ (8003ef4 <TIM_OC1_SetConfig+0xd8>)
 8003e9e:	4293      	cmp	r3, r2
 8003ea0:	d003      	beq.n	8003eaa <TIM_OC1_SetConfig+0x8e>
 8003ea2:	687b      	ldr	r3, [r7, #4]
 8003ea4:	4a14      	ldr	r2, [pc, #80]	@ (8003ef8 <TIM_OC1_SetConfig+0xdc>)
 8003ea6:	4293      	cmp	r3, r2
 8003ea8:	d111      	bne.n	8003ece <TIM_OC1_SetConfig+0xb2>
 8003eaa:	693b      	ldr	r3, [r7, #16]
 8003eac:	f423 7380 	bic.w	r3, r3, #256	@ 0x100
 8003eb0:	613b      	str	r3, [r7, #16]
 8003eb2:	693b      	ldr	r3, [r7, #16]
 8003eb4:	f423 7300 	bic.w	r3, r3, #512	@ 0x200
 8003eb8:	613b      	str	r3, [r7, #16]
 8003eba:	683b      	ldr	r3, [r7, #0]
 8003ebc:	695b      	ldr	r3, [r3, #20]
 8003ebe:	693a      	ldr	r2, [r7, #16]
 8003ec0:	4313      	orrs	r3, r2
 8003ec2:	613b      	str	r3, [r7, #16]
 8003ec4:	683b      	ldr	r3, [r7, #0]
 8003ec6:	699b      	ldr	r3, [r3, #24]
 8003ec8:	693a      	ldr	r2, [r7, #16]
 8003eca:	4313      	orrs	r3, r2
 8003ecc:	613b      	str	r3, [r7, #16]
 8003ece:	687b      	ldr	r3, [r7, #4]
 8003ed0:	693a      	ldr	r2, [r7, #16]
 8003ed2:	605a      	str	r2, [r3, #4]
 8003ed4:	687b      	ldr	r3, [r7, #4]
 8003ed6:	68fa      	ldr	r2, [r7, #12]
 8003ed8:	619a      	str	r2, [r3, #24]
 8003eda:	683b      	ldr	r3, [r7, #0]
 8003edc:	685a      	ldr	r2, [r3, #4]
 8003ede:	687b      	ldr	r3, [r7, #4]
 8003ee0:	635a      	str	r2, [r3, #52]	@ 0x34
 8003ee2:	687b      	ldr	r3, [r7, #4]
 8003ee4:	697a      	ldr	r2, [r7, #20]
 8003ee6:	621a      	str	r2, [r3, #32]
 8003ee8:	bf00      	nop
 8003eea:	371c      	adds	r7, #28
 8003eec:	46bd      	mov	sp, r7
 8003eee:	f85d 7b04 	ldr.w	r7, [sp], #4
 8003ef2:	4770      	bx	lr
 8003ef4:	40010000 	.word	0x40010000
 8003ef8:	40010400 	.word	0x40010400

08003efc <TIM_OC2_SetConfig>:
 8003efc:	b480      	push	{r7}
 8003efe:	b087      	sub	sp, #28
 8003f00:	af00      	add	r7, sp, #0
 8003f02:	6078      	str	r0, [r7, #4]
 8003f04:	6039      	str	r1, [r7, #0]
 8003f06:	687b      	ldr	r3, [r7, #4]
 8003f08:	6a1b      	ldr	r3, [r3, #32]
 8003f0a:	617b      	str	r3, [r7, #20]
 8003f0c:	687b      	ldr	r3, [r7, #4]
 8003f0e:	6a1b      	ldr	r3, [r3, #32]
 8003f10:	f023 0210 	bic.w	r2, r3, #16
 8003f14:	687b      	ldr	r3, [r7, #4]
 8003f16:	621a      	str	r2, [r3, #32]
 8003f18:	687b      	ldr	r3, [r7, #4]
 8003f1a:	685b      	ldr	r3, [r3, #4]
 8003f1c:	613b      	str	r3, [r7, #16]
 8003f1e:	687b      	ldr	r3, [r7, #4]
 8003f20:	699b      	ldr	r3, [r3, #24]
 8003f22:	60fb      	str	r3, [r7, #12]
 8003f24:	68fb      	ldr	r3, [r7, #12]
 8003f26:	f423 43e0 	bic.w	r3, r3, #28672	@ 0x7000
 8003f2a:	60fb      	str	r3, [r7, #12]
 8003f2c:	68fb      	ldr	r3, [r7, #12]
 8003f2e:	f423 7340 	bic.w	r3, r3, #768	@ 0x300
 8003f32:	60fb      	str	r3, [r7, #12]
 8003f34:	683b      	ldr	r3, [r7, #0]
 8003f36:	681b      	ldr	r3, [r3, #0]
 8003f38:	021b      	lsls	r3, r3, #8
 8003f3a:	68fa      	ldr	r2, [r7, #12]
 8003f3c:	4313      	orrs	r3, r2
 8003f3e:	60fb      	str	r3, [r7, #12]
 8003f40:	697b      	ldr	r3, [r7, #20]
 8003f42:	f023 0320 	bic.w	r3, r3, #32
 8003f46:	617b      	str	r3, [r7, #20]
 8003f48:	683b      	ldr	r3, [r7, #0]
 8003f4a:	689b      	ldr	r3, [r3, #8]
 8003f4c:	011b      	lsls	r3, r3, #4
 8003f4e:	697a      	ldr	r2, [r7, #20]
 8003f50:	4313      	orrs	r3, r2
 8003f52:	617b      	str	r3, [r7, #20]
 8003f54:	687b      	ldr	r3, [r7, #4]
 8003f56:	4a22      	ldr	r2, [pc, #136]	@ (8003fe0 <TIM_OC2_SetConfig+0xe4>)
 8003f58:	4293      	cmp	r3, r2
 8003f5a:	d003      	beq.n	8003f64 <TIM_OC2_SetConfig+0x68>
 8003f5c:	687b      	ldr	r3, [r7, #4]
 8003f5e:	4a21      	ldr	r2, [pc, #132]	@ (8003fe4 <TIM_OC2_SetConfig+0xe8>)
 8003f60:	4293      	cmp	r3, r2
 8003f62:	d10d      	bne.n	8003f80 <TIM_OC2_SetConfig+0x84>
 8003f64:	697b      	ldr	r3, [r7, #20]
 8003f66:	f023 0380 	bic.w	r3, r3, #128	@ 0x80
 8003f6a:	617b      	str	r3, [r7, #20]
 8003f6c:	683b      	ldr	r3, [r7, #0]
 8003f6e:	68db      	ldr	r3, [r3, #12]
 8003f70:	011b      	lsls	r3, r3, #4
 8003f72:	697a      	ldr	r2, [r7, #20]
 8003f74:	4313      	orrs	r3, r2
 8003f76:	617b      	str	r3, [r7, #20]
 8003f78:	697b      	ldr	r3, [r7, #20]
 8003f7a:	f023 0340 	bic.w	r3, r3, #64	@ 0x40
 8003f7e:	617b      	str	r3, [r7, #20]
 8003f80:	687b      	ldr	r3, [r7, #4]
 8003f82:	4a17      	ldr	r2, [pc, #92]	@ (8003fe0 <TIM_OC2_SetConfig+0xe4>)
 8003f84:	4293      	cmp	r3, r2
 8003f86:	d003      	beq.n	8003f90 <TIM_OC2_SetConfig+0x94>
 8003f88:	687b      	ldr	r3, [r7, #4]
 8003f8a:	4a16      	ldr	r2, [pc, #88]	@ (8003fe4 <TIM_OC2_SetConfig+0xe8>)
 8003f8c:	4293      	cmp	r3, r2
 8003f8e:	d113      	bne.n	8003fb8 <TIM_OC2_SetConfig+0xbc>
 8003f90:	693b      	ldr	r3, [r7, #16]
 8003f92:	f423 6380 	bic.w	r3, r3, #1024	@ 0x400
 8003f96:	613b      	str	r3, [r7, #16]
 8003f98:	693b      	ldr	r3, [r7, #16]
 8003f9a:	f423 6300 	bic.w	r3, r3, #2048	@ 0x800
 8003f9e:	613b      	str	r3, [r7, #16]
 8003fa0:	683b      	ldr	r3, [r7, #0]
 8003fa2:	695b      	ldr	r3, [r3, #20]
 8003fa4:	009b      	lsls	r3, r3, #2
 8003fa6:	693a      	ldr	r2, [r7, #16]
 8003fa8:	4313      	orrs	r3, r2
 8003faa:	613b      	str	r3, [r7, #16]
 8003fac:	683b      	ldr	r3, [r7, #0]
 8003fae:	699b      	ldr	r3, [r3, #24]
 8003fb0:	009b      	lsls	r3, r3, #2
 8003fb2:	693a      	ldr	r2, [r7, #16]
 8003fb4:	4313      	orrs	r3, r2
 8003fb6:	613b      	str	r3, [r7, #16]
 8003fb8:	687b      	ldr	r3, [r7, #4]
 8003fba:	693a      	ldr	r2, [r7, #16]
 8003fbc:	605a      	str	r2, [r3, #4]
 8003fbe:	687b      	ldr	r3, [r7, #4]
 8003fc0:	68fa      	ldr	r2, [r7, #12]
 8003fc2:	619a      	str	r2, [r3, #24]
 8003fc4:	683b      	ldr	r3, [r7, #0]
 8003fc6:	685a      	ldr	r2, [r3, #4]
 8003fc8:	687b      	ldr	r3, [r7, #4]
 8003fca:	639a      	str	r2, [r3, #56]	@ 0x38
 8003fcc:	687b      	ldr	r3, [r7, #4]
 8003fce:	697a      	ldr	r2, [r7, #20]
 8003fd0:	621a      	str	r2, [r3, #32]
 8003fd2:	bf00      	nop
 8003fd4:	371c      	adds	r7, #28
 8003fd6:	46bd      	mov	sp, r7
 8003fd8:	f85d 7b04 	ldr.w	r7, [sp], #4
 8003fdc:	4770      	bx	lr
 8003fde:	bf00      	nop
 8003fe0:	40010000 	.word	0x40010000
 8003fe4:	40010400 	.word	0x40010400

08003fe8 <TIM_OC3_SetConfig>:
 8003fe8:	b480      	push	{r7}
 8003fea:	b087      	sub	sp, #28
 8003fec:	af00      	add	r7, sp, #0
 8003fee:	6078      	str	r0, [r7, #4]
 8003ff0:	6039      	str	r1, [r7, #0]
 8003ff2:	687b      	ldr	r3, [r7, #4]
 8003ff4:	6a1b      	ldr	r3, [r3, #32]
 8003ff6:	617b      	str	r3, [r7, #20]
 8003ff8:	687b      	ldr	r3, [r7, #4]
 8003ffa:	6a1b      	ldr	r3, [r3, #32]
 8003ffc:	f423 7280 	bic.w	r2, r3, #256	@ 0x100
 8004000:	687b      	ldr	r3, [r7, #4]
 8004002:	621a      	str	r2, [r3, #32]
 8004004:	687b      	ldr	r3, [r7, #4]
 8004006:	685b      	ldr	r3, [r3, #4]
 8004008:	613b      	str	r3, [r7, #16]
 800400a:	687b      	ldr	r3, [r7, #4]
 800400c:	69db      	ldr	r3, [r3, #28]
 800400e:	60fb      	str	r3, [r7, #12]
 8004010:	68fb      	ldr	r3, [r7, #12]
 8004012:	f023 0370 	bic.w	r3, r3, #112	@ 0x70
 8004016:	60fb      	str	r3, [r7, #12]
 8004018:	68fb      	ldr	r3, [r7, #12]
 800401a:	f023 0303 	bic.w	r3, r3, #3
 800401e:	60fb      	str	r3, [r7, #12]
 8004020:	683b      	ldr	r3, [r7, #0]
 8004022:	681b      	ldr	r3, [r3, #0]
 8004024:	68fa      	ldr	r2, [r7, #12]
 8004026:	4313      	orrs	r3, r2
 8004028:	60fb      	str	r3, [r7, #12]
 800402a:	697b      	ldr	r3, [r7, #20]
 800402c:	f423 7300 	bic.w	r3, r3, #512	@ 0x200
 8004030:	617b      	str	r3, [r7, #20]
 8004032:	683b      	ldr	r3, [r7, #0]
 8004034:	689b      	ldr	r3, [r3, #8]
 8004036:	021b      	lsls	r3, r3, #8
 8004038:	697a      	ldr	r2, [r7, #20]
 800403a:	4313      	orrs	r3, r2
 800403c:	617b      	str	r3, [r7, #20]
 800403e:	687b      	ldr	r3, [r7, #4]
 8004040:	4a21      	ldr	r2, [pc, #132]	@ (80040c8 <TIM_OC3_SetConfig+0xe0>)
 8004042:	4293      	cmp	r3, r2
 8004044:	d003      	beq.n	800404e <TIM_OC3_SetConfig+0x66>
 8004046:	687b      	ldr	r3, [r7, #4]
 8004048:	4a20      	ldr	r2, [pc, #128]	@ (80040cc <TIM_OC3_SetConfig+0xe4>)
 800404a:	4293      	cmp	r3, r2
 800404c:	d10d      	bne.n	800406a <TIM_OC3_SetConfig+0x82>
 800404e:	697b      	ldr	r3, [r7, #20]
 8004050:	f423 6300 	bic.w	r3, r3, #2048	@ 0x800
 8004054:	617b      	str	r3, [r7, #20]
 8004056:	683b      	ldr	r3, [r7, #0]
 8004058:	68db      	ldr	r3, [r3, #12]
 800405a:	021b      	lsls	r3, r3, #8
 800405c:	697a      	ldr	r2, [r7, #20]
 800405e:	4313      	orrs	r3, r2
 8004060:	617b      	str	r3, [r7, #20]
 8004062:	697b      	ldr	r3, [r7, #20]
 8004064:	f423 6380 	bic.w	r3, r3, #1024	@ 0x400
 8004068:	617b      	str	r3, [r7, #20]
 800406a:	687b      	ldr	r3, [r7, #4]
 800406c:	4a16      	ldr	r2, [pc, #88]	@ (80040c8 <TIM_OC3_SetConfig+0xe0>)
 800406e:	4293      	cmp	r3, r2
 8004070:	d003      	beq.n	800407a <TIM_OC3_SetConfig+0x92>
 8004072:	687b      	ldr	r3, [r7, #4]
 8004074:	4a15      	ldr	r2, [pc, #84]	@ (80040cc <TIM_OC3_SetConfig+0xe4>)
 8004076:	4293      	cmp	r3, r2
 8004078:	d113      	bne.n	80040a2 <TIM_OC3_SetConfig+0xba>
 800407a:	693b      	ldr	r3, [r7, #16]
 800407c:	f423 5380 	bic.w	r3, r3, #4096	@ 0x1000
 8004080:	613b      	str	r3, [r7, #16]
 8004082:	693b      	ldr	r3, [r7, #16]
 8004084:	f423 5300 	bic.w	r3, r3, #8192	@ 0x2000
 8004088:	613b      	str	r3, [r7, #16]
 800408a:	683b      	ldr	r3, [r7, #0]
 800408c:	695b      	ldr	r3, [r3, #20]
 800408e:	011b      	lsls	r3, r3, #4
 8004090:	693a      	ldr	r2, [r7, #16]
 8004092:	4313      	orrs	r3, r2
 8004094:	613b      	str	r3, [r7, #16]
 8004096:	683b      	ldr	r3, [r7, #0]
 8004098:	699b      	ldr	r3, [r3, #24]
 800409a:	011b      	lsls	r3, r3, #4
 800409c:	693a      	ldr	r2, [r7, #16]
 800409e:	4313      	orrs	r3, r2
 80040a0:	613b      	str	r3, [r7, #16]
 80040a2:	687b      	ldr	r3, [r7, #4]
 80040a4:	693a      	ldr	r2, [r7, #16]
 80040a6:	605a      	str	r2, [r3, #4]
 80040a8:	687b      	ldr	r3, [r7, #4]
 80040aa:	68fa      	ldr	r2, [r7, #12]
 80040ac:	61da      	str	r2, [r3, #28]
 80040ae:	683b      	ldr	r3, [r7, #0]
 80040b0:	685a      	ldr	r2, [r3, #4]
 80040b2:	687b      	ldr	r3, [r7, #4]
 80040b4:	63da      	str	r2, [r3, #60]	@ 0x3c
 80040b6:	687b      	ldr	r3, [r7, #4]
 80040b8:	697a      	ldr	r2, [r7, #20]
 80040ba:	621a      	str	r2, [r3, #32]
 80040bc:	bf00      	nop
 80040be:	371c      	adds	r7, #28
 80040c0:	46bd      	mov	sp, r7
 80040c2:	f85d 7b04 	ldr.w	r7, [sp], #4
 80040c6:	4770      	bx	lr
 80040c8:	40010000 	.word	0x40010000
 80040cc:	40010400 	.word	0x40010400

080040d0 <TIM_OC4_SetConfig>:
 80040d0:	b480      	push	{r7}
 80040d2:	b087      	sub	sp, #28
 80040d4:	af00      	add	r7, sp, #0
 80040d6:	6078      	str	r0, [r7, #4]
 80040d8:	6039      	str	r1, [r7, #0]
 80040da:	687b      	ldr	r3, [r7, #4]
 80040dc:	6a1b      	ldr	r3, [r3, #32]
 80040de:	613b      	str	r3, [r7, #16]
 80040e0:	687b      	ldr	r3, [r7, #4]
 80040e2:	6a1b      	ldr	r3, [r3, #32]
 80040e4:	f423 5280 	bic.w	r2, r3, #4096	@ 0x1000
 80040e8:	687b      	ldr	r3, [r7, #4]
 80040ea:	621a      	str	r2, [r3, #32]
 80040ec:	687b      	ldr	r3, [r7, #4]
 80040ee:	685b      	ldr	r3, [r3, #4]
 80040f0:	617b      	str	r3, [r7, #20]
 80040f2:	687b      	ldr	r3, [r7, #4]
 80040f4:	69db      	ldr	r3, [r3, #28]
 80040f6:	60fb      	str	r3, [r7, #12]
 80040f8:	68fb      	ldr	r3, [r7, #12]
 80040fa:	f423 43e0 	bic.w	r3, r3, #28672	@ 0x7000
 80040fe:	60fb      	str	r3, [r7, #12]
 8004100:	68fb      	ldr	r3, [r7, #12]
 8004102:	f423 7340 	bic.w	r3, r3, #768	@ 0x300
 8004106:	60fb      	str	r3, [r7, #12]
 8004108:	683b      	ldr	r3, [r7, #0]
 800410a:	681b      	ldr	r3, [r3, #0]
 800410c:	021b      	lsls	r3, r3, #8
 800410e:	68fa      	ldr	r2, [r7, #12]
 8004110:	4313      	orrs	r3, r2
 8004112:	60fb      	str	r3, [r7, #12]
 8004114:	693b      	ldr	r3, [r7, #16]
 8004116:	f423 5300 	bic.w	r3, r3, #8192	@ 0x2000
 800411a:	613b      	str	r3, [r7, #16]
 800411c:	683b      	ldr	r3, [r7, #0]
 800411e:	689b      	ldr	r3, [r3, #8]
 8004120:	031b      	lsls	r3, r3, #12
 8004122:	693a      	ldr	r2, [r7, #16]
 8004124:	4313      	orrs	r3, r2
 8004126:	613b      	str	r3, [r7, #16]
 8004128:	687b      	ldr	r3, [r7, #4]
 800412a:	4a12      	ldr	r2, [pc, #72]	@ (8004174 <TIM_OC4_SetConfig+0xa4>)
 800412c:	4293      	cmp	r3, r2
 800412e:	d003      	beq.n	8004138 <TIM_OC4_SetConfig+0x68>
 8004130:	687b      	ldr	r3, [r7, #4]
 8004132:	4a11      	ldr	r2, [pc, #68]	@ (8004178 <TIM_OC4_SetConfig+0xa8>)
 8004134:	4293      	cmp	r3, r2
 8004136:	d109      	bne.n	800414c <TIM_OC4_SetConfig+0x7c>
 8004138:	697b      	ldr	r3, [r7, #20]
 800413a:	f423 4380 	bic.w	r3, r3, #16384	@ 0x4000
 800413e:	617b      	str	r3, [r7, #20]
 8004140:	683b      	ldr	r3, [r7, #0]
 8004142:	695b      	ldr	r3, [r3, #20]
 8004144:	019b      	lsls	r3, r3, #6
 8004146:	697a      	ldr	r2, [r7, #20]
 8004148:	4313      	orrs	r3, r2
 800414a:	617b      	str	r3, [r7, #20]
 800414c:	687b      	ldr	r3, [r7, #4]
 800414e:	697a      	ldr	r2, [r7, #20]
 8004150:	605a      	str	r2, [r3, #4]
 8004152:	687b      	ldr	r3, [r7, #4]
 8004154:	68fa      	ldr	r2, [r7, #12]
 8004156:	61da      	str	r2, [r3, #28]
 8004158:	683b      	ldr	r3, [r7, #0]
 800415a:	685a      	ldr	r2, [r3, #4]
 800415c:	687b      	ldr	r3, [r7, #4]
 800415e:	641a      	str	r2, [r3, #64]	@ 0x40
 8004160:	687b      	ldr	r3, [r7, #4]
 8004162:	693a      	ldr	r2, [r7, #16]
 8004164:	621a      	str	r2, [r3, #32]
 8004166:	bf00      	nop
 8004168:	371c      	adds	r7, #28
 800416a:	46bd      	mov	sp, r7
 800416c:	f85d 7b04 	ldr.w	r7, [sp], #4
 8004170:	4770      	bx	lr
 8004172:	bf00      	nop
 8004174:	40010000 	.word	0x40010000
 8004178:	40010400 	.word	0x40010400

0800417c <TIM_TI1_ConfigInputStage>:
 800417c:	b480      	push	{r7}
 800417e:	b087      	sub	sp, #28
 8004180:	af00      	add	r7, sp, #0
 8004182:	60f8      	str	r0, [r7, #12]
 8004184:	60b9      	str	r1, [r7, #8]
 8004186:	607a      	str	r2, [r7, #4]
 8004188:	68fb      	ldr	r3, [r7, #12]
 800418a:	6a1b      	ldr	r3, [r3, #32]
 800418c:	617b      	str	r3, [r7, #20]
 800418e:	68fb      	ldr	r3, [r7, #12]
 8004190:	6a1b      	ldr	r3, [r3, #32]
 8004192:	f023 0201 	bic.w	r2, r3, #1
 8004196:	68fb      	ldr	r3, [r7, #12]
 8004198:	621a      	str	r2, [r3, #32]
 800419a:	68fb      	ldr	r3, [r7, #12]
 800419c:	699b      	ldr	r3, [r3, #24]
 800419e:	613b      	str	r3, [r7, #16]
 80041a0:	693b      	ldr	r3, [r7, #16]
 80041a2:	f023 03f0 	bic.w	r3, r3, #240	@ 0xf0
 80041a6:	613b      	str	r3, [r7, #16]
 80041a8:	687b      	ldr	r3, [r7, #4]
 80041aa:	011b      	lsls	r3, r3, #4
 80041ac:	693a      	ldr	r2, [r7, #16]
 80041ae:	4313      	orrs	r3, r2
 80041b0:	613b      	str	r3, [r7, #16]
 80041b2:	697b      	ldr	r3, [r7, #20]
 80041b4:	f023 030a 	bic.w	r3, r3, #10
 80041b8:	617b      	str	r3, [r7, #20]
 80041ba:	697a      	ldr	r2, [r7, #20]
 80041bc:	68bb      	ldr	r3, [r7, #8]
 80041be:	4313      	orrs	r3, r2
 80041c0:	617b      	str	r3, [r7, #20]
 80041c2:	68fb      	ldr	r3, [r7, #12]
 80041c4:	693a      	ldr	r2, [r7, #16]
 80041c6:	619a      	str	r2, [r3, #24]
 80041c8:	68fb      	ldr	r3, [r7, #12]
 80041ca:	697a      	ldr	r2, [r7, #20]
 80041cc:	621a      	str	r2, [r3, #32]
 80041ce:	bf00      	nop
 80041d0:	371c      	adds	r7, #28
 80041d2:	46bd      	mov	sp, r7
 80041d4:	f85d 7b04 	ldr.w	r7, [sp], #4
 80041d8:	4770      	bx	lr

080041da <TIM_TI2_ConfigInputStage>:
 80041da:	b480      	push	{r7}
 80041dc:	b087      	sub	sp, #28
 80041de:	af00      	add	r7, sp, #0
 80041e0:	60f8      	str	r0, [r7, #12]
 80041e2:	60b9      	str	r1, [r7, #8]
 80041e4:	607a      	str	r2, [r7, #4]
 80041e6:	68fb      	ldr	r3, [r7, #12]
 80041e8:	6a1b      	ldr	r3, [r3, #32]
 80041ea:	617b      	str	r3, [r7, #20]
 80041ec:	68fb      	ldr	r3, [r7, #12]
 80041ee:	6a1b      	ldr	r3, [r3, #32]
 80041f0:	f023 0210 	bic.w	r2, r3, #16
 80041f4:	68fb      	ldr	r3, [r7, #12]
 80041f6:	621a      	str	r2, [r3, #32]
 80041f8:	68fb      	ldr	r3, [r7, #12]
 80041fa:	699b      	ldr	r3, [r3, #24]
 80041fc:	613b      	str	r3, [r7, #16]
 80041fe:	693b      	ldr	r3, [r7, #16]
 8004200:	f423 4370 	bic.w	r3, r3, #61440	@ 0xf000
 8004204:	613b      	str	r3, [r7, #16]
 8004206:	687b      	ldr	r3, [r7, #4]
 8004208:	031b      	lsls	r3, r3, #12
 800420a:	693a      	ldr	r2, [r7, #16]
 800420c:	4313      	orrs	r3, r2
 800420e:	613b      	str	r3, [r7, #16]
 8004210:	697b      	ldr	r3, [r7, #20]
 8004212:	f023 03a0 	bic.w	r3, r3, #160	@ 0xa0
 8004216:	617b      	str	r3, [r7, #20]
 8004218:	68bb      	ldr	r3, [r7, #8]
 800421a:	011b      	lsls	r3, r3, #4
 800421c:	697a      	ldr	r2, [r7, #20]
 800421e:	4313      	orrs	r3, r2
 8004220:	617b      	str	r3, [r7, #20]
 8004222:	68fb      	ldr	r3, [r7, #12]
 8004224:	693a      	ldr	r2, [r7, #16]
 8004226:	619a      	str	r2, [r3, #24]
 8004228:	68fb      	ldr	r3, [r7, #12]
 800422a:	697a      	ldr	r2, [r7, #20]
 800422c:	621a      	str	r2, [r3, #32]
 800422e:	bf00      	nop
 8004230:	371c      	adds	r7, #28
 8004232:	46bd      	mov	sp, r7
 8004234:	f85d 7b04 	ldr.w	r7, [sp], #4
 8004238:	4770      	bx	lr

0800423a <TIM_ITRx_SetConfig>:
 800423a:	b480      	push	{r7}
 800423c:	b085      	sub	sp, #20
 800423e:	af00      	add	r7, sp, #0
 8004240:	6078      	str	r0, [r7, #4]
 8004242:	6039      	str	r1, [r7, #0]
 8004244:	687b      	ldr	r3, [r7, #4]
 8004246:	689b      	ldr	r3, [r3, #8]
 8004248:	60fb      	str	r3, [r7, #12]
 800424a:	68fb      	ldr	r3, [r7, #12]
 800424c:	f023 0370 	bic.w	r3, r3, #112	@ 0x70
 8004250:	60fb      	str	r3, [r7, #12]
 8004252:	683a      	ldr	r2, [r7, #0]
 8004254:	68fb      	ldr	r3, [r7, #12]
 8004256:	4313      	orrs	r3, r2
 8004258:	f043 0307 	orr.w	r3, r3, #7
 800425c:	60fb      	str	r3, [r7, #12]
 800425e:	687b      	ldr	r3, [r7, #4]
 8004260:	68fa      	ldr	r2, [r7, #12]
 8004262:	609a      	str	r2, [r3, #8]
 8004264:	bf00      	nop
 8004266:	3714      	adds	r7, #20
 8004268:	46bd      	mov	sp, r7
 800426a:	f85d 7b04 	ldr.w	r7, [sp], #4
 800426e:	4770      	bx	lr

08004270 <TIM_ETR_SetConfig>:
 8004270:	b480      	push	{r7}
 8004272:	b087      	sub	sp, #28
 8004274:	af00      	add	r7, sp, #0
 8004276:	60f8      	str	r0, [r7, #12]
 8004278:	60b9      	str	r1, [r7, #8]
 800427a:	607a      	str	r2, [r7, #4]
 800427c:	603b      	str	r3, [r7, #0]
 800427e:	68fb      	ldr	r3, [r7, #12]
 8004280:	689b      	ldr	r3, [r3, #8]
 8004282:	617b      	str	r3, [r7, #20]
 8004284:	697b      	ldr	r3, [r7, #20]
 8004286:	f423 437f 	bic.w	r3, r3, #65280	@ 0xff00
 800428a:	617b      	str	r3, [r7, #20]
 800428c:	683b      	ldr	r3, [r7, #0]
 800428e:	021a      	lsls	r2, r3, #8
 8004290:	687b      	ldr	r3, [r7, #4]
 8004292:	431a      	orrs	r2, r3
 8004294:	68bb      	ldr	r3, [r7, #8]
 8004296:	4313      	orrs	r3, r2
 8004298:	697a      	ldr	r2, [r7, #20]
 800429a:	4313      	orrs	r3, r2
 800429c:	617b      	str	r3, [r7, #20]
 800429e:	68fb      	ldr	r3, [r7, #12]
 80042a0:	697a      	ldr	r2, [r7, #20]
 80042a2:	609a      	str	r2, [r3, #8]
 80042a4:	bf00      	nop
 80042a6:	371c      	adds	r7, #28
 80042a8:	46bd      	mov	sp, r7
 80042aa:	f85d 7b04 	ldr.w	r7, [sp], #4
 80042ae:	4770      	bx	lr

080042b0 <HAL_TIMEx_MasterConfigSynchronization>:
 80042b0:	b480      	push	{r7}
 80042b2:	b085      	sub	sp, #20
 80042b4:	af00      	add	r7, sp, #0
 80042b6:	6078      	str	r0, [r7, #4]
 80042b8:	6039      	str	r1, [r7, #0]
 80042ba:	687b      	ldr	r3, [r7, #4]
 80042bc:	f893 303c 	ldrb.w	r3, [r3, #60]	@ 0x3c
 80042c0:	2b01      	cmp	r3, #1
 80042c2:	d101      	bne.n	80042c8 <HAL_TIMEx_MasterConfigSynchronization+0x18>
 80042c4:	2302      	movs	r3, #2
 80042c6:	e05a      	b.n	800437e <HAL_TIMEx_MasterConfigSynchronization+0xce>
 80042c8:	687b      	ldr	r3, [r7, #4]
 80042ca:	2201      	movs	r2, #1
 80042cc:	f883 203c 	strb.w	r2, [r3, #60]	@ 0x3c
 80042d0:	687b      	ldr	r3, [r7, #4]
 80042d2:	2202      	movs	r2, #2
 80042d4:	f883 203d 	strb.w	r2, [r3, #61]	@ 0x3d
 80042d8:	687b      	ldr	r3, [r7, #4]
 80042da:	681b      	ldr	r3, [r3, #0]
 80042dc:	685b      	ldr	r3, [r3, #4]
 80042de:	60fb      	str	r3, [r7, #12]
 80042e0:	687b      	ldr	r3, [r7, #4]
 80042e2:	681b      	ldr	r3, [r3, #0]
 80042e4:	689b      	ldr	r3, [r3, #8]
 80042e6:	60bb      	str	r3, [r7, #8]
 80042e8:	68fb      	ldr	r3, [r7, #12]
 80042ea:	f023 0370 	bic.w	r3, r3, #112	@ 0x70
 80042ee:	60fb      	str	r3, [r7, #12]
 80042f0:	683b      	ldr	r3, [r7, #0]
 80042f2:	681b      	ldr	r3, [r3, #0]
 80042f4:	68fa      	ldr	r2, [r7, #12]
 80042f6:	4313      	orrs	r3, r2
 80042f8:	60fb      	str	r3, [r7, #12]
 80042fa:	687b      	ldr	r3, [r7, #4]
 80042fc:	681b      	ldr	r3, [r3, #0]
 80042fe:	68fa      	ldr	r2, [r7, #12]
 8004300:	605a      	str	r2, [r3, #4]
 8004302:	687b      	ldr	r3, [r7, #4]
 8004304:	681b      	ldr	r3, [r3, #0]
 8004306:	4a21      	ldr	r2, [pc, #132]	@ (800438c <HAL_TIMEx_MasterConfigSynchronization+0xdc>)
 8004308:	4293      	cmp	r3, r2
 800430a:	d022      	beq.n	8004352 <HAL_TIMEx_MasterConfigSynchronization+0xa2>
 800430c:	687b      	ldr	r3, [r7, #4]
 800430e:	681b      	ldr	r3, [r3, #0]
 8004310:	f1b3 4f80 	cmp.w	r3, #1073741824	@ 0x40000000
 8004314:	d01d      	beq.n	8004352 <HAL_TIMEx_MasterConfigSynchronization+0xa2>
 8004316:	687b      	ldr	r3, [r7, #4]
 8004318:	681b      	ldr	r3, [r3, #0]
 800431a:	4a1d      	ldr	r2, [pc, #116]	@ (8004390 <HAL_TIMEx_MasterConfigSynchronization+0xe0>)
 800431c:	4293      	cmp	r3, r2
 800431e:	d018      	beq.n	8004352 <HAL_TIMEx_MasterConfigSynchronization+0xa2>
 8004320:	687b      	ldr	r3, [r7, #4]
 8004322:	681b      	ldr	r3, [r3, #0]
 8004324:	4a1b      	ldr	r2, [pc, #108]	@ (8004394 <HAL_TIMEx_MasterConfigSynchronization+0xe4>)
 8004326:	4293      	cmp	r3, r2
 8004328:	d013      	beq.n	8004352 <HAL_TIMEx_MasterConfigSynchronization+0xa2>
 800432a:	687b      	ldr	r3, [r7, #4]
 800432c:	681b      	ldr	r3, [r3, #0]
 800432e:	4a1a      	ldr	r2, [pc, #104]	@ (8004398 <HAL_TIMEx_MasterConfigSynchronization+0xe8>)
 8004330:	4293      	cmp	r3, r2
 8004332:	d00e      	beq.n	8004352 <HAL_TIMEx_MasterConfigSynchronization+0xa2>
 8004334:	687b      	ldr	r3, [r7, #4]
 8004336:	681b      	ldr	r3, [r3, #0]
 8004338:	4a18      	ldr	r2, [pc, #96]	@ (800439c <HAL_TIMEx_MasterConfigSynchronization+0xec>)
 800433a:	4293      	cmp	r3, r2
 800433c:	d009      	beq.n	8004352 <HAL_TIMEx_MasterConfigSynchronization+0xa2>
 800433e:	687b      	ldr	r3, [r7, #4]
 8004340:	681b      	ldr	r3, [r3, #0]
 8004342:	4a17      	ldr	r2, [pc, #92]	@ (80043a0 <HAL_TIMEx_MasterConfigSynchronization+0xf0>)
 8004344:	4293      	cmp	r3, r2
 8004346:	d004      	beq.n	8004352 <HAL_TIMEx_MasterConfigSynchronization+0xa2>
 8004348:	687b      	ldr	r3, [r7, #4]
 800434a:	681b      	ldr	r3, [r3, #0]
 800434c:	4a15      	ldr	r2, [pc, #84]	@ (80043a4 <HAL_TIMEx_MasterConfigSynchronization+0xf4>)
 800434e:	4293      	cmp	r3, r2
 8004350:	d10c      	bne.n	800436c <HAL_TIMEx_MasterConfigSynchronization+0xbc>
 8004352:	68bb      	ldr	r3, [r7, #8]
 8004354:	f023 0380 	bic.w	r3, r3, #128	@ 0x80
 8004358:	60bb      	str	r3, [r7, #8]
 800435a:	683b      	ldr	r3, [r7, #0]
 800435c:	685b      	ldr	r3, [r3, #4]
 800435e:	68ba      	ldr	r2, [r7, #8]
 8004360:	4313      	orrs	r3, r2
 8004362:	60bb      	str	r3, [r7, #8]
 8004364:	687b      	ldr	r3, [r7, #4]
 8004366:	681b      	ldr	r3, [r3, #0]
 8004368:	68ba      	ldr	r2, [r7, #8]
 800436a:	609a      	str	r2, [r3, #8]
 800436c:	687b      	ldr	r3, [r7, #4]
 800436e:	2201      	movs	r2, #1
 8004370:	f883 203d 	strb.w	r2, [r3, #61]	@ 0x3d
 8004374:	687b      	ldr	r3, [r7, #4]
 8004376:	2200      	movs	r2, #0
 8004378:	f883 203c 	strb.w	r2, [r3, #60]	@ 0x3c
 800437c:	2300      	movs	r3, #0
 800437e:	4618      	mov	r0, r3
 8004380:	3714      	adds	r7, #20
 8004382:	46bd      	mov	sp, r7
 8004384:	f85d 7b04 	ldr.w	r7, [sp], #4
 8004388:	4770      	bx	lr
 800438a:	bf00      	nop
 800438c:	40010000 	.word	0x40010000
 8004390:	40000400 	.word	0x40000400
 8004394:	40000800 	.word	0x40000800
 8004398:	40000c00 	.word	0x40000c00
 800439c:	40010400 	.word	0x40010400
 80043a0:	40014000 	.word	0x40014000
 80043a4:	40001800 	.word	0x40001800

080043a8 <HAL_UART_Init>:
 80043a8:	b580      	push	{r7, lr}
 80043aa:	b082      	sub	sp, #8
 80043ac:	af00      	add	r7, sp, #0
 80043ae:	6078      	str	r0, [r7, #4]
 80043b0:	687b      	ldr	r3, [r7, #4]
 80043b2:	2b00      	cmp	r3, #0
 80043b4:	d101      	bne.n	80043ba <HAL_UART_Init+0x12>
 80043b6:	2301      	movs	r3, #1
 80043b8:	e042      	b.n	8004440 <HAL_UART_Init+0x98>
 80043ba:	687b      	ldr	r3, [r7, #4]
 80043bc:	f893 3041 	ldrb.w	r3, [r3, #65]	@ 0x41
 80043c0:	b2db      	uxtb	r3, r3
 80043c2:	2b00      	cmp	r3, #0
 80043c4:	d106      	bne.n	80043d4 <HAL_UART_Init+0x2c>
 80043c6:	687b      	ldr	r3, [r7, #4]
 80043c8:	2200      	movs	r2, #0
 80043ca:	f883 2040 	strb.w	r2, [r3, #64]	@ 0x40
 80043ce:	6878      	ldr	r0, [r7, #4]
 80043d0:	f7fd f95c 	bl	800168c <HAL_UART_MspInit>
 80043d4:	687b      	ldr	r3, [r7, #4]
 80043d6:	2224      	movs	r2, #36	@ 0x24
 80043d8:	f883 2041 	strb.w	r2, [r3, #65]	@ 0x41
 80043dc:	687b      	ldr	r3, [r7, #4]
 80043de:	681b      	ldr	r3, [r3, #0]
 80043e0:	68da      	ldr	r2, [r3, #12]
 80043e2:	687b      	ldr	r3, [r7, #4]
 80043e4:	681b      	ldr	r3, [r3, #0]
 80043e6:	f422 5200 	bic.w	r2, r2, #8192	@ 0x2000
 80043ea:	60da      	str	r2, [r3, #12]
 80043ec:	6878      	ldr	r0, [r7, #4]
 80043ee:	f000 fe55 	bl	800509c <UART_SetConfig>
 80043f2:	687b      	ldr	r3, [r7, #4]
 80043f4:	681b      	ldr	r3, [r3, #0]
 80043f6:	691a      	ldr	r2, [r3, #16]
 80043f8:	687b      	ldr	r3, [r7, #4]
 80043fa:	681b      	ldr	r3, [r3, #0]
 80043fc:	f422 4290 	bic.w	r2, r2, #18432	@ 0x4800
 8004400:	611a      	str	r2, [r3, #16]
 8004402:	687b      	ldr	r3, [r7, #4]
 8004404:	681b      	ldr	r3, [r3, #0]
 8004406:	695a      	ldr	r2, [r3, #20]
 8004408:	687b      	ldr	r3, [r7, #4]
 800440a:	681b      	ldr	r3, [r3, #0]
 800440c:	f022 022a 	bic.w	r2, r2, #42	@ 0x2a
 8004410:	615a      	str	r2, [r3, #20]
 8004412:	687b      	ldr	r3, [r7, #4]
 8004414:	681b      	ldr	r3, [r3, #0]
 8004416:	68da      	ldr	r2, [r3, #12]
 8004418:	687b      	ldr	r3, [r7, #4]
 800441a:	681b      	ldr	r3, [r3, #0]
 800441c:	f442 5200 	orr.w	r2, r2, #8192	@ 0x2000
 8004420:	60da      	str	r2, [r3, #12]
 8004422:	687b      	ldr	r3, [r7, #4]
 8004424:	2200      	movs	r2, #0
 8004426:	645a      	str	r2, [r3, #68]	@ 0x44
 8004428:	687b      	ldr	r3, [r7, #4]
 800442a:	2220      	movs	r2, #32
 800442c:	f883 2041 	strb.w	r2, [r3, #65]	@ 0x41
 8004430:	687b      	ldr	r3, [r7, #4]
 8004432:	2220      	movs	r2, #32
 8004434:	f883 2042 	strb.w	r2, [r3, #66]	@ 0x42
 8004438:	687b      	ldr	r3, [r7, #4]
 800443a:	2200      	movs	r2, #0
 800443c:	635a      	str	r2, [r3, #52]	@ 0x34
 800443e:	2300      	movs	r3, #0
 8004440:	4618      	mov	r0, r3
 8004442:	3708      	adds	r7, #8
 8004444:	46bd      	mov	sp, r7
 8004446:	bd80      	pop	{r7, pc}

08004448 <HAL_UART_Transmit>:
 8004448:	b580      	push	{r7, lr}
 800444a:	b08a      	sub	sp, #40	@ 0x28
 800444c:	af02      	add	r7, sp, #8
 800444e:	60f8      	str	r0, [r7, #12]
 8004450:	60b9      	str	r1, [r7, #8]
 8004452:	603b      	str	r3, [r7, #0]
 8004454:	4613      	mov	r3, r2
 8004456:	80fb      	strh	r3, [r7, #6]
 8004458:	2300      	movs	r3, #0
 800445a:	617b      	str	r3, [r7, #20]
 800445c:	68fb      	ldr	r3, [r7, #12]
 800445e:	f893 3041 	ldrb.w	r3, [r3, #65]	@ 0x41
 8004462:	b2db      	uxtb	r3, r3
 8004464:	2b20      	cmp	r3, #32
 8004466:	d175      	bne.n	8004554 <HAL_UART_Transmit+0x10c>
 8004468:	68bb      	ldr	r3, [r7, #8]
 800446a:	2b00      	cmp	r3, #0
 800446c:	d002      	beq.n	8004474 <HAL_UART_Transmit+0x2c>
 800446e:	88fb      	ldrh	r3, [r7, #6]
 8004470:	2b00      	cmp	r3, #0
 8004472:	d101      	bne.n	8004478 <HAL_UART_Transmit+0x30>
 8004474:	2301      	movs	r3, #1
 8004476:	e06e      	b.n	8004556 <HAL_UART_Transmit+0x10e>
 8004478:	68fb      	ldr	r3, [r7, #12]
 800447a:	2200      	movs	r2, #0
 800447c:	645a      	str	r2, [r3, #68]	@ 0x44
 800447e:	68fb      	ldr	r3, [r7, #12]
 8004480:	2221      	movs	r2, #33	@ 0x21
 8004482:	f883 2041 	strb.w	r2, [r3, #65]	@ 0x41
 8004486:	f7fd fe4b 	bl	8002120 <HAL_GetTick>
 800448a:	6178      	str	r0, [r7, #20]
 800448c:	68fb      	ldr	r3, [r7, #12]
 800448e:	88fa      	ldrh	r2, [r7, #6]
 8004490:	849a      	strh	r2, [r3, #36]	@ 0x24
 8004492:	68fb      	ldr	r3, [r7, #12]
 8004494:	88fa      	ldrh	r2, [r7, #6]
 8004496:	84da      	strh	r2, [r3, #38]	@ 0x26
 8004498:	68fb      	ldr	r3, [r7, #12]
 800449a:	689b      	ldr	r3, [r3, #8]
 800449c:	f5b3 5f80 	cmp.w	r3, #4096	@ 0x1000
 80044a0:	d108      	bne.n	80044b4 <HAL_UART_Transmit+0x6c>
 80044a2:	68fb      	ldr	r3, [r7, #12]
 80044a4:	691b      	ldr	r3, [r3, #16]
 80044a6:	2b00      	cmp	r3, #0
 80044a8:	d104      	bne.n	80044b4 <HAL_UART_Transmit+0x6c>
 80044aa:	2300      	movs	r3, #0
 80044ac:	61fb      	str	r3, [r7, #28]
 80044ae:	68bb      	ldr	r3, [r7, #8]
 80044b0:	61bb      	str	r3, [r7, #24]
 80044b2:	e003      	b.n	80044bc <HAL_UART_Transmit+0x74>
 80044b4:	68bb      	ldr	r3, [r7, #8]
 80044b6:	61fb      	str	r3, [r7, #28]
 80044b8:	2300      	movs	r3, #0
 80044ba:	61bb      	str	r3, [r7, #24]
 80044bc:	e02e      	b.n	800451c <HAL_UART_Transmit+0xd4>
 80044be:	683b      	ldr	r3, [r7, #0]
 80044c0:	9300      	str	r3, [sp, #0]
 80044c2:	697b      	ldr	r3, [r7, #20]
 80044c4:	2200      	movs	r2, #0
 80044c6:	2180      	movs	r1, #128	@ 0x80
 80044c8:	68f8      	ldr	r0, [r7, #12]
 80044ca:	f000 fbb7 	bl	8004c3c <UART_WaitOnFlagUntilTimeout>
 80044ce:	4603      	mov	r3, r0
 80044d0:	2b00      	cmp	r3, #0
 80044d2:	d005      	beq.n	80044e0 <HAL_UART_Transmit+0x98>
 80044d4:	68fb      	ldr	r3, [r7, #12]
 80044d6:	2220      	movs	r2, #32
 80044d8:	f883 2041 	strb.w	r2, [r3, #65]	@ 0x41
 80044dc:	2303      	movs	r3, #3
 80044de:	e03a      	b.n	8004556 <HAL_UART_Transmit+0x10e>
 80044e0:	69fb      	ldr	r3, [r7, #28]
 80044e2:	2b00      	cmp	r3, #0
 80044e4:	d10b      	bne.n	80044fe <HAL_UART_Transmit+0xb6>
 80044e6:	69bb      	ldr	r3, [r7, #24]
 80044e8:	881b      	ldrh	r3, [r3, #0]
 80044ea:	461a      	mov	r2, r3
 80044ec:	68fb      	ldr	r3, [r7, #12]
 80044ee:	681b      	ldr	r3, [r3, #0]
 80044f0:	f3c2 0208 	ubfx	r2, r2, #0, #9
 80044f4:	605a      	str	r2, [r3, #4]
 80044f6:	69bb      	ldr	r3, [r7, #24]
 80044f8:	3302      	adds	r3, #2
 80044fa:	61bb      	str	r3, [r7, #24]
 80044fc:	e007      	b.n	800450e <HAL_UART_Transmit+0xc6>
 80044fe:	69fb      	ldr	r3, [r7, #28]
 8004500:	781a      	ldrb	r2, [r3, #0]
 8004502:	68fb      	ldr	r3, [r7, #12]
 8004504:	681b      	ldr	r3, [r3, #0]
 8004506:	605a      	str	r2, [r3, #4]
 8004508:	69fb      	ldr	r3, [r7, #28]
 800450a:	3301      	adds	r3, #1
 800450c:	61fb      	str	r3, [r7, #28]
 800450e:	68fb      	ldr	r3, [r7, #12]
 8004510:	8cdb      	ldrh	r3, [r3, #38]	@ 0x26
 8004512:	b29b      	uxth	r3, r3
 8004514:	3b01      	subs	r3, #1
 8004516:	b29a      	uxth	r2, r3
 8004518:	68fb      	ldr	r3, [r7, #12]
 800451a:	84da      	strh	r2, [r3, #38]	@ 0x26
 800451c:	68fb      	ldr	r3, [r7, #12]
 800451e:	8cdb      	ldrh	r3, [r3, #38]	@ 0x26
 8004520:	b29b      	uxth	r3, r3
 8004522:	2b00      	cmp	r3, #0
 8004524:	d1cb      	bne.n	80044be <HAL_UART_Transmit+0x76>
 8004526:	683b      	ldr	r3, [r7, #0]
 8004528:	9300      	str	r3, [sp, #0]
 800452a:	697b      	ldr	r3, [r7, #20]
 800452c:	2200      	movs	r2, #0
 800452e:	2140      	movs	r1, #64	@ 0x40
 8004530:	68f8      	ldr	r0, [r7, #12]
 8004532:	f000 fb83 	bl	8004c3c <UART_WaitOnFlagUntilTimeout>
 8004536:	4603      	mov	r3, r0
 8004538:	2b00      	cmp	r3, #0
 800453a:	d005      	beq.n	8004548 <HAL_UART_Transmit+0x100>
 800453c:	68fb      	ldr	r3, [r7, #12]
 800453e:	2220      	movs	r2, #32
 8004540:	f883 2041 	strb.w	r2, [r3, #65]	@ 0x41
 8004544:	2303      	movs	r3, #3
 8004546:	e006      	b.n	8004556 <HAL_UART_Transmit+0x10e>
 8004548:	68fb      	ldr	r3, [r7, #12]
 800454a:	2220      	movs	r2, #32
 800454c:	f883 2041 	strb.w	r2, [r3, #65]	@ 0x41
 8004550:	2300      	movs	r3, #0
 8004552:	e000      	b.n	8004556 <HAL_UART_Transmit+0x10e>
 8004554:	2302      	movs	r3, #2
 8004556:	4618      	mov	r0, r3
 8004558:	3720      	adds	r7, #32
 800455a:	46bd      	mov	sp, r7
 800455c:	bd80      	pop	{r7, pc}

0800455e <HAL_UART_Receive>:
 800455e:	b580      	push	{r7, lr}
 8004560:	b08a      	sub	sp, #40	@ 0x28
 8004562:	af02      	add	r7, sp, #8
 8004564:	60f8      	str	r0, [r7, #12]
 8004566:	60b9      	str	r1, [r7, #8]
 8004568:	603b      	str	r3, [r7, #0]
 800456a:	4613      	mov	r3, r2
 800456c:	80fb      	strh	r3, [r7, #6]
 800456e:	2300      	movs	r3, #0
 8004570:	617b      	str	r3, [r7, #20]
 8004572:	68fb      	ldr	r3, [r7, #12]
 8004574:	f893 3042 	ldrb.w	r3, [r3, #66]	@ 0x42
 8004578:	b2db      	uxtb	r3, r3
 800457a:	2b20      	cmp	r3, #32
 800457c:	f040 8081 	bne.w	8004682 <HAL_UART_Receive+0x124>
 8004580:	68bb      	ldr	r3, [r7, #8]
 8004582:	2b00      	cmp	r3, #0
 8004584:	d002      	beq.n	800458c <HAL_UART_Receive+0x2e>
 8004586:	88fb      	ldrh	r3, [r7, #6]
 8004588:	2b00      	cmp	r3, #0
 800458a:	d101      	bne.n	8004590 <HAL_UART_Receive+0x32>
 800458c:	2301      	movs	r3, #1
 800458e:	e079      	b.n	8004684 <HAL_UART_Receive+0x126>
 8004590:	68fb      	ldr	r3, [r7, #12]
 8004592:	2200      	movs	r2, #0
 8004594:	645a      	str	r2, [r3, #68]	@ 0x44
 8004596:	68fb      	ldr	r3, [r7, #12]
 8004598:	2222      	movs	r2, #34	@ 0x22
 800459a:	f883 2042 	strb.w	r2, [r3, #66]	@ 0x42
 800459e:	68fb      	ldr	r3, [r7, #12]
 80045a0:	2200      	movs	r2, #0
 80045a2:	631a      	str	r2, [r3, #48]	@ 0x30
 80045a4:	f7fd fdbc 	bl	8002120 <HAL_GetTick>
 80045a8:	6178      	str	r0, [r7, #20]
 80045aa:	68fb      	ldr	r3, [r7, #12]
 80045ac:	88fa      	ldrh	r2, [r7, #6]
 80045ae:	859a      	strh	r2, [r3, #44]	@ 0x2c
 80045b0:	68fb      	ldr	r3, [r7, #12]
 80045b2:	88fa      	ldrh	r2, [r7, #6]
 80045b4:	85da      	strh	r2, [r3, #46]	@ 0x2e
 80045b6:	68fb      	ldr	r3, [r7, #12]
 80045b8:	689b      	ldr	r3, [r3, #8]
 80045ba:	f5b3 5f80 	cmp.w	r3, #4096	@ 0x1000
 80045be:	d108      	bne.n	80045d2 <HAL_UART_Receive+0x74>
 80045c0:	68fb      	ldr	r3, [r7, #12]
 80045c2:	691b      	ldr	r3, [r3, #16]
 80045c4:	2b00      	cmp	r3, #0
 80045c6:	d104      	bne.n	80045d2 <HAL_UART_Receive+0x74>
 80045c8:	2300      	movs	r3, #0
 80045ca:	61fb      	str	r3, [r7, #28]
 80045cc:	68bb      	ldr	r3, [r7, #8]
 80045ce:	61bb      	str	r3, [r7, #24]
 80045d0:	e003      	b.n	80045da <HAL_UART_Receive+0x7c>
 80045d2:	68bb      	ldr	r3, [r7, #8]
 80045d4:	61fb      	str	r3, [r7, #28]
 80045d6:	2300      	movs	r3, #0
 80045d8:	61bb      	str	r3, [r7, #24]
 80045da:	e047      	b.n	800466c <HAL_UART_Receive+0x10e>
 80045dc:	683b      	ldr	r3, [r7, #0]
 80045de:	9300      	str	r3, [sp, #0]
 80045e0:	697b      	ldr	r3, [r7, #20]
 80045e2:	2200      	movs	r2, #0
 80045e4:	2120      	movs	r1, #32
 80045e6:	68f8      	ldr	r0, [r7, #12]
 80045e8:	f000 fb28 	bl	8004c3c <UART_WaitOnFlagUntilTimeout>
 80045ec:	4603      	mov	r3, r0
 80045ee:	2b00      	cmp	r3, #0
 80045f0:	d005      	beq.n	80045fe <HAL_UART_Receive+0xa0>
 80045f2:	68fb      	ldr	r3, [r7, #12]
 80045f4:	2220      	movs	r2, #32
 80045f6:	f883 2042 	strb.w	r2, [r3, #66]	@ 0x42
 80045fa:	2303      	movs	r3, #3
 80045fc:	e042      	b.n	8004684 <HAL_UART_Receive+0x126>
 80045fe:	69fb      	ldr	r3, [r7, #28]
 8004600:	2b00      	cmp	r3, #0
 8004602:	d10c      	bne.n	800461e <HAL_UART_Receive+0xc0>
 8004604:	68fb      	ldr	r3, [r7, #12]
 8004606:	681b      	ldr	r3, [r3, #0]
 8004608:	685b      	ldr	r3, [r3, #4]
 800460a:	b29b      	uxth	r3, r3
 800460c:	f3c3 0308 	ubfx	r3, r3, #0, #9
 8004610:	b29a      	uxth	r2, r3
 8004612:	69bb      	ldr	r3, [r7, #24]
 8004614:	801a      	strh	r2, [r3, #0]
 8004616:	69bb      	ldr	r3, [r7, #24]
 8004618:	3302      	adds	r3, #2
 800461a:	61bb      	str	r3, [r7, #24]
 800461c:	e01f      	b.n	800465e <HAL_UART_Receive+0x100>
 800461e:	68fb      	ldr	r3, [r7, #12]
 8004620:	689b      	ldr	r3, [r3, #8]
 8004622:	f5b3 5f80 	cmp.w	r3, #4096	@ 0x1000
 8004626:	d007      	beq.n	8004638 <HAL_UART_Receive+0xda>
 8004628:	68fb      	ldr	r3, [r7, #12]
 800462a:	689b      	ldr	r3, [r3, #8]
 800462c:	2b00      	cmp	r3, #0
 800462e:	d10a      	bne.n	8004646 <HAL_UART_Receive+0xe8>
 8004630:	68fb      	ldr	r3, [r7, #12]
 8004632:	691b      	ldr	r3, [r3, #16]
 8004634:	2b00      	cmp	r3, #0
 8004636:	d106      	bne.n	8004646 <HAL_UART_Receive+0xe8>
 8004638:	68fb      	ldr	r3, [r7, #12]
 800463a:	681b      	ldr	r3, [r3, #0]
 800463c:	685b      	ldr	r3, [r3, #4]
 800463e:	b2da      	uxtb	r2, r3
 8004640:	69fb      	ldr	r3, [r7, #28]
 8004642:	701a      	strb	r2, [r3, #0]
 8004644:	e008      	b.n	8004658 <HAL_UART_Receive+0xfa>
 8004646:	68fb      	ldr	r3, [r7, #12]
 8004648:	681b      	ldr	r3, [r3, #0]
 800464a:	685b      	ldr	r3, [r3, #4]
 800464c:	b2db      	uxtb	r3, r3
 800464e:	f003 037f 	and.w	r3, r3, #127	@ 0x7f
 8004652:	b2da      	uxtb	r2, r3
 8004654:	69fb      	ldr	r3, [r7, #28]
 8004656:	701a      	strb	r2, [r3, #0]
 8004658:	69fb      	ldr	r3, [r7, #28]
 800465a:	3301      	adds	r3, #1
 800465c:	61fb      	str	r3, [r7, #28]
 800465e:	68fb      	ldr	r3, [r7, #12]
 8004660:	8ddb      	ldrh	r3, [r3, #46]	@ 0x2e
 8004662:	b29b      	uxth	r3, r3
 8004664:	3b01      	subs	r3, #1
 8004666:	b29a      	uxth	r2, r3
 8004668:	68fb      	ldr	r3, [r7, #12]
 800466a:	85da      	strh	r2, [r3, #46]	@ 0x2e
 800466c:	68fb      	ldr	r3, [r7, #12]
 800466e:	8ddb      	ldrh	r3, [r3, #46]	@ 0x2e
 8004670:	b29b      	uxth	r3, r3
 8004672:	2b00      	cmp	r3, #0
 8004674:	d1b2      	bne.n	80045dc <HAL_UART_Receive+0x7e>
 8004676:	68fb      	ldr	r3, [r7, #12]
 8004678:	2220      	movs	r2, #32
 800467a:	f883 2042 	strb.w	r2, [r3, #66]	@ 0x42
 800467e:	2300      	movs	r3, #0
 8004680:	e000      	b.n	8004684 <HAL_UART_Receive+0x126>
 8004682:	2302      	movs	r3, #2
 8004684:	4618      	mov	r0, r3
 8004686:	3720      	adds	r7, #32
 8004688:	46bd      	mov	sp, r7
 800468a:	bd80      	pop	{r7, pc}

0800468c <HAL_UART_Receive_IT>:
 800468c:	b580      	push	{r7, lr}
 800468e:	b084      	sub	sp, #16
 8004690:	af00      	add	r7, sp, #0
 8004692:	60f8      	str	r0, [r7, #12]
 8004694:	60b9      	str	r1, [r7, #8]
 8004696:	4613      	mov	r3, r2
 8004698:	80fb      	strh	r3, [r7, #6]
 800469a:	68fb      	ldr	r3, [r7, #12]
 800469c:	f893 3042 	ldrb.w	r3, [r3, #66]	@ 0x42
 80046a0:	b2db      	uxtb	r3, r3
 80046a2:	2b20      	cmp	r3, #32
 80046a4:	d112      	bne.n	80046cc <HAL_UART_Receive_IT+0x40>
 80046a6:	68bb      	ldr	r3, [r7, #8]
 80046a8:	2b00      	cmp	r3, #0
 80046aa:	d002      	beq.n	80046b2 <HAL_UART_Receive_IT+0x26>
 80046ac:	88fb      	ldrh	r3, [r7, #6]
 80046ae:	2b00      	cmp	r3, #0
 80046b0:	d101      	bne.n	80046b6 <HAL_UART_Receive_IT+0x2a>
 80046b2:	2301      	movs	r3, #1
 80046b4:	e00b      	b.n	80046ce <HAL_UART_Receive_IT+0x42>
 80046b6:	68fb      	ldr	r3, [r7, #12]
 80046b8:	2200      	movs	r2, #0
 80046ba:	631a      	str	r2, [r3, #48]	@ 0x30
 80046bc:	88fb      	ldrh	r3, [r7, #6]
 80046be:	461a      	mov	r2, r3
 80046c0:	68b9      	ldr	r1, [r7, #8]
 80046c2:	68f8      	ldr	r0, [r7, #12]
 80046c4:	f000 fb13 	bl	8004cee <UART_Start_Receive_IT>
 80046c8:	4603      	mov	r3, r0
 80046ca:	e000      	b.n	80046ce <HAL_UART_Receive_IT+0x42>
 80046cc:	2302      	movs	r3, #2
 80046ce:	4618      	mov	r0, r3
 80046d0:	3710      	adds	r7, #16
 80046d2:	46bd      	mov	sp, r7
 80046d4:	bd80      	pop	{r7, pc}
	...

080046d8 <HAL_UART_IRQHandler>:
 80046d8:	b580      	push	{r7, lr}
 80046da:	b0ba      	sub	sp, #232	@ 0xe8
 80046dc:	af00      	add	r7, sp, #0
 80046de:	6078      	str	r0, [r7, #4]
 80046e0:	687b      	ldr	r3, [r7, #4]
 80046e2:	681b      	ldr	r3, [r3, #0]
 80046e4:	681b      	ldr	r3, [r3, #0]
 80046e6:	f8c7 30e4 	str.w	r3, [r7, #228]	@ 0xe4
 80046ea:	687b      	ldr	r3, [r7, #4]
 80046ec:	681b      	ldr	r3, [r3, #0]
 80046ee:	68db      	ldr	r3, [r3, #12]
 80046f0:	f8c7 30e0 	str.w	r3, [r7, #224]	@ 0xe0
 80046f4:	687b      	ldr	r3, [r7, #4]
 80046f6:	681b      	ldr	r3, [r3, #0]
 80046f8:	695b      	ldr	r3, [r3, #20]
 80046fa:	f8c7 30dc 	str.w	r3, [r7, #220]	@ 0xdc
 80046fe:	2300      	movs	r3, #0
 8004700:	f8c7 30d8 	str.w	r3, [r7, #216]	@ 0xd8
 8004704:	2300      	movs	r3, #0
 8004706:	f8c7 30d4 	str.w	r3, [r7, #212]	@ 0xd4
 800470a:	f8d7 30e4 	ldr.w	r3, [r7, #228]	@ 0xe4
 800470e:	f003 030f 	and.w	r3, r3, #15
 8004712:	f8c7 30d8 	str.w	r3, [r7, #216]	@ 0xd8
 8004716:	f8d7 30d8 	ldr.w	r3, [r7, #216]	@ 0xd8
 800471a:	2b00      	cmp	r3, #0
 800471c:	d10f      	bne.n	800473e <HAL_UART_IRQHandler+0x66>
 800471e:	f8d7 30e4 	ldr.w	r3, [r7, #228]	@ 0xe4
 8004722:	f003 0320 	and.w	r3, r3, #32
 8004726:	2b00      	cmp	r3, #0
 8004728:	d009      	beq.n	800473e <HAL_UART_IRQHandler+0x66>
 800472a:	f8d7 30e0 	ldr.w	r3, [r7, #224]	@ 0xe0
 800472e:	f003 0320 	and.w	r3, r3, #32
 8004732:	2b00      	cmp	r3, #0
 8004734:	d003      	beq.n	800473e <HAL_UART_IRQHandler+0x66>
 8004736:	6878      	ldr	r0, [r7, #4]
 8004738:	f000 fbf2 	bl	8004f20 <UART_Receive_IT>
 800473c:	e25b      	b.n	8004bf6 <HAL_UART_IRQHandler+0x51e>
 800473e:	f8d7 30d8 	ldr.w	r3, [r7, #216]	@ 0xd8
 8004742:	2b00      	cmp	r3, #0
 8004744:	f000 80de 	beq.w	8004904 <HAL_UART_IRQHandler+0x22c>
 8004748:	f8d7 30dc 	ldr.w	r3, [r7, #220]	@ 0xdc
 800474c:	f003 0301 	and.w	r3, r3, #1
 8004750:	2b00      	cmp	r3, #0
 8004752:	d106      	bne.n	8004762 <HAL_UART_IRQHandler+0x8a>
 8004754:	f8d7 30e0 	ldr.w	r3, [r7, #224]	@ 0xe0
 8004758:	f403 7390 	and.w	r3, r3, #288	@ 0x120
 800475c:	2b00      	cmp	r3, #0
 800475e:	f000 80d1 	beq.w	8004904 <HAL_UART_IRQHandler+0x22c>
 8004762:	f8d7 30e4 	ldr.w	r3, [r7, #228]	@ 0xe4
 8004766:	f003 0301 	and.w	r3, r3, #1
 800476a:	2b00      	cmp	r3, #0
 800476c:	d00b      	beq.n	8004786 <HAL_UART_IRQHandler+0xae>
 800476e:	f8d7 30e0 	ldr.w	r3, [r7, #224]	@ 0xe0
 8004772:	f403 7380 	and.w	r3, r3, #256	@ 0x100
 8004776:	2b00      	cmp	r3, #0
 8004778:	d005      	beq.n	8004786 <HAL_UART_IRQHandler+0xae>
 800477a:	687b      	ldr	r3, [r7, #4]
 800477c:	6c5b      	ldr	r3, [r3, #68]	@ 0x44
 800477e:	f043 0201 	orr.w	r2, r3, #1
 8004782:	687b      	ldr	r3, [r7, #4]
 8004784:	645a      	str	r2, [r3, #68]	@ 0x44
 8004786:	f8d7 30e4 	ldr.w	r3, [r7, #228]	@ 0xe4
 800478a:	f003 0304 	and.w	r3, r3, #4
 800478e:	2b00      	cmp	r3, #0
 8004790:	d00b      	beq.n	80047aa <HAL_UART_IRQHandler+0xd2>
 8004792:	f8d7 30dc 	ldr.w	r3, [r7, #220]	@ 0xdc
 8004796:	f003 0301 	and.w	r3, r3, #1
 800479a:	2b00      	cmp	r3, #0
 800479c:	d005      	beq.n	80047aa <HAL_UART_IRQHandler+0xd2>
 800479e:	687b      	ldr	r3, [r7, #4]
 80047a0:	6c5b      	ldr	r3, [r3, #68]	@ 0x44
 80047a2:	f043 0202 	orr.w	r2, r3, #2
 80047a6:	687b      	ldr	r3, [r7, #4]
 80047a8:	645a      	str	r2, [r3, #68]	@ 0x44
 80047aa:	f8d7 30e4 	ldr.w	r3, [r7, #228]	@ 0xe4
 80047ae:	f003 0302 	and.w	r3, r3, #2
 80047b2:	2b00      	cmp	r3, #0
 80047b4:	d00b      	beq.n	80047ce <HAL_UART_IRQHandler+0xf6>
 80047b6:	f8d7 30dc 	ldr.w	r3, [r7, #220]	@ 0xdc
 80047ba:	f003 0301 	and.w	r3, r3, #1
 80047be:	2b00      	cmp	r3, #0
 80047c0:	d005      	beq.n	80047ce <HAL_UART_IRQHandler+0xf6>
 80047c2:	687b      	ldr	r3, [r7, #4]
 80047c4:	6c5b      	ldr	r3, [r3, #68]	@ 0x44
 80047c6:	f043 0204 	orr.w	r2, r3, #4
 80047ca:	687b      	ldr	r3, [r7, #4]
 80047cc:	645a      	str	r2, [r3, #68]	@ 0x44
 80047ce:	f8d7 30e4 	ldr.w	r3, [r7, #228]	@ 0xe4
 80047d2:	f003 0308 	and.w	r3, r3, #8
 80047d6:	2b00      	cmp	r3, #0
 80047d8:	d011      	beq.n	80047fe <HAL_UART_IRQHandler+0x126>
 80047da:	f8d7 30e0 	ldr.w	r3, [r7, #224]	@ 0xe0
 80047de:	f003 0320 	and.w	r3, r3, #32
 80047e2:	2b00      	cmp	r3, #0
 80047e4:	d105      	bne.n	80047f2 <HAL_UART_IRQHandler+0x11a>
 80047e6:	f8d7 30dc 	ldr.w	r3, [r7, #220]	@ 0xdc
 80047ea:	f003 0301 	and.w	r3, r3, #1
 80047ee:	2b00      	cmp	r3, #0
 80047f0:	d005      	beq.n	80047fe <HAL_UART_IRQHandler+0x126>
 80047f2:	687b      	ldr	r3, [r7, #4]
 80047f4:	6c5b      	ldr	r3, [r3, #68]	@ 0x44
 80047f6:	f043 0208 	orr.w	r2, r3, #8
 80047fa:	687b      	ldr	r3, [r7, #4]
 80047fc:	645a      	str	r2, [r3, #68]	@ 0x44
 80047fe:	687b      	ldr	r3, [r7, #4]
 8004800:	6c5b      	ldr	r3, [r3, #68]	@ 0x44
 8004802:	2b00      	cmp	r3, #0
 8004804:	f000 81f2 	beq.w	8004bec <HAL_UART_IRQHandler+0x514>
 8004808:	f8d7 30e4 	ldr.w	r3, [r7, #228]	@ 0xe4
 800480c:	f003 0320 	and.w	r3, r3, #32
 8004810:	2b00      	cmp	r3, #0
 8004812:	d008      	beq.n	8004826 <HAL_UART_IRQHandler+0x14e>
 8004814:	f8d7 30e0 	ldr.w	r3, [r7, #224]	@ 0xe0
 8004818:	f003 0320 	and.w	r3, r3, #32
 800481c:	2b00      	cmp	r3, #0
 800481e:	d002      	beq.n	8004826 <HAL_UART_IRQHandler+0x14e>
 8004820:	6878      	ldr	r0, [r7, #4]
 8004822:	f000 fb7d 	bl	8004f20 <UART_Receive_IT>
 8004826:	687b      	ldr	r3, [r7, #4]
 8004828:	681b      	ldr	r3, [r3, #0]
 800482a:	695b      	ldr	r3, [r3, #20]
 800482c:	f003 0340 	and.w	r3, r3, #64	@ 0x40
 8004830:	2b40      	cmp	r3, #64	@ 0x40
 8004832:	bf0c      	ite	eq
 8004834:	2301      	moveq	r3, #1
 8004836:	2300      	movne	r3, #0
 8004838:	b2db      	uxtb	r3, r3
 800483a:	f8c7 30d4 	str.w	r3, [r7, #212]	@ 0xd4
 800483e:	687b      	ldr	r3, [r7, #4]
 8004840:	6c5b      	ldr	r3, [r3, #68]	@ 0x44
 8004842:	f003 0308 	and.w	r3, r3, #8
 8004846:	2b00      	cmp	r3, #0
 8004848:	d103      	bne.n	8004852 <HAL_UART_IRQHandler+0x17a>
 800484a:	f8d7 30d4 	ldr.w	r3, [r7, #212]	@ 0xd4
 800484e:	2b00      	cmp	r3, #0
 8004850:	d04f      	beq.n	80048f2 <HAL_UART_IRQHandler+0x21a>
 8004852:	6878      	ldr	r0, [r7, #4]
 8004854:	f000 fa85 	bl	8004d62 <UART_EndRxTransfer>
 8004858:	687b      	ldr	r3, [r7, #4]
 800485a:	681b      	ldr	r3, [r3, #0]
 800485c:	695b      	ldr	r3, [r3, #20]
 800485e:	f003 0340 	and.w	r3, r3, #64	@ 0x40
 8004862:	2b40      	cmp	r3, #64	@ 0x40
 8004864:	d141      	bne.n	80048ea <HAL_UART_IRQHandler+0x212>
 8004866:	687b      	ldr	r3, [r7, #4]
 8004868:	681b      	ldr	r3, [r3, #0]
 800486a:	3314      	adds	r3, #20
 800486c:	f8c7 309c 	str.w	r3, [r7, #156]	@ 0x9c
 8004870:	f8d7 309c 	ldr.w	r3, [r7, #156]	@ 0x9c
 8004874:	e853 3f00 	ldrex	r3, [r3]
 8004878:	f8c7 3098 	str.w	r3, [r7, #152]	@ 0x98
 800487c:	f8d7 3098 	ldr.w	r3, [r7, #152]	@ 0x98
 8004880:	f023 0340 	bic.w	r3, r3, #64	@ 0x40
 8004884:	f8c7 30d0 	str.w	r3, [r7, #208]	@ 0xd0
 8004888:	687b      	ldr	r3, [r7, #4]
 800488a:	681b      	ldr	r3, [r3, #0]
 800488c:	3314      	adds	r3, #20
 800488e:	f8d7 20d0 	ldr.w	r2, [r7, #208]	@ 0xd0
 8004892:	f8c7 20a8 	str.w	r2, [r7, #168]	@ 0xa8
 8004896:	f8c7 30a4 	str.w	r3, [r7, #164]	@ 0xa4
 800489a:	f8d7 10a4 	ldr.w	r1, [r7, #164]	@ 0xa4
 800489e:	f8d7 20a8 	ldr.w	r2, [r7, #168]	@ 0xa8
 80048a2:	e841 2300 	strex	r3, r2, [r1]
 80048a6:	f8c7 30a0 	str.w	r3, [r7, #160]	@ 0xa0
 80048aa:	f8d7 30a0 	ldr.w	r3, [r7, #160]	@ 0xa0
 80048ae:	2b00      	cmp	r3, #0
 80048b0:	d1d9      	bne.n	8004866 <HAL_UART_IRQHandler+0x18e>
 80048b2:	687b      	ldr	r3, [r7, #4]
 80048b4:	6bdb      	ldr	r3, [r3, #60]	@ 0x3c
 80048b6:	2b00      	cmp	r3, #0
 80048b8:	d013      	beq.n	80048e2 <HAL_UART_IRQHandler+0x20a>
 80048ba:	687b      	ldr	r3, [r7, #4]
 80048bc:	6bdb      	ldr	r3, [r3, #60]	@ 0x3c
 80048be:	4a7e      	ldr	r2, [pc, #504]	@ (8004ab8 <HAL_UART_IRQHandler+0x3e0>)
 80048c0:	651a      	str	r2, [r3, #80]	@ 0x50
 80048c2:	687b      	ldr	r3, [r7, #4]
 80048c4:	6bdb      	ldr	r3, [r3, #60]	@ 0x3c
 80048c6:	4618      	mov	r0, r3
 80048c8:	f7fe f83d 	bl	8002946 <HAL_DMA_Abort_IT>
 80048cc:	4603      	mov	r3, r0
 80048ce:	2b00      	cmp	r3, #0
 80048d0:	d016      	beq.n	8004900 <HAL_UART_IRQHandler+0x228>
 80048d2:	687b      	ldr	r3, [r7, #4]
 80048d4:	6bdb      	ldr	r3, [r3, #60]	@ 0x3c
 80048d6:	6d1b      	ldr	r3, [r3, #80]	@ 0x50
 80048d8:	687a      	ldr	r2, [r7, #4]
 80048da:	6bd2      	ldr	r2, [r2, #60]	@ 0x3c
 80048dc:	4610      	mov	r0, r2
 80048de:	4798      	blx	r3
 80048e0:	e00e      	b.n	8004900 <HAL_UART_IRQHandler+0x228>
 80048e2:	6878      	ldr	r0, [r7, #4]
 80048e4:	f000 f994 	bl	8004c10 <HAL_UART_ErrorCallback>
 80048e8:	e00a      	b.n	8004900 <HAL_UART_IRQHandler+0x228>
 80048ea:	6878      	ldr	r0, [r7, #4]
 80048ec:	f000 f990 	bl	8004c10 <HAL_UART_ErrorCallback>
 80048f0:	e006      	b.n	8004900 <HAL_UART_IRQHandler+0x228>
 80048f2:	6878      	ldr	r0, [r7, #4]
 80048f4:	f000 f98c 	bl	8004c10 <HAL_UART_ErrorCallback>
 80048f8:	687b      	ldr	r3, [r7, #4]
 80048fa:	2200      	movs	r2, #0
 80048fc:	645a      	str	r2, [r3, #68]	@ 0x44
 80048fe:	e175      	b.n	8004bec <HAL_UART_IRQHandler+0x514>
 8004900:	bf00      	nop
 8004902:	e173      	b.n	8004bec <HAL_UART_IRQHandler+0x514>
 8004904:	687b      	ldr	r3, [r7, #4]
 8004906:	6b1b      	ldr	r3, [r3, #48]	@ 0x30
 8004908:	2b01      	cmp	r3, #1
 800490a:	f040 814f 	bne.w	8004bac <HAL_UART_IRQHandler+0x4d4>
 800490e:	f8d7 30e4 	ldr.w	r3, [r7, #228]	@ 0xe4
 8004912:	f003 0310 	and.w	r3, r3, #16
 8004916:	2b00      	cmp	r3, #0
 8004918:	f000 8148 	beq.w	8004bac <HAL_UART_IRQHandler+0x4d4>
 800491c:	f8d7 30e0 	ldr.w	r3, [r7, #224]	@ 0xe0
 8004920:	f003 0310 	and.w	r3, r3, #16
 8004924:	2b00      	cmp	r3, #0
 8004926:	f000 8141 	beq.w	8004bac <HAL_UART_IRQHandler+0x4d4>
 800492a:	2300      	movs	r3, #0
 800492c:	60bb      	str	r3, [r7, #8]
 800492e:	687b      	ldr	r3, [r7, #4]
 8004930:	681b      	ldr	r3, [r3, #0]
 8004932:	681b      	ldr	r3, [r3, #0]
 8004934:	60bb      	str	r3, [r7, #8]
 8004936:	687b      	ldr	r3, [r7, #4]
 8004938:	681b      	ldr	r3, [r3, #0]
 800493a:	685b      	ldr	r3, [r3, #4]
 800493c:	60bb      	str	r3, [r7, #8]
 800493e:	68bb      	ldr	r3, [r7, #8]
 8004940:	687b      	ldr	r3, [r7, #4]
 8004942:	681b      	ldr	r3, [r3, #0]
 8004944:	695b      	ldr	r3, [r3, #20]
 8004946:	f003 0340 	and.w	r3, r3, #64	@ 0x40
 800494a:	2b40      	cmp	r3, #64	@ 0x40
 800494c:	f040 80b6 	bne.w	8004abc <HAL_UART_IRQHandler+0x3e4>
 8004950:	687b      	ldr	r3, [r7, #4]
 8004952:	6bdb      	ldr	r3, [r3, #60]	@ 0x3c
 8004954:	681b      	ldr	r3, [r3, #0]
 8004956:	685b      	ldr	r3, [r3, #4]
 8004958:	f8a7 30be 	strh.w	r3, [r7, #190]	@ 0xbe
 800495c:	f8b7 30be 	ldrh.w	r3, [r7, #190]	@ 0xbe
 8004960:	2b00      	cmp	r3, #0
 8004962:	f000 8145 	beq.w	8004bf0 <HAL_UART_IRQHandler+0x518>
 8004966:	687b      	ldr	r3, [r7, #4]
 8004968:	8d9b      	ldrh	r3, [r3, #44]	@ 0x2c
 800496a:	f8b7 20be 	ldrh.w	r2, [r7, #190]	@ 0xbe
 800496e:	429a      	cmp	r2, r3
 8004970:	f080 813e 	bcs.w	8004bf0 <HAL_UART_IRQHandler+0x518>
 8004974:	687b      	ldr	r3, [r7, #4]
 8004976:	f8b7 20be 	ldrh.w	r2, [r7, #190]	@ 0xbe
 800497a:	85da      	strh	r2, [r3, #46]	@ 0x2e
 800497c:	687b      	ldr	r3, [r7, #4]
 800497e:	6bdb      	ldr	r3, [r3, #60]	@ 0x3c
 8004980:	69db      	ldr	r3, [r3, #28]
 8004982:	f5b3 7f80 	cmp.w	r3, #256	@ 0x100
 8004986:	f000 8088 	beq.w	8004a9a <HAL_UART_IRQHandler+0x3c2>
 800498a:	687b      	ldr	r3, [r7, #4]
 800498c:	681b      	ldr	r3, [r3, #0]
 800498e:	330c      	adds	r3, #12
 8004990:	f8c7 3088 	str.w	r3, [r7, #136]	@ 0x88
 8004994:	f8d7 3088 	ldr.w	r3, [r7, #136]	@ 0x88
 8004998:	e853 3f00 	ldrex	r3, [r3]
 800499c:	f8c7 3084 	str.w	r3, [r7, #132]	@ 0x84
 80049a0:	f8d7 3084 	ldr.w	r3, [r7, #132]	@ 0x84
 80049a4:	f423 7380 	bic.w	r3, r3, #256	@ 0x100
 80049a8:	f8c7 30b8 	str.w	r3, [r7, #184]	@ 0xb8
 80049ac:	687b      	ldr	r3, [r7, #4]
 80049ae:	681b      	ldr	r3, [r3, #0]
 80049b0:	330c      	adds	r3, #12
 80049b2:	f8d7 20b8 	ldr.w	r2, [r7, #184]	@ 0xb8
 80049b6:	f8c7 2094 	str.w	r2, [r7, #148]	@ 0x94
 80049ba:	f8c7 3090 	str.w	r3, [r7, #144]	@ 0x90
 80049be:	f8d7 1090 	ldr.w	r1, [r7, #144]	@ 0x90
 80049c2:	f8d7 2094 	ldr.w	r2, [r7, #148]	@ 0x94
 80049c6:	e841 2300 	strex	r3, r2, [r1]
 80049ca:	f8c7 308c 	str.w	r3, [r7, #140]	@ 0x8c
 80049ce:	f8d7 308c 	ldr.w	r3, [r7, #140]	@ 0x8c
 80049d2:	2b00      	cmp	r3, #0
 80049d4:	d1d9      	bne.n	800498a <HAL_UART_IRQHandler+0x2b2>
 80049d6:	687b      	ldr	r3, [r7, #4]
 80049d8:	681b      	ldr	r3, [r3, #0]
 80049da:	3314      	adds	r3, #20
 80049dc:	677b      	str	r3, [r7, #116]	@ 0x74
 80049de:	6f7b      	ldr	r3, [r7, #116]	@ 0x74
 80049e0:	e853 3f00 	ldrex	r3, [r3]
 80049e4:	673b      	str	r3, [r7, #112]	@ 0x70
 80049e6:	6f3b      	ldr	r3, [r7, #112]	@ 0x70
 80049e8:	f023 0301 	bic.w	r3, r3, #1
 80049ec:	f8c7 30b4 	str.w	r3, [r7, #180]	@ 0xb4
 80049f0:	687b      	ldr	r3, [r7, #4]
 80049f2:	681b      	ldr	r3, [r3, #0]
 80049f4:	3314      	adds	r3, #20
 80049f6:	f8d7 20b4 	ldr.w	r2, [r7, #180]	@ 0xb4
 80049fa:	f8c7 2080 	str.w	r2, [r7, #128]	@ 0x80
 80049fe:	67fb      	str	r3, [r7, #124]	@ 0x7c
 8004a00:	6ff9      	ldr	r1, [r7, #124]	@ 0x7c
 8004a02:	f8d7 2080 	ldr.w	r2, [r7, #128]	@ 0x80
 8004a06:	e841 2300 	strex	r3, r2, [r1]
 8004a0a:	67bb      	str	r3, [r7, #120]	@ 0x78
 8004a0c:	6fbb      	ldr	r3, [r7, #120]	@ 0x78
 8004a0e:	2b00      	cmp	r3, #0
 8004a10:	d1e1      	bne.n	80049d6 <HAL_UART_IRQHandler+0x2fe>
 8004a12:	687b      	ldr	r3, [r7, #4]
 8004a14:	681b      	ldr	r3, [r3, #0]
 8004a16:	3314      	adds	r3, #20
 8004a18:	663b      	str	r3, [r7, #96]	@ 0x60
 8004a1a:	6e3b      	ldr	r3, [r7, #96]	@ 0x60
 8004a1c:	e853 3f00 	ldrex	r3, [r3]
 8004a20:	65fb      	str	r3, [r7, #92]	@ 0x5c
 8004a22:	6dfb      	ldr	r3, [r7, #92]	@ 0x5c
 8004a24:	f023 0340 	bic.w	r3, r3, #64	@ 0x40
 8004a28:	f8c7 30b0 	str.w	r3, [r7, #176]	@ 0xb0
 8004a2c:	687b      	ldr	r3, [r7, #4]
 8004a2e:	681b      	ldr	r3, [r3, #0]
 8004a30:	3314      	adds	r3, #20
 8004a32:	f8d7 20b0 	ldr.w	r2, [r7, #176]	@ 0xb0
 8004a36:	66fa      	str	r2, [r7, #108]	@ 0x6c
 8004a38:	66bb      	str	r3, [r7, #104]	@ 0x68
 8004a3a:	6eb9      	ldr	r1, [r7, #104]	@ 0x68
 8004a3c:	6efa      	ldr	r2, [r7, #108]	@ 0x6c
 8004a3e:	e841 2300 	strex	r3, r2, [r1]
 8004a42:	667b      	str	r3, [r7, #100]	@ 0x64
 8004a44:	6e7b      	ldr	r3, [r7, #100]	@ 0x64
 8004a46:	2b00      	cmp	r3, #0
 8004a48:	d1e3      	bne.n	8004a12 <HAL_UART_IRQHandler+0x33a>
 8004a4a:	687b      	ldr	r3, [r7, #4]
 8004a4c:	2220      	movs	r2, #32
 8004a4e:	f883 2042 	strb.w	r2, [r3, #66]	@ 0x42
 8004a52:	687b      	ldr	r3, [r7, #4]
 8004a54:	2200      	movs	r2, #0
 8004a56:	631a      	str	r2, [r3, #48]	@ 0x30
 8004a58:	687b      	ldr	r3, [r7, #4]
 8004a5a:	681b      	ldr	r3, [r3, #0]
 8004a5c:	330c      	adds	r3, #12
 8004a5e:	64fb      	str	r3, [r7, #76]	@ 0x4c
 8004a60:	6cfb      	ldr	r3, [r7, #76]	@ 0x4c
 8004a62:	e853 3f00 	ldrex	r3, [r3]
 8004a66:	64bb      	str	r3, [r7, #72]	@ 0x48
 8004a68:	6cbb      	ldr	r3, [r7, #72]	@ 0x48
 8004a6a:	f023 0310 	bic.w	r3, r3, #16
 8004a6e:	f8c7 30ac 	str.w	r3, [r7, #172]	@ 0xac
 8004a72:	687b      	ldr	r3, [r7, #4]
 8004a74:	681b      	ldr	r3, [r3, #0]
 8004a76:	330c      	adds	r3, #12
 8004a78:	f8d7 20ac 	ldr.w	r2, [r7, #172]	@ 0xac
 8004a7c:	65ba      	str	r2, [r7, #88]	@ 0x58
 8004a7e:	657b      	str	r3, [r7, #84]	@ 0x54
 8004a80:	6d79      	ldr	r1, [r7, #84]	@ 0x54
 8004a82:	6dba      	ldr	r2, [r7, #88]	@ 0x58
 8004a84:	e841 2300 	strex	r3, r2, [r1]
 8004a88:	653b      	str	r3, [r7, #80]	@ 0x50
 8004a8a:	6d3b      	ldr	r3, [r7, #80]	@ 0x50
 8004a8c:	2b00      	cmp	r3, #0
 8004a8e:	d1e3      	bne.n	8004a58 <HAL_UART_IRQHandler+0x380>
 8004a90:	687b      	ldr	r3, [r7, #4]
 8004a92:	6bdb      	ldr	r3, [r3, #60]	@ 0x3c
 8004a94:	4618      	mov	r0, r3
 8004a96:	f7fd fee6 	bl	8002866 <HAL_DMA_Abort>
 8004a9a:	687b      	ldr	r3, [r7, #4]
 8004a9c:	2202      	movs	r2, #2
 8004a9e:	635a      	str	r2, [r3, #52]	@ 0x34
 8004aa0:	687b      	ldr	r3, [r7, #4]
 8004aa2:	8d9a      	ldrh	r2, [r3, #44]	@ 0x2c
 8004aa4:	687b      	ldr	r3, [r7, #4]
 8004aa6:	8ddb      	ldrh	r3, [r3, #46]	@ 0x2e
 8004aa8:	b29b      	uxth	r3, r3
 8004aaa:	1ad3      	subs	r3, r2, r3
 8004aac:	b29b      	uxth	r3, r3
 8004aae:	4619      	mov	r1, r3
 8004ab0:	6878      	ldr	r0, [r7, #4]
 8004ab2:	f000 f8b7 	bl	8004c24 <HAL_UARTEx_RxEventCallback>
 8004ab6:	e09b      	b.n	8004bf0 <HAL_UART_IRQHandler+0x518>
 8004ab8:	08004e29 	.word	0x08004e29
 8004abc:	687b      	ldr	r3, [r7, #4]
 8004abe:	8d9a      	ldrh	r2, [r3, #44]	@ 0x2c
 8004ac0:	687b      	ldr	r3, [r7, #4]
 8004ac2:	8ddb      	ldrh	r3, [r3, #46]	@ 0x2e
 8004ac4:	b29b      	uxth	r3, r3
 8004ac6:	1ad3      	subs	r3, r2, r3
 8004ac8:	f8a7 30ce 	strh.w	r3, [r7, #206]	@ 0xce
 8004acc:	687b      	ldr	r3, [r7, #4]
 8004ace:	8ddb      	ldrh	r3, [r3, #46]	@ 0x2e
 8004ad0:	b29b      	uxth	r3, r3
 8004ad2:	2b00      	cmp	r3, #0
 8004ad4:	f000 808e 	beq.w	8004bf4 <HAL_UART_IRQHandler+0x51c>
 8004ad8:	f8b7 30ce 	ldrh.w	r3, [r7, #206]	@ 0xce
 8004adc:	2b00      	cmp	r3, #0
 8004ade:	f000 8089 	beq.w	8004bf4 <HAL_UART_IRQHandler+0x51c>
 8004ae2:	687b      	ldr	r3, [r7, #4]
 8004ae4:	681b      	ldr	r3, [r3, #0]
 8004ae6:	330c      	adds	r3, #12
 8004ae8:	63bb      	str	r3, [r7, #56]	@ 0x38
 8004aea:	6bbb      	ldr	r3, [r7, #56]	@ 0x38
 8004aec:	e853 3f00 	ldrex	r3, [r3]
 8004af0:	637b      	str	r3, [r7, #52]	@ 0x34
 8004af2:	6b7b      	ldr	r3, [r7, #52]	@ 0x34
 8004af4:	f423 7390 	bic.w	r3, r3, #288	@ 0x120
 8004af8:	f8c7 30c8 	str.w	r3, [r7, #200]	@ 0xc8
 8004afc:	687b      	ldr	r3, [r7, #4]
 8004afe:	681b      	ldr	r3, [r3, #0]
 8004b00:	330c      	adds	r3, #12
 8004b02:	f8d7 20c8 	ldr.w	r2, [r7, #200]	@ 0xc8
 8004b06:	647a      	str	r2, [r7, #68]	@ 0x44
 8004b08:	643b      	str	r3, [r7, #64]	@ 0x40
 8004b0a:	6c39      	ldr	r1, [r7, #64]	@ 0x40
 8004b0c:	6c7a      	ldr	r2, [r7, #68]	@ 0x44
 8004b0e:	e841 2300 	strex	r3, r2, [r1]
 8004b12:	63fb      	str	r3, [r7, #60]	@ 0x3c
 8004b14:	6bfb      	ldr	r3, [r7, #60]	@ 0x3c
 8004b16:	2b00      	cmp	r3, #0
 8004b18:	d1e3      	bne.n	8004ae2 <HAL_UART_IRQHandler+0x40a>
 8004b1a:	687b      	ldr	r3, [r7, #4]
 8004b1c:	681b      	ldr	r3, [r3, #0]
 8004b1e:	3314      	adds	r3, #20
 8004b20:	627b      	str	r3, [r7, #36]	@ 0x24
 8004b22:	6a7b      	ldr	r3, [r7, #36]	@ 0x24
 8004b24:	e853 3f00 	ldrex	r3, [r3]
 8004b28:	623b      	str	r3, [r7, #32]
 8004b2a:	6a3b      	ldr	r3, [r7, #32]
 8004b2c:	f023 0301 	bic.w	r3, r3, #1
 8004b30:	f8c7 30c4 	str.w	r3, [r7, #196]	@ 0xc4
 8004b34:	687b      	ldr	r3, [r7, #4]
 8004b36:	681b      	ldr	r3, [r3, #0]
 8004b38:	3314      	adds	r3, #20
 8004b3a:	f8d7 20c4 	ldr.w	r2, [r7, #196]	@ 0xc4
 8004b3e:	633a      	str	r2, [r7, #48]	@ 0x30
 8004b40:	62fb      	str	r3, [r7, #44]	@ 0x2c
 8004b42:	6af9      	ldr	r1, [r7, #44]	@ 0x2c
 8004b44:	6b3a      	ldr	r2, [r7, #48]	@ 0x30
 8004b46:	e841 2300 	strex	r3, r2, [r1]
 8004b4a:	62bb      	str	r3, [r7, #40]	@ 0x28
 8004b4c:	6abb      	ldr	r3, [r7, #40]	@ 0x28
 8004b4e:	2b00      	cmp	r3, #0
 8004b50:	d1e3      	bne.n	8004b1a <HAL_UART_IRQHandler+0x442>
 8004b52:	687b      	ldr	r3, [r7, #4]
 8004b54:	2220      	movs	r2, #32
 8004b56:	f883 2042 	strb.w	r2, [r3, #66]	@ 0x42
 8004b5a:	687b      	ldr	r3, [r7, #4]
 8004b5c:	2200      	movs	r2, #0
 8004b5e:	631a      	str	r2, [r3, #48]	@ 0x30
 8004b60:	687b      	ldr	r3, [r7, #4]
 8004b62:	681b      	ldr	r3, [r3, #0]
 8004b64:	330c      	adds	r3, #12
 8004b66:	613b      	str	r3, [r7, #16]
 8004b68:	693b      	ldr	r3, [r7, #16]
 8004b6a:	e853 3f00 	ldrex	r3, [r3]
 8004b6e:	60fb      	str	r3, [r7, #12]
 8004b70:	68fb      	ldr	r3, [r7, #12]
 8004b72:	f023 0310 	bic.w	r3, r3, #16
 8004b76:	f8c7 30c0 	str.w	r3, [r7, #192]	@ 0xc0
 8004b7a:	687b      	ldr	r3, [r7, #4]
 8004b7c:	681b      	ldr	r3, [r3, #0]
 8004b7e:	330c      	adds	r3, #12
 8004b80:	f8d7 20c0 	ldr.w	r2, [r7, #192]	@ 0xc0
 8004b84:	61fa      	str	r2, [r7, #28]
 8004b86:	61bb      	str	r3, [r7, #24]
 8004b88:	69b9      	ldr	r1, [r7, #24]
 8004b8a:	69fa      	ldr	r2, [r7, #28]
 8004b8c:	e841 2300 	strex	r3, r2, [r1]
 8004b90:	617b      	str	r3, [r7, #20]
 8004b92:	697b      	ldr	r3, [r7, #20]
 8004b94:	2b00      	cmp	r3, #0
 8004b96:	d1e3      	bne.n	8004b60 <HAL_UART_IRQHandler+0x488>
 8004b98:	687b      	ldr	r3, [r7, #4]
 8004b9a:	2202      	movs	r2, #2
 8004b9c:	635a      	str	r2, [r3, #52]	@ 0x34
 8004b9e:	f8b7 30ce 	ldrh.w	r3, [r7, #206]	@ 0xce
 8004ba2:	4619      	mov	r1, r3
 8004ba4:	6878      	ldr	r0, [r7, #4]
 8004ba6:	f000 f83d 	bl	8004c24 <HAL_UARTEx_RxEventCallback>
 8004baa:	e023      	b.n	8004bf4 <HAL_UART_IRQHandler+0x51c>
 8004bac:	f8d7 30e4 	ldr.w	r3, [r7, #228]	@ 0xe4
 8004bb0:	f003 0380 	and.w	r3, r3, #128	@ 0x80
 8004bb4:	2b00      	cmp	r3, #0
 8004bb6:	d009      	beq.n	8004bcc <HAL_UART_IRQHandler+0x4f4>
 8004bb8:	f8d7 30e0 	ldr.w	r3, [r7, #224]	@ 0xe0
 8004bbc:	f003 0380 	and.w	r3, r3, #128	@ 0x80
 8004bc0:	2b00      	cmp	r3, #0
 8004bc2:	d003      	beq.n	8004bcc <HAL_UART_IRQHandler+0x4f4>
 8004bc4:	6878      	ldr	r0, [r7, #4]
 8004bc6:	f000 f943 	bl	8004e50 <UART_Transmit_IT>
 8004bca:	e014      	b.n	8004bf6 <HAL_UART_IRQHandler+0x51e>
 8004bcc:	f8d7 30e4 	ldr.w	r3, [r7, #228]	@ 0xe4
 8004bd0:	f003 0340 	and.w	r3, r3, #64	@ 0x40
 8004bd4:	2b00      	cmp	r3, #0
 8004bd6:	d00e      	beq.n	8004bf6 <HAL_UART_IRQHandler+0x51e>
 8004bd8:	f8d7 30e0 	ldr.w	r3, [r7, #224]	@ 0xe0
 8004bdc:	f003 0340 	and.w	r3, r3, #64	@ 0x40
 8004be0:	2b00      	cmp	r3, #0
 8004be2:	d008      	beq.n	8004bf6 <HAL_UART_IRQHandler+0x51e>
 8004be4:	6878      	ldr	r0, [r7, #4]
 8004be6:	f000 f983 	bl	8004ef0 <UART_EndTransmit_IT>
 8004bea:	e004      	b.n	8004bf6 <HAL_UART_IRQHandler+0x51e>
 8004bec:	bf00      	nop
 8004bee:	e002      	b.n	8004bf6 <HAL_UART_IRQHandler+0x51e>
 8004bf0:	bf00      	nop
 8004bf2:	e000      	b.n	8004bf6 <HAL_UART_IRQHandler+0x51e>
 8004bf4:	bf00      	nop
 8004bf6:	37e8      	adds	r7, #232	@ 0xe8
 8004bf8:	46bd      	mov	sp, r7
 8004bfa:	bd80      	pop	{r7, pc}

08004bfc <HAL_UART_TxCpltCallback>:
 8004bfc:	b480      	push	{r7}
 8004bfe:	b083      	sub	sp, #12
 8004c00:	af00      	add	r7, sp, #0
 8004c02:	6078      	str	r0, [r7, #4]
 8004c04:	bf00      	nop
 8004c06:	370c      	adds	r7, #12
 8004c08:	46bd      	mov	sp, r7
 8004c0a:	f85d 7b04 	ldr.w	r7, [sp], #4
 8004c0e:	4770      	bx	lr

08004c10 <HAL_UART_ErrorCallback>:
 8004c10:	b480      	push	{r7}
 8004c12:	b083      	sub	sp, #12
 8004c14:	af00      	add	r7, sp, #0
 8004c16:	6078      	str	r0, [r7, #4]
 8004c18:	bf00      	nop
 8004c1a:	370c      	adds	r7, #12
 8004c1c:	46bd      	mov	sp, r7
 8004c1e:	f85d 7b04 	ldr.w	r7, [sp], #4
 8004c22:	4770      	bx	lr

08004c24 <HAL_UARTEx_RxEventCallback>:
 8004c24:	b480      	push	{r7}
 8004c26:	b083      	sub	sp, #12
 8004c28:	af00      	add	r7, sp, #0
 8004c2a:	6078      	str	r0, [r7, #4]
 8004c2c:	460b      	mov	r3, r1
 8004c2e:	807b      	strh	r3, [r7, #2]
 8004c30:	bf00      	nop
 8004c32:	370c      	adds	r7, #12
 8004c34:	46bd      	mov	sp, r7
 8004c36:	f85d 7b04 	ldr.w	r7, [sp], #4
 8004c3a:	4770      	bx	lr

08004c3c <UART_WaitOnFlagUntilTimeout>:
 8004c3c:	b580      	push	{r7, lr}
 8004c3e:	b086      	sub	sp, #24
 8004c40:	af00      	add	r7, sp, #0
 8004c42:	60f8      	str	r0, [r7, #12]
 8004c44:	60b9      	str	r1, [r7, #8]
 8004c46:	603b      	str	r3, [r7, #0]
 8004c48:	4613      	mov	r3, r2
 8004c4a:	71fb      	strb	r3, [r7, #7]
 8004c4c:	e03b      	b.n	8004cc6 <UART_WaitOnFlagUntilTimeout+0x8a>
 8004c4e:	6a3b      	ldr	r3, [r7, #32]
 8004c50:	f1b3 3fff 	cmp.w	r3, #4294967295
 8004c54:	d037      	beq.n	8004cc6 <UART_WaitOnFlagUntilTimeout+0x8a>
 8004c56:	f7fd fa63 	bl	8002120 <HAL_GetTick>
 8004c5a:	4602      	mov	r2, r0
 8004c5c:	683b      	ldr	r3, [r7, #0]
 8004c5e:	1ad3      	subs	r3, r2, r3
 8004c60:	6a3a      	ldr	r2, [r7, #32]
 8004c62:	429a      	cmp	r2, r3
 8004c64:	d302      	bcc.n	8004c6c <UART_WaitOnFlagUntilTimeout+0x30>
 8004c66:	6a3b      	ldr	r3, [r7, #32]
 8004c68:	2b00      	cmp	r3, #0
 8004c6a:	d101      	bne.n	8004c70 <UART_WaitOnFlagUntilTimeout+0x34>
 8004c6c:	2303      	movs	r3, #3
 8004c6e:	e03a      	b.n	8004ce6 <UART_WaitOnFlagUntilTimeout+0xaa>
 8004c70:	68fb      	ldr	r3, [r7, #12]
 8004c72:	681b      	ldr	r3, [r3, #0]
 8004c74:	68db      	ldr	r3, [r3, #12]
 8004c76:	f003 0304 	and.w	r3, r3, #4
 8004c7a:	2b00      	cmp	r3, #0
 8004c7c:	d023      	beq.n	8004cc6 <UART_WaitOnFlagUntilTimeout+0x8a>
 8004c7e:	68bb      	ldr	r3, [r7, #8]
 8004c80:	2b80      	cmp	r3, #128	@ 0x80
 8004c82:	d020      	beq.n	8004cc6 <UART_WaitOnFlagUntilTimeout+0x8a>
 8004c84:	68bb      	ldr	r3, [r7, #8]
 8004c86:	2b40      	cmp	r3, #64	@ 0x40
 8004c88:	d01d      	beq.n	8004cc6 <UART_WaitOnFlagUntilTimeout+0x8a>
 8004c8a:	68fb      	ldr	r3, [r7, #12]
 8004c8c:	681b      	ldr	r3, [r3, #0]
 8004c8e:	681b      	ldr	r3, [r3, #0]
 8004c90:	f003 0308 	and.w	r3, r3, #8
 8004c94:	2b08      	cmp	r3, #8
 8004c96:	d116      	bne.n	8004cc6 <UART_WaitOnFlagUntilTimeout+0x8a>
 8004c98:	2300      	movs	r3, #0
 8004c9a:	617b      	str	r3, [r7, #20]
 8004c9c:	68fb      	ldr	r3, [r7, #12]
 8004c9e:	681b      	ldr	r3, [r3, #0]
 8004ca0:	681b      	ldr	r3, [r3, #0]
 8004ca2:	617b      	str	r3, [r7, #20]
 8004ca4:	68fb      	ldr	r3, [r7, #12]
 8004ca6:	681b      	ldr	r3, [r3, #0]
 8004ca8:	685b      	ldr	r3, [r3, #4]
 8004caa:	617b      	str	r3, [r7, #20]
 8004cac:	697b      	ldr	r3, [r7, #20]
 8004cae:	68f8      	ldr	r0, [r7, #12]
 8004cb0:	f000 f857 	bl	8004d62 <UART_EndRxTransfer>
 8004cb4:	68fb      	ldr	r3, [r7, #12]
 8004cb6:	2208      	movs	r2, #8
 8004cb8:	645a      	str	r2, [r3, #68]	@ 0x44
 8004cba:	68fb      	ldr	r3, [r7, #12]
 8004cbc:	2200      	movs	r2, #0
 8004cbe:	f883 2040 	strb.w	r2, [r3, #64]	@ 0x40
 8004cc2:	2301      	movs	r3, #1
 8004cc4:	e00f      	b.n	8004ce6 <UART_WaitOnFlagUntilTimeout+0xaa>
 8004cc6:	68fb      	ldr	r3, [r7, #12]
 8004cc8:	681b      	ldr	r3, [r3, #0]
 8004cca:	681a      	ldr	r2, [r3, #0]
 8004ccc:	68bb      	ldr	r3, [r7, #8]
 8004cce:	4013      	ands	r3, r2
 8004cd0:	68ba      	ldr	r2, [r7, #8]
 8004cd2:	429a      	cmp	r2, r3
 8004cd4:	bf0c      	ite	eq
 8004cd6:	2301      	moveq	r3, #1
 8004cd8:	2300      	movne	r3, #0
 8004cda:	b2db      	uxtb	r3, r3
 8004cdc:	461a      	mov	r2, r3
 8004cde:	79fb      	ldrb	r3, [r7, #7]
 8004ce0:	429a      	cmp	r2, r3
 8004ce2:	d0b4      	beq.n	8004c4e <UART_WaitOnFlagUntilTimeout+0x12>
 8004ce4:	2300      	movs	r3, #0
 8004ce6:	4618      	mov	r0, r3
 8004ce8:	3718      	adds	r7, #24
 8004cea:	46bd      	mov	sp, r7
 8004cec:	bd80      	pop	{r7, pc}

08004cee <UART_Start_Receive_IT>:
 8004cee:	b480      	push	{r7}
 8004cf0:	b085      	sub	sp, #20
 8004cf2:	af00      	add	r7, sp, #0
 8004cf4:	60f8      	str	r0, [r7, #12]
 8004cf6:	60b9      	str	r1, [r7, #8]
 8004cf8:	4613      	mov	r3, r2
 8004cfa:	80fb      	strh	r3, [r7, #6]
 8004cfc:	68fb      	ldr	r3, [r7, #12]
 8004cfe:	68ba      	ldr	r2, [r7, #8]
 8004d00:	629a      	str	r2, [r3, #40]	@ 0x28
 8004d02:	68fb      	ldr	r3, [r7, #12]
 8004d04:	88fa      	ldrh	r2, [r7, #6]
 8004d06:	859a      	strh	r2, [r3, #44]	@ 0x2c
 8004d08:	68fb      	ldr	r3, [r7, #12]
 8004d0a:	88fa      	ldrh	r2, [r7, #6]
 8004d0c:	85da      	strh	r2, [r3, #46]	@ 0x2e
 8004d0e:	68fb      	ldr	r3, [r7, #12]
 8004d10:	2200      	movs	r2, #0
 8004d12:	645a      	str	r2, [r3, #68]	@ 0x44
 8004d14:	68fb      	ldr	r3, [r7, #12]
 8004d16:	2222      	movs	r2, #34	@ 0x22
 8004d18:	f883 2042 	strb.w	r2, [r3, #66]	@ 0x42
 8004d1c:	68fb      	ldr	r3, [r7, #12]
 8004d1e:	691b      	ldr	r3, [r3, #16]
 8004d20:	2b00      	cmp	r3, #0
 8004d22:	d007      	beq.n	8004d34 <UART_Start_Receive_IT+0x46>
 8004d24:	68fb      	ldr	r3, [r7, #12]
 8004d26:	681b      	ldr	r3, [r3, #0]
 8004d28:	68da      	ldr	r2, [r3, #12]
 8004d2a:	68fb      	ldr	r3, [r7, #12]
 8004d2c:	681b      	ldr	r3, [r3, #0]
 8004d2e:	f442 7280 	orr.w	r2, r2, #256	@ 0x100
 8004d32:	60da      	str	r2, [r3, #12]
 8004d34:	68fb      	ldr	r3, [r7, #12]
 8004d36:	681b      	ldr	r3, [r3, #0]
 8004d38:	695a      	ldr	r2, [r3, #20]
 8004d3a:	68fb      	ldr	r3, [r7, #12]
 8004d3c:	681b      	ldr	r3, [r3, #0]
 8004d3e:	f042 0201 	orr.w	r2, r2, #1
 8004d42:	615a      	str	r2, [r3, #20]
 8004d44:	68fb      	ldr	r3, [r7, #12]
 8004d46:	681b      	ldr	r3, [r3, #0]
 8004d48:	68da      	ldr	r2, [r3, #12]
 8004d4a:	68fb      	ldr	r3, [r7, #12]
 8004d4c:	681b      	ldr	r3, [r3, #0]
 8004d4e:	f042 0220 	orr.w	r2, r2, #32
 8004d52:	60da      	str	r2, [r3, #12]
 8004d54:	2300      	movs	r3, #0
 8004d56:	4618      	mov	r0, r3
 8004d58:	3714      	adds	r7, #20
 8004d5a:	46bd      	mov	sp, r7
 8004d5c:	f85d 7b04 	ldr.w	r7, [sp], #4
 8004d60:	4770      	bx	lr

08004d62 <UART_EndRxTransfer>:
 8004d62:	b480      	push	{r7}
 8004d64:	b095      	sub	sp, #84	@ 0x54
 8004d66:	af00      	add	r7, sp, #0
 8004d68:	6078      	str	r0, [r7, #4]
 8004d6a:	687b      	ldr	r3, [r7, #4]
 8004d6c:	681b      	ldr	r3, [r3, #0]
 8004d6e:	330c      	adds	r3, #12
 8004d70:	637b      	str	r3, [r7, #52]	@ 0x34
 8004d72:	6b7b      	ldr	r3, [r7, #52]	@ 0x34
 8004d74:	e853 3f00 	ldrex	r3, [r3]
 8004d78:	633b      	str	r3, [r7, #48]	@ 0x30
 8004d7a:	6b3b      	ldr	r3, [r7, #48]	@ 0x30
 8004d7c:	f423 7390 	bic.w	r3, r3, #288	@ 0x120
 8004d80:	64fb      	str	r3, [r7, #76]	@ 0x4c
 8004d82:	687b      	ldr	r3, [r7, #4]
 8004d84:	681b      	ldr	r3, [r3, #0]
 8004d86:	330c      	adds	r3, #12
 8004d88:	6cfa      	ldr	r2, [r7, #76]	@ 0x4c
 8004d8a:	643a      	str	r2, [r7, #64]	@ 0x40
 8004d8c:	63fb      	str	r3, [r7, #60]	@ 0x3c
 8004d8e:	6bf9      	ldr	r1, [r7, #60]	@ 0x3c
 8004d90:	6c3a      	ldr	r2, [r7, #64]	@ 0x40
 8004d92:	e841 2300 	strex	r3, r2, [r1]
 8004d96:	63bb      	str	r3, [r7, #56]	@ 0x38
 8004d98:	6bbb      	ldr	r3, [r7, #56]	@ 0x38
 8004d9a:	2b00      	cmp	r3, #0
 8004d9c:	d1e5      	bne.n	8004d6a <UART_EndRxTransfer+0x8>
 8004d9e:	687b      	ldr	r3, [r7, #4]
 8004da0:	681b      	ldr	r3, [r3, #0]
 8004da2:	3314      	adds	r3, #20
 8004da4:	623b      	str	r3, [r7, #32]
 8004da6:	6a3b      	ldr	r3, [r7, #32]
 8004da8:	e853 3f00 	ldrex	r3, [r3]
 8004dac:	61fb      	str	r3, [r7, #28]
 8004dae:	69fb      	ldr	r3, [r7, #28]
 8004db0:	f023 0301 	bic.w	r3, r3, #1
 8004db4:	64bb      	str	r3, [r7, #72]	@ 0x48
 8004db6:	687b      	ldr	r3, [r7, #4]
 8004db8:	681b      	ldr	r3, [r3, #0]
 8004dba:	3314      	adds	r3, #20
 8004dbc:	6cba      	ldr	r2, [r7, #72]	@ 0x48
 8004dbe:	62fa      	str	r2, [r7, #44]	@ 0x2c
 8004dc0:	62bb      	str	r3, [r7, #40]	@ 0x28
 8004dc2:	6ab9      	ldr	r1, [r7, #40]	@ 0x28
 8004dc4:	6afa      	ldr	r2, [r7, #44]	@ 0x2c
 8004dc6:	e841 2300 	strex	r3, r2, [r1]
 8004dca:	627b      	str	r3, [r7, #36]	@ 0x24
 8004dcc:	6a7b      	ldr	r3, [r7, #36]	@ 0x24
 8004dce:	2b00      	cmp	r3, #0
 8004dd0:	d1e5      	bne.n	8004d9e <UART_EndRxTransfer+0x3c>
 8004dd2:	687b      	ldr	r3, [r7, #4]
 8004dd4:	6b1b      	ldr	r3, [r3, #48]	@ 0x30
 8004dd6:	2b01      	cmp	r3, #1
 8004dd8:	d119      	bne.n	8004e0e <UART_EndRxTransfer+0xac>
 8004dda:	687b      	ldr	r3, [r7, #4]
 8004ddc:	681b      	ldr	r3, [r3, #0]
 8004dde:	330c      	adds	r3, #12
 8004de0:	60fb      	str	r3, [r7, #12]
 8004de2:	68fb      	ldr	r3, [r7, #12]
 8004de4:	e853 3f00 	ldrex	r3, [r3]
 8004de8:	60bb      	str	r3, [r7, #8]
 8004dea:	68bb      	ldr	r3, [r7, #8]
 8004dec:	f023 0310 	bic.w	r3, r3, #16
 8004df0:	647b      	str	r3, [r7, #68]	@ 0x44
 8004df2:	687b      	ldr	r3, [r7, #4]
 8004df4:	681b      	ldr	r3, [r3, #0]
 8004df6:	330c      	adds	r3, #12
 8004df8:	6c7a      	ldr	r2, [r7, #68]	@ 0x44
 8004dfa:	61ba      	str	r2, [r7, #24]
 8004dfc:	617b      	str	r3, [r7, #20]
 8004dfe:	6979      	ldr	r1, [r7, #20]
 8004e00:	69ba      	ldr	r2, [r7, #24]
 8004e02:	e841 2300 	strex	r3, r2, [r1]
 8004e06:	613b      	str	r3, [r7, #16]
 8004e08:	693b      	ldr	r3, [r7, #16]
 8004e0a:	2b00      	cmp	r3, #0
 8004e0c:	d1e5      	bne.n	8004dda <UART_EndRxTransfer+0x78>
 8004e0e:	687b      	ldr	r3, [r7, #4]
 8004e10:	2220      	movs	r2, #32
 8004e12:	f883 2042 	strb.w	r2, [r3, #66]	@ 0x42
 8004e16:	687b      	ldr	r3, [r7, #4]
 8004e18:	2200      	movs	r2, #0
 8004e1a:	631a      	str	r2, [r3, #48]	@ 0x30
 8004e1c:	bf00      	nop
 8004e1e:	3754      	adds	r7, #84	@ 0x54
 8004e20:	46bd      	mov	sp, r7
 8004e22:	f85d 7b04 	ldr.w	r7, [sp], #4
 8004e26:	4770      	bx	lr

08004e28 <UART_DMAAbortOnError>:
 8004e28:	b580      	push	{r7, lr}
 8004e2a:	b084      	sub	sp, #16
 8004e2c:	af00      	add	r7, sp, #0
 8004e2e:	6078      	str	r0, [r7, #4]
 8004e30:	687b      	ldr	r3, [r7, #4]
 8004e32:	6b9b      	ldr	r3, [r3, #56]	@ 0x38
 8004e34:	60fb      	str	r3, [r7, #12]
 8004e36:	68fb      	ldr	r3, [r7, #12]
 8004e38:	2200      	movs	r2, #0
 8004e3a:	85da      	strh	r2, [r3, #46]	@ 0x2e
 8004e3c:	68fb      	ldr	r3, [r7, #12]
 8004e3e:	2200      	movs	r2, #0
 8004e40:	84da      	strh	r2, [r3, #38]	@ 0x26
 8004e42:	68f8      	ldr	r0, [r7, #12]
 8004e44:	f7ff fee4 	bl	8004c10 <HAL_UART_ErrorCallback>
 8004e48:	bf00      	nop
 8004e4a:	3710      	adds	r7, #16
 8004e4c:	46bd      	mov	sp, r7
 8004e4e:	bd80      	pop	{r7, pc}

08004e50 <UART_Transmit_IT>:
 8004e50:	b480      	push	{r7}
 8004e52:	b085      	sub	sp, #20
 8004e54:	af00      	add	r7, sp, #0
 8004e56:	6078      	str	r0, [r7, #4]
 8004e58:	687b      	ldr	r3, [r7, #4]
 8004e5a:	f893 3041 	ldrb.w	r3, [r3, #65]	@ 0x41
 8004e5e:	b2db      	uxtb	r3, r3
 8004e60:	2b21      	cmp	r3, #33	@ 0x21
 8004e62:	d13e      	bne.n	8004ee2 <UART_Transmit_IT+0x92>
 8004e64:	687b      	ldr	r3, [r7, #4]
 8004e66:	689b      	ldr	r3, [r3, #8]
 8004e68:	f5b3 5f80 	cmp.w	r3, #4096	@ 0x1000
 8004e6c:	d114      	bne.n	8004e98 <UART_Transmit_IT+0x48>
 8004e6e:	687b      	ldr	r3, [r7, #4]
 8004e70:	691b      	ldr	r3, [r3, #16]
 8004e72:	2b00      	cmp	r3, #0
 8004e74:	d110      	bne.n	8004e98 <UART_Transmit_IT+0x48>
 8004e76:	687b      	ldr	r3, [r7, #4]
 8004e78:	6a1b      	ldr	r3, [r3, #32]
 8004e7a:	60fb      	str	r3, [r7, #12]
 8004e7c:	68fb      	ldr	r3, [r7, #12]
 8004e7e:	881b      	ldrh	r3, [r3, #0]
 8004e80:	461a      	mov	r2, r3
 8004e82:	687b      	ldr	r3, [r7, #4]
 8004e84:	681b      	ldr	r3, [r3, #0]
 8004e86:	f3c2 0208 	ubfx	r2, r2, #0, #9
 8004e8a:	605a      	str	r2, [r3, #4]
 8004e8c:	687b      	ldr	r3, [r7, #4]
 8004e8e:	6a1b      	ldr	r3, [r3, #32]
 8004e90:	1c9a      	adds	r2, r3, #2
 8004e92:	687b      	ldr	r3, [r7, #4]
 8004e94:	621a      	str	r2, [r3, #32]
 8004e96:	e008      	b.n	8004eaa <UART_Transmit_IT+0x5a>
 8004e98:	687b      	ldr	r3, [r7, #4]
 8004e9a:	6a1b      	ldr	r3, [r3, #32]
 8004e9c:	1c59      	adds	r1, r3, #1
 8004e9e:	687a      	ldr	r2, [r7, #4]
 8004ea0:	6211      	str	r1, [r2, #32]
 8004ea2:	781a      	ldrb	r2, [r3, #0]
 8004ea4:	687b      	ldr	r3, [r7, #4]
 8004ea6:	681b      	ldr	r3, [r3, #0]
 8004ea8:	605a      	str	r2, [r3, #4]
 8004eaa:	687b      	ldr	r3, [r7, #4]
 8004eac:	8cdb      	ldrh	r3, [r3, #38]	@ 0x26
 8004eae:	b29b      	uxth	r3, r3
 8004eb0:	3b01      	subs	r3, #1
 8004eb2:	b29b      	uxth	r3, r3
 8004eb4:	687a      	ldr	r2, [r7, #4]
 8004eb6:	4619      	mov	r1, r3
 8004eb8:	84d1      	strh	r1, [r2, #38]	@ 0x26
 8004eba:	2b00      	cmp	r3, #0
 8004ebc:	d10f      	bne.n	8004ede <UART_Transmit_IT+0x8e>
 8004ebe:	687b      	ldr	r3, [r7, #4]
 8004ec0:	681b      	ldr	r3, [r3, #0]
 8004ec2:	68da      	ldr	r2, [r3, #12]
 8004ec4:	687b      	ldr	r3, [r7, #4]
 8004ec6:	681b      	ldr	r3, [r3, #0]
 8004ec8:	f022 0280 	bic.w	r2, r2, #128	@ 0x80
 8004ecc:	60da      	str	r2, [r3, #12]
 8004ece:	687b      	ldr	r3, [r7, #4]
 8004ed0:	681b      	ldr	r3, [r3, #0]
 8004ed2:	68da      	ldr	r2, [r3, #12]
 8004ed4:	687b      	ldr	r3, [r7, #4]
 8004ed6:	681b      	ldr	r3, [r3, #0]
 8004ed8:	f042 0240 	orr.w	r2, r2, #64	@ 0x40
 8004edc:	60da      	str	r2, [r3, #12]
 8004ede:	2300      	movs	r3, #0
 8004ee0:	e000      	b.n	8004ee4 <UART_Transmit_IT+0x94>
 8004ee2:	2302      	movs	r3, #2
 8004ee4:	4618      	mov	r0, r3
 8004ee6:	3714      	adds	r7, #20
 8004ee8:	46bd      	mov	sp, r7
 8004eea:	f85d 7b04 	ldr.w	r7, [sp], #4
 8004eee:	4770      	bx	lr

08004ef0 <UART_EndTransmit_IT>:
 8004ef0:	b580      	push	{r7, lr}
 8004ef2:	b082      	sub	sp, #8
 8004ef4:	af00      	add	r7, sp, #0
 8004ef6:	6078      	str	r0, [r7, #4]
 8004ef8:	687b      	ldr	r3, [r7, #4]
 8004efa:	681b      	ldr	r3, [r3, #0]
 8004efc:	68da      	ldr	r2, [r3, #12]
 8004efe:	687b      	ldr	r3, [r7, #4]
 8004f00:	681b      	ldr	r3, [r3, #0]
 8004f02:	f022 0240 	bic.w	r2, r2, #64	@ 0x40
 8004f06:	60da      	str	r2, [r3, #12]
 8004f08:	687b      	ldr	r3, [r7, #4]
 8004f0a:	2220      	movs	r2, #32
 8004f0c:	f883 2041 	strb.w	r2, [r3, #65]	@ 0x41
 8004f10:	6878      	ldr	r0, [r7, #4]
 8004f12:	f7ff fe73 	bl	8004bfc <HAL_UART_TxCpltCallback>
 8004f16:	2300      	movs	r3, #0
 8004f18:	4618      	mov	r0, r3
 8004f1a:	3708      	adds	r7, #8
 8004f1c:	46bd      	mov	sp, r7
 8004f1e:	bd80      	pop	{r7, pc}

08004f20 <UART_Receive_IT>:
 8004f20:	b580      	push	{r7, lr}
 8004f22:	b08c      	sub	sp, #48	@ 0x30
 8004f24:	af00      	add	r7, sp, #0
 8004f26:	6078      	str	r0, [r7, #4]
 8004f28:	687b      	ldr	r3, [r7, #4]
 8004f2a:	f893 3042 	ldrb.w	r3, [r3, #66]	@ 0x42
 8004f2e:	b2db      	uxtb	r3, r3
 8004f30:	2b22      	cmp	r3, #34	@ 0x22
 8004f32:	f040 80ae 	bne.w	8005092 <UART_Receive_IT+0x172>
 8004f36:	687b      	ldr	r3, [r7, #4]
 8004f38:	689b      	ldr	r3, [r3, #8]
 8004f3a:	f5b3 5f80 	cmp.w	r3, #4096	@ 0x1000
 8004f3e:	d117      	bne.n	8004f70 <UART_Receive_IT+0x50>
 8004f40:	687b      	ldr	r3, [r7, #4]
 8004f42:	691b      	ldr	r3, [r3, #16]
 8004f44:	2b00      	cmp	r3, #0
 8004f46:	d113      	bne.n	8004f70 <UART_Receive_IT+0x50>
 8004f48:	2300      	movs	r3, #0
 8004f4a:	62fb      	str	r3, [r7, #44]	@ 0x2c
 8004f4c:	687b      	ldr	r3, [r7, #4]
 8004f4e:	6a9b      	ldr	r3, [r3, #40]	@ 0x28
 8004f50:	62bb      	str	r3, [r7, #40]	@ 0x28
 8004f52:	687b      	ldr	r3, [r7, #4]
 8004f54:	681b      	ldr	r3, [r3, #0]
 8004f56:	685b      	ldr	r3, [r3, #4]
 8004f58:	b29b      	uxth	r3, r3
 8004f5a:	f3c3 0308 	ubfx	r3, r3, #0, #9
 8004f5e:	b29a      	uxth	r2, r3
 8004f60:	6abb      	ldr	r3, [r7, #40]	@ 0x28
 8004f62:	801a      	strh	r2, [r3, #0]
 8004f64:	687b      	ldr	r3, [r7, #4]
 8004f66:	6a9b      	ldr	r3, [r3, #40]	@ 0x28
 8004f68:	1c9a      	adds	r2, r3, #2
 8004f6a:	687b      	ldr	r3, [r7, #4]
 8004f6c:	629a      	str	r2, [r3, #40]	@ 0x28
 8004f6e:	e026      	b.n	8004fbe <UART_Receive_IT+0x9e>
 8004f70:	687b      	ldr	r3, [r7, #4]
 8004f72:	6a9b      	ldr	r3, [r3, #40]	@ 0x28
 8004f74:	62fb      	str	r3, [r7, #44]	@ 0x2c
 8004f76:	2300      	movs	r3, #0
 8004f78:	62bb      	str	r3, [r7, #40]	@ 0x28
 8004f7a:	687b      	ldr	r3, [r7, #4]
 8004f7c:	689b      	ldr	r3, [r3, #8]
 8004f7e:	f5b3 5f80 	cmp.w	r3, #4096	@ 0x1000
 8004f82:	d007      	beq.n	8004f94 <UART_Receive_IT+0x74>
 8004f84:	687b      	ldr	r3, [r7, #4]
 8004f86:	689b      	ldr	r3, [r3, #8]
 8004f88:	2b00      	cmp	r3, #0
 8004f8a:	d10a      	bne.n	8004fa2 <UART_Receive_IT+0x82>
 8004f8c:	687b      	ldr	r3, [r7, #4]
 8004f8e:	691b      	ldr	r3, [r3, #16]
 8004f90:	2b00      	cmp	r3, #0
 8004f92:	d106      	bne.n	8004fa2 <UART_Receive_IT+0x82>
 8004f94:	687b      	ldr	r3, [r7, #4]
 8004f96:	681b      	ldr	r3, [r3, #0]
 8004f98:	685b      	ldr	r3, [r3, #4]
 8004f9a:	b2da      	uxtb	r2, r3
 8004f9c:	6afb      	ldr	r3, [r7, #44]	@ 0x2c
 8004f9e:	701a      	strb	r2, [r3, #0]
 8004fa0:	e008      	b.n	8004fb4 <UART_Receive_IT+0x94>
 8004fa2:	687b      	ldr	r3, [r7, #4]
 8004fa4:	681b      	ldr	r3, [r3, #0]
 8004fa6:	685b      	ldr	r3, [r3, #4]
 8004fa8:	b2db      	uxtb	r3, r3
 8004faa:	f003 037f 	and.w	r3, r3, #127	@ 0x7f
 8004fae:	b2da      	uxtb	r2, r3
 8004fb0:	6afb      	ldr	r3, [r7, #44]	@ 0x2c
 8004fb2:	701a      	strb	r2, [r3, #0]
 8004fb4:	687b      	ldr	r3, [r7, #4]
 8004fb6:	6a9b      	ldr	r3, [r3, #40]	@ 0x28
 8004fb8:	1c5a      	adds	r2, r3, #1
 8004fba:	687b      	ldr	r3, [r7, #4]
 8004fbc:	629a      	str	r2, [r3, #40]	@ 0x28
 8004fbe:	687b      	ldr	r3, [r7, #4]
 8004fc0:	8ddb      	ldrh	r3, [r3, #46]	@ 0x2e
 8004fc2:	b29b      	uxth	r3, r3
 8004fc4:	3b01      	subs	r3, #1
 8004fc6:	b29b      	uxth	r3, r3
 8004fc8:	687a      	ldr	r2, [r7, #4]
 8004fca:	4619      	mov	r1, r3
 8004fcc:	85d1      	strh	r1, [r2, #46]	@ 0x2e
 8004fce:	2b00      	cmp	r3, #0
 8004fd0:	d15d      	bne.n	800508e <UART_Receive_IT+0x16e>
 8004fd2:	687b      	ldr	r3, [r7, #4]
 8004fd4:	681b      	ldr	r3, [r3, #0]
 8004fd6:	68da      	ldr	r2, [r3, #12]
 8004fd8:	687b      	ldr	r3, [r7, #4]
 8004fda:	681b      	ldr	r3, [r3, #0]
 8004fdc:	f022 0220 	bic.w	r2, r2, #32
 8004fe0:	60da      	str	r2, [r3, #12]
 8004fe2:	687b      	ldr	r3, [r7, #4]
 8004fe4:	681b      	ldr	r3, [r3, #0]
 8004fe6:	68da      	ldr	r2, [r3, #12]
 8004fe8:	687b      	ldr	r3, [r7, #4]
 8004fea:	681b      	ldr	r3, [r3, #0]
 8004fec:	f422 7280 	bic.w	r2, r2, #256	@ 0x100
 8004ff0:	60da      	str	r2, [r3, #12]
 8004ff2:	687b      	ldr	r3, [r7, #4]
 8004ff4:	681b      	ldr	r3, [r3, #0]
 8004ff6:	695a      	ldr	r2, [r3, #20]
 8004ff8:	687b      	ldr	r3, [r7, #4]
 8004ffa:	681b      	ldr	r3, [r3, #0]
 8004ffc:	f022 0201 	bic.w	r2, r2, #1
 8005000:	615a      	str	r2, [r3, #20]
 8005002:	687b      	ldr	r3, [r7, #4]
 8005004:	2220      	movs	r2, #32
 8005006:	f883 2042 	strb.w	r2, [r3, #66]	@ 0x42
 800500a:	687b      	ldr	r3, [r7, #4]
 800500c:	2200      	movs	r2, #0
 800500e:	635a      	str	r2, [r3, #52]	@ 0x34
 8005010:	687b      	ldr	r3, [r7, #4]
 8005012:	6b1b      	ldr	r3, [r3, #48]	@ 0x30
 8005014:	2b01      	cmp	r3, #1
 8005016:	d135      	bne.n	8005084 <UART_Receive_IT+0x164>
 8005018:	687b      	ldr	r3, [r7, #4]
 800501a:	2200      	movs	r2, #0
 800501c:	631a      	str	r2, [r3, #48]	@ 0x30
 800501e:	687b      	ldr	r3, [r7, #4]
 8005020:	681b      	ldr	r3, [r3, #0]
 8005022:	330c      	adds	r3, #12
 8005024:	617b      	str	r3, [r7, #20]
 8005026:	697b      	ldr	r3, [r7, #20]
 8005028:	e853 3f00 	ldrex	r3, [r3]
 800502c:	613b      	str	r3, [r7, #16]
 800502e:	693b      	ldr	r3, [r7, #16]
 8005030:	f023 0310 	bic.w	r3, r3, #16
 8005034:	627b      	str	r3, [r7, #36]	@ 0x24
 8005036:	687b      	ldr	r3, [r7, #4]
 8005038:	681b      	ldr	r3, [r3, #0]
 800503a:	330c      	adds	r3, #12
 800503c:	6a7a      	ldr	r2, [r7, #36]	@ 0x24
 800503e:	623a      	str	r2, [r7, #32]
 8005040:	61fb      	str	r3, [r7, #28]
 8005042:	69f9      	ldr	r1, [r7, #28]
 8005044:	6a3a      	ldr	r2, [r7, #32]
 8005046:	e841 2300 	strex	r3, r2, [r1]
 800504a:	61bb      	str	r3, [r7, #24]
 800504c:	69bb      	ldr	r3, [r7, #24]
 800504e:	2b00      	cmp	r3, #0
 8005050:	d1e5      	bne.n	800501e <UART_Receive_IT+0xfe>
 8005052:	687b      	ldr	r3, [r7, #4]
 8005054:	681b      	ldr	r3, [r3, #0]
 8005056:	681b      	ldr	r3, [r3, #0]
 8005058:	f003 0310 	and.w	r3, r3, #16
 800505c:	2b10      	cmp	r3, #16
 800505e:	d10a      	bne.n	8005076 <UART_Receive_IT+0x156>
 8005060:	2300      	movs	r3, #0
 8005062:	60fb      	str	r3, [r7, #12]
 8005064:	687b      	ldr	r3, [r7, #4]
 8005066:	681b      	ldr	r3, [r3, #0]
 8005068:	681b      	ldr	r3, [r3, #0]
 800506a:	60fb      	str	r3, [r7, #12]
 800506c:	687b      	ldr	r3, [r7, #4]
 800506e:	681b      	ldr	r3, [r3, #0]
 8005070:	685b      	ldr	r3, [r3, #4]
 8005072:	60fb      	str	r3, [r7, #12]
 8005074:	68fb      	ldr	r3, [r7, #12]
 8005076:	687b      	ldr	r3, [r7, #4]
 8005078:	8d9b      	ldrh	r3, [r3, #44]	@ 0x2c
 800507a:	4619      	mov	r1, r3
 800507c:	6878      	ldr	r0, [r7, #4]
 800507e:	f7ff fdd1 	bl	8004c24 <HAL_UARTEx_RxEventCallback>
 8005082:	e002      	b.n	800508a <UART_Receive_IT+0x16a>
 8005084:	6878      	ldr	r0, [r7, #4]
 8005086:	f7fc fc69 	bl	800195c <HAL_UART_RxCpltCallback>
 800508a:	2300      	movs	r3, #0
 800508c:	e002      	b.n	8005094 <UART_Receive_IT+0x174>
 800508e:	2300      	movs	r3, #0
 8005090:	e000      	b.n	8005094 <UART_Receive_IT+0x174>
 8005092:	2302      	movs	r3, #2
 8005094:	4618      	mov	r0, r3
 8005096:	3730      	adds	r7, #48	@ 0x30
 8005098:	46bd      	mov	sp, r7
 800509a:	bd80      	pop	{r7, pc}

0800509c <UART_SetConfig>:
 800509c:	e92d 4fb0 	stmdb	sp!, {r4, r5, r7, r8, r9, sl, fp, lr}
 80050a0:	b0c0      	sub	sp, #256	@ 0x100
 80050a2:	af00      	add	r7, sp, #0
 80050a4:	f8c7 00f4 	str.w	r0, [r7, #244]	@ 0xf4
 80050a8:	f8d7 30f4 	ldr.w	r3, [r7, #244]	@ 0xf4
 80050ac:	681b      	ldr	r3, [r3, #0]
 80050ae:	691b      	ldr	r3, [r3, #16]
 80050b0:	f423 5040 	bic.w	r0, r3, #12288	@ 0x3000
 80050b4:	f8d7 30f4 	ldr.w	r3, [r7, #244]	@ 0xf4
 80050b8:	68d9      	ldr	r1, [r3, #12]
 80050ba:	f8d7 30f4 	ldr.w	r3, [r7, #244]	@ 0xf4
 80050be:	681a      	ldr	r2, [r3, #0]
 80050c0:	ea40 0301 	orr.w	r3, r0, r1
 80050c4:	6113      	str	r3, [r2, #16]
 80050c6:	f8d7 30f4 	ldr.w	r3, [r7, #244]	@ 0xf4
 80050ca:	689a      	ldr	r2, [r3, #8]
 80050cc:	f8d7 30f4 	ldr.w	r3, [r7, #244]	@ 0xf4
 80050d0:	691b      	ldr	r3, [r3, #16]
 80050d2:	431a      	orrs	r2, r3
 80050d4:	f8d7 30f4 	ldr.w	r3, [r7, #244]	@ 0xf4
 80050d8:	695b      	ldr	r3, [r3, #20]
 80050da:	431a      	orrs	r2, r3
 80050dc:	f8d7 30f4 	ldr.w	r3, [r7, #244]	@ 0xf4
 80050e0:	69db      	ldr	r3, [r3, #28]
 80050e2:	4313      	orrs	r3, r2
 80050e4:	f8c7 30f8 	str.w	r3, [r7, #248]	@ 0xf8
 80050e8:	f8d7 30f4 	ldr.w	r3, [r7, #244]	@ 0xf4
 80050ec:	681b      	ldr	r3, [r3, #0]
 80050ee:	68db      	ldr	r3, [r3, #12]
 80050f0:	f423 4116 	bic.w	r1, r3, #38400	@ 0x9600
 80050f4:	f021 010c 	bic.w	r1, r1, #12
 80050f8:	f8d7 30f4 	ldr.w	r3, [r7, #244]	@ 0xf4
 80050fc:	681a      	ldr	r2, [r3, #0]
 80050fe:	f8d7 30f8 	ldr.w	r3, [r7, #248]	@ 0xf8
 8005102:	430b      	orrs	r3, r1
 8005104:	60d3      	str	r3, [r2, #12]
 8005106:	f8d7 30f4 	ldr.w	r3, [r7, #244]	@ 0xf4
 800510a:	681b      	ldr	r3, [r3, #0]
 800510c:	695b      	ldr	r3, [r3, #20]
 800510e:	f423 7040 	bic.w	r0, r3, #768	@ 0x300
 8005112:	f8d7 30f4 	ldr.w	r3, [r7, #244]	@ 0xf4
 8005116:	6999      	ldr	r1, [r3, #24]
 8005118:	f8d7 30f4 	ldr.w	r3, [r7, #244]	@ 0xf4
 800511c:	681a      	ldr	r2, [r3, #0]
 800511e:	ea40 0301 	orr.w	r3, r0, r1
 8005122:	6153      	str	r3, [r2, #20]
 8005124:	f8d7 30f4 	ldr.w	r3, [r7, #244]	@ 0xf4
 8005128:	681a      	ldr	r2, [r3, #0]
 800512a:	4b8f      	ldr	r3, [pc, #572]	@ (8005368 <UART_SetConfig+0x2cc>)
 800512c:	429a      	cmp	r2, r3
 800512e:	d005      	beq.n	800513c <UART_SetConfig+0xa0>
 8005130:	f8d7 30f4 	ldr.w	r3, [r7, #244]	@ 0xf4
 8005134:	681a      	ldr	r2, [r3, #0]
 8005136:	4b8d      	ldr	r3, [pc, #564]	@ (800536c <UART_SetConfig+0x2d0>)
 8005138:	429a      	cmp	r2, r3
 800513a:	d104      	bne.n	8005146 <UART_SetConfig+0xaa>
 800513c:	f7fe fb7c 	bl	8003838 <HAL_RCC_GetPCLK2Freq>
 8005140:	f8c7 00fc 	str.w	r0, [r7, #252]	@ 0xfc
 8005144:	e003      	b.n	800514e <UART_SetConfig+0xb2>
 8005146:	f7fe fb63 	bl	8003810 <HAL_RCC_GetPCLK1Freq>
 800514a:	f8c7 00fc 	str.w	r0, [r7, #252]	@ 0xfc
 800514e:	f8d7 30f4 	ldr.w	r3, [r7, #244]	@ 0xf4
 8005152:	69db      	ldr	r3, [r3, #28]
 8005154:	f5b3 4f00 	cmp.w	r3, #32768	@ 0x8000
 8005158:	f040 810c 	bne.w	8005374 <UART_SetConfig+0x2d8>
 800515c:	f8d7 30fc 	ldr.w	r3, [r7, #252]	@ 0xfc
 8005160:	2200      	movs	r2, #0
 8005162:	f8c7 30e8 	str.w	r3, [r7, #232]	@ 0xe8
 8005166:	f8c7 20ec 	str.w	r2, [r7, #236]	@ 0xec
 800516a:	e9d7 453a 	ldrd	r4, r5, [r7, #232]	@ 0xe8
 800516e:	4622      	mov	r2, r4
 8005170:	462b      	mov	r3, r5
 8005172:	1891      	adds	r1, r2, r2
 8005174:	65b9      	str	r1, [r7, #88]	@ 0x58
 8005176:	415b      	adcs	r3, r3
 8005178:	65fb      	str	r3, [r7, #92]	@ 0x5c
 800517a:	e9d7 2316 	ldrd	r2, r3, [r7, #88]	@ 0x58
 800517e:	4621      	mov	r1, r4
 8005180:	eb12 0801 	adds.w	r8, r2, r1
 8005184:	4629      	mov	r1, r5
 8005186:	eb43 0901 	adc.w	r9, r3, r1
 800518a:	f04f 0200 	mov.w	r2, #0
 800518e:	f04f 0300 	mov.w	r3, #0
 8005192:	ea4f 03c9 	mov.w	r3, r9, lsl #3
 8005196:	ea43 7358 	orr.w	r3, r3, r8, lsr #29
 800519a:	ea4f 02c8 	mov.w	r2, r8, lsl #3
 800519e:	4690      	mov	r8, r2
 80051a0:	4699      	mov	r9, r3
 80051a2:	4623      	mov	r3, r4
 80051a4:	eb18 0303 	adds.w	r3, r8, r3
 80051a8:	f8c7 30e0 	str.w	r3, [r7, #224]	@ 0xe0
 80051ac:	462b      	mov	r3, r5
 80051ae:	eb49 0303 	adc.w	r3, r9, r3
 80051b2:	f8c7 30e4 	str.w	r3, [r7, #228]	@ 0xe4
 80051b6:	f8d7 30f4 	ldr.w	r3, [r7, #244]	@ 0xf4
 80051ba:	685b      	ldr	r3, [r3, #4]
 80051bc:	2200      	movs	r2, #0
 80051be:	f8c7 30d8 	str.w	r3, [r7, #216]	@ 0xd8
 80051c2:	f8c7 20dc 	str.w	r2, [r7, #220]	@ 0xdc
 80051c6:	e9d7 1236 	ldrd	r1, r2, [r7, #216]	@ 0xd8
 80051ca:	460b      	mov	r3, r1
 80051cc:	18db      	adds	r3, r3, r3
 80051ce:	653b      	str	r3, [r7, #80]	@ 0x50
 80051d0:	4613      	mov	r3, r2
 80051d2:	eb42 0303 	adc.w	r3, r2, r3
 80051d6:	657b      	str	r3, [r7, #84]	@ 0x54
 80051d8:	e9d7 2314 	ldrd	r2, r3, [r7, #80]	@ 0x50
 80051dc:	e9d7 0138 	ldrd	r0, r1, [r7, #224]	@ 0xe0
 80051e0:	f7fb fc44 	bl	8000a6c <__aeabi_uldivmod>
 80051e4:	4602      	mov	r2, r0
 80051e6:	460b      	mov	r3, r1
 80051e8:	4b61      	ldr	r3, [pc, #388]	@ (8005370 <UART_SetConfig+0x2d4>)
 80051ea:	fba3 2302 	umull	r2, r3, r3, r2
 80051ee:	095b      	lsrs	r3, r3, #5
 80051f0:	011c      	lsls	r4, r3, #4
 80051f2:	f8d7 30fc 	ldr.w	r3, [r7, #252]	@ 0xfc
 80051f6:	2200      	movs	r2, #0
 80051f8:	f8c7 30d0 	str.w	r3, [r7, #208]	@ 0xd0
 80051fc:	f8c7 20d4 	str.w	r2, [r7, #212]	@ 0xd4
 8005200:	e9d7 8934 	ldrd	r8, r9, [r7, #208]	@ 0xd0
 8005204:	4642      	mov	r2, r8
 8005206:	464b      	mov	r3, r9
 8005208:	1891      	adds	r1, r2, r2
 800520a:	64b9      	str	r1, [r7, #72]	@ 0x48
 800520c:	415b      	adcs	r3, r3
 800520e:	64fb      	str	r3, [r7, #76]	@ 0x4c
 8005210:	e9d7 2312 	ldrd	r2, r3, [r7, #72]	@ 0x48
 8005214:	4641      	mov	r1, r8
 8005216:	eb12 0a01 	adds.w	sl, r2, r1
 800521a:	4649      	mov	r1, r9
 800521c:	eb43 0b01 	adc.w	fp, r3, r1
 8005220:	f04f 0200 	mov.w	r2, #0
 8005224:	f04f 0300 	mov.w	r3, #0
 8005228:	ea4f 03cb 	mov.w	r3, fp, lsl #3
 800522c:	ea43 735a 	orr.w	r3, r3, sl, lsr #29
 8005230:	ea4f 02ca 	mov.w	r2, sl, lsl #3
 8005234:	4692      	mov	sl, r2
 8005236:	469b      	mov	fp, r3
 8005238:	4643      	mov	r3, r8
 800523a:	eb1a 0303 	adds.w	r3, sl, r3
 800523e:	f8c7 30c8 	str.w	r3, [r7, #200]	@ 0xc8
 8005242:	464b      	mov	r3, r9
 8005244:	eb4b 0303 	adc.w	r3, fp, r3
 8005248:	f8c7 30cc 	str.w	r3, [r7, #204]	@ 0xcc
 800524c:	f8d7 30f4 	ldr.w	r3, [r7, #244]	@ 0xf4
 8005250:	685b      	ldr	r3, [r3, #4]
 8005252:	2200      	movs	r2, #0
 8005254:	f8c7 30c0 	str.w	r3, [r7, #192]	@ 0xc0
 8005258:	f8c7 20c4 	str.w	r2, [r7, #196]	@ 0xc4
 800525c:	e9d7 1230 	ldrd	r1, r2, [r7, #192]	@ 0xc0
 8005260:	460b      	mov	r3, r1
 8005262:	18db      	adds	r3, r3, r3
 8005264:	643b      	str	r3, [r7, #64]	@ 0x40
 8005266:	4613      	mov	r3, r2
 8005268:	eb42 0303 	adc.w	r3, r2, r3
 800526c:	647b      	str	r3, [r7, #68]	@ 0x44
 800526e:	e9d7 2310 	ldrd	r2, r3, [r7, #64]	@ 0x40
 8005272:	e9d7 0132 	ldrd	r0, r1, [r7, #200]	@ 0xc8
 8005276:	f7fb fbf9 	bl	8000a6c <__aeabi_uldivmod>
 800527a:	4602      	mov	r2, r0
 800527c:	460b      	mov	r3, r1
 800527e:	4611      	mov	r1, r2
 8005280:	4b3b      	ldr	r3, [pc, #236]	@ (8005370 <UART_SetConfig+0x2d4>)
 8005282:	fba3 2301 	umull	r2, r3, r3, r1
 8005286:	095b      	lsrs	r3, r3, #5
 8005288:	2264      	movs	r2, #100	@ 0x64
 800528a:	fb02 f303 	mul.w	r3, r2, r3
 800528e:	1acb      	subs	r3, r1, r3
 8005290:	00db      	lsls	r3, r3, #3
 8005292:	f103 0232 	add.w	r2, r3, #50	@ 0x32
 8005296:	4b36      	ldr	r3, [pc, #216]	@ (8005370 <UART_SetConfig+0x2d4>)
 8005298:	fba3 2302 	umull	r2, r3, r3, r2
 800529c:	095b      	lsrs	r3, r3, #5
 800529e:	005b      	lsls	r3, r3, #1
 80052a0:	f403 73f8 	and.w	r3, r3, #496	@ 0x1f0
 80052a4:	441c      	add	r4, r3
 80052a6:	f8d7 30fc 	ldr.w	r3, [r7, #252]	@ 0xfc
 80052aa:	2200      	movs	r2, #0
 80052ac:	f8c7 30b8 	str.w	r3, [r7, #184]	@ 0xb8
 80052b0:	f8c7 20bc 	str.w	r2, [r7, #188]	@ 0xbc
 80052b4:	e9d7 892e 	ldrd	r8, r9, [r7, #184]	@ 0xb8
 80052b8:	4642      	mov	r2, r8
 80052ba:	464b      	mov	r3, r9
 80052bc:	1891      	adds	r1, r2, r2
 80052be:	63b9      	str	r1, [r7, #56]	@ 0x38
 80052c0:	415b      	adcs	r3, r3
 80052c2:	63fb      	str	r3, [r7, #60]	@ 0x3c
 80052c4:	e9d7 230e 	ldrd	r2, r3, [r7, #56]	@ 0x38
 80052c8:	4641      	mov	r1, r8
 80052ca:	1851      	adds	r1, r2, r1
 80052cc:	6339      	str	r1, [r7, #48]	@ 0x30
 80052ce:	4649      	mov	r1, r9
 80052d0:	414b      	adcs	r3, r1
 80052d2:	637b      	str	r3, [r7, #52]	@ 0x34
 80052d4:	f04f 0200 	mov.w	r2, #0
 80052d8:	f04f 0300 	mov.w	r3, #0
 80052dc:	e9d7 ab0c 	ldrd	sl, fp, [r7, #48]	@ 0x30
 80052e0:	4659      	mov	r1, fp
 80052e2:	00cb      	lsls	r3, r1, #3
 80052e4:	4651      	mov	r1, sl
 80052e6:	ea43 7351 	orr.w	r3, r3, r1, lsr #29
 80052ea:	4651      	mov	r1, sl
 80052ec:	00ca      	lsls	r2, r1, #3
 80052ee:	4610      	mov	r0, r2
 80052f0:	4619      	mov	r1, r3
 80052f2:	4603      	mov	r3, r0
 80052f4:	4642      	mov	r2, r8
 80052f6:	189b      	adds	r3, r3, r2
 80052f8:	f8c7 30b0 	str.w	r3, [r7, #176]	@ 0xb0
 80052fc:	464b      	mov	r3, r9
 80052fe:	460a      	mov	r2, r1
 8005300:	eb42 0303 	adc.w	r3, r2, r3
 8005304:	f8c7 30b4 	str.w	r3, [r7, #180]	@ 0xb4
 8005308:	f8d7 30f4 	ldr.w	r3, [r7, #244]	@ 0xf4
 800530c:	685b      	ldr	r3, [r3, #4]
 800530e:	2200      	movs	r2, #0
 8005310:	f8c7 30a8 	str.w	r3, [r7, #168]	@ 0xa8
 8005314:	f8c7 20ac 	str.w	r2, [r7, #172]	@ 0xac
 8005318:	e9d7 122a 	ldrd	r1, r2, [r7, #168]	@ 0xa8
 800531c:	460b      	mov	r3, r1
 800531e:	18db      	adds	r3, r3, r3
 8005320:	62bb      	str	r3, [r7, #40]	@ 0x28
 8005322:	4613      	mov	r3, r2
 8005324:	eb42 0303 	adc.w	r3, r2, r3
 8005328:	62fb      	str	r3, [r7, #44]	@ 0x2c
 800532a:	e9d7 230a 	ldrd	r2, r3, [r7, #40]	@ 0x28
 800532e:	e9d7 012c 	ldrd	r0, r1, [r7, #176]	@ 0xb0
 8005332:	f7fb fb9b 	bl	8000a6c <__aeabi_uldivmod>
 8005336:	4602      	mov	r2, r0
 8005338:	460b      	mov	r3, r1
 800533a:	4b0d      	ldr	r3, [pc, #52]	@ (8005370 <UART_SetConfig+0x2d4>)
 800533c:	fba3 1302 	umull	r1, r3, r3, r2
 8005340:	095b      	lsrs	r3, r3, #5
 8005342:	2164      	movs	r1, #100	@ 0x64
 8005344:	fb01 f303 	mul.w	r3, r1, r3
 8005348:	1ad3      	subs	r3, r2, r3
 800534a:	00db      	lsls	r3, r3, #3
 800534c:	3332      	adds	r3, #50	@ 0x32
 800534e:	4a08      	ldr	r2, [pc, #32]	@ (8005370 <UART_SetConfig+0x2d4>)
 8005350:	fba2 2303 	umull	r2, r3, r2, r3
 8005354:	095b      	lsrs	r3, r3, #5
 8005356:	f003 0207 	and.w	r2, r3, #7
 800535a:	f8d7 30f4 	ldr.w	r3, [r7, #244]	@ 0xf4
 800535e:	681b      	ldr	r3, [r3, #0]
 8005360:	4422      	add	r2, r4
 8005362:	609a      	str	r2, [r3, #8]
 8005364:	e106      	b.n	8005574 <UART_SetConfig+0x4d8>
 8005366:	bf00      	nop
 8005368:	40011000 	.word	0x40011000
 800536c:	40011400 	.word	0x40011400
 8005370:	51eb851f 	.word	0x51eb851f
 8005374:	f8d7 30fc 	ldr.w	r3, [r7, #252]	@ 0xfc
 8005378:	2200      	movs	r2, #0
 800537a:	f8c7 30a0 	str.w	r3, [r7, #160]	@ 0xa0
 800537e:	f8c7 20a4 	str.w	r2, [r7, #164]	@ 0xa4
 8005382:	e9d7 8928 	ldrd	r8, r9, [r7, #160]	@ 0xa0
 8005386:	4642      	mov	r2, r8
 8005388:	464b      	mov	r3, r9
 800538a:	1891      	adds	r1, r2, r2
 800538c:	6239      	str	r1, [r7, #32]
 800538e:	415b      	adcs	r3, r3
 8005390:	627b      	str	r3, [r7, #36]	@ 0x24
 8005392:	e9d7 2308 	ldrd	r2, r3, [r7, #32]
 8005396:	4641      	mov	r1, r8
 8005398:	1854      	adds	r4, r2, r1
 800539a:	4649      	mov	r1, r9
 800539c:	eb43 0501 	adc.w	r5, r3, r1
 80053a0:	f04f 0200 	mov.w	r2, #0
 80053a4:	f04f 0300 	mov.w	r3, #0
 80053a8:	00eb      	lsls	r3, r5, #3
 80053aa:	ea43 7354 	orr.w	r3, r3, r4, lsr #29
 80053ae:	00e2      	lsls	r2, r4, #3
 80053b0:	4614      	mov	r4, r2
 80053b2:	461d      	mov	r5, r3
 80053b4:	4643      	mov	r3, r8
 80053b6:	18e3      	adds	r3, r4, r3
 80053b8:	f8c7 3098 	str.w	r3, [r7, #152]	@ 0x98
 80053bc:	464b      	mov	r3, r9
 80053be:	eb45 0303 	adc.w	r3, r5, r3
 80053c2:	f8c7 309c 	str.w	r3, [r7, #156]	@ 0x9c
 80053c6:	f8d7 30f4 	ldr.w	r3, [r7, #244]	@ 0xf4
 80053ca:	685b      	ldr	r3, [r3, #4]
 80053cc:	2200      	movs	r2, #0
 80053ce:	f8c7 3090 	str.w	r3, [r7, #144]	@ 0x90
 80053d2:	f8c7 2094 	str.w	r2, [r7, #148]	@ 0x94
 80053d6:	f04f 0200 	mov.w	r2, #0
 80053da:	f04f 0300 	mov.w	r3, #0
 80053de:	e9d7 4524 	ldrd	r4, r5, [r7, #144]	@ 0x90
 80053e2:	4629      	mov	r1, r5
 80053e4:	008b      	lsls	r3, r1, #2
 80053e6:	4621      	mov	r1, r4
 80053e8:	ea43 7391 	orr.w	r3, r3, r1, lsr #30
 80053ec:	4621      	mov	r1, r4
 80053ee:	008a      	lsls	r2, r1, #2
 80053f0:	e9d7 0126 	ldrd	r0, r1, [r7, #152]	@ 0x98
 80053f4:	f7fb fb3a 	bl	8000a6c <__aeabi_uldivmod>
 80053f8:	4602      	mov	r2, r0
 80053fa:	460b      	mov	r3, r1
 80053fc:	4b60      	ldr	r3, [pc, #384]	@ (8005580 <UART_SetConfig+0x4e4>)
 80053fe:	fba3 2302 	umull	r2, r3, r3, r2
 8005402:	095b      	lsrs	r3, r3, #5
 8005404:	011c      	lsls	r4, r3, #4
 8005406:	f8d7 30fc 	ldr.w	r3, [r7, #252]	@ 0xfc
 800540a:	2200      	movs	r2, #0
 800540c:	f8c7 3088 	str.w	r3, [r7, #136]	@ 0x88
 8005410:	f8c7 208c 	str.w	r2, [r7, #140]	@ 0x8c
 8005414:	e9d7 8922 	ldrd	r8, r9, [r7, #136]	@ 0x88
 8005418:	4642      	mov	r2, r8
 800541a:	464b      	mov	r3, r9
 800541c:	1891      	adds	r1, r2, r2
 800541e:	61b9      	str	r1, [r7, #24]
 8005420:	415b      	adcs	r3, r3
 8005422:	61fb      	str	r3, [r7, #28]
 8005424:	e9d7 2306 	ldrd	r2, r3, [r7, #24]
 8005428:	4641      	mov	r1, r8
 800542a:	1851      	adds	r1, r2, r1
 800542c:	6139      	str	r1, [r7, #16]
 800542e:	4649      	mov	r1, r9
 8005430:	414b      	adcs	r3, r1
 8005432:	617b      	str	r3, [r7, #20]
 8005434:	f04f 0200 	mov.w	r2, #0
 8005438:	f04f 0300 	mov.w	r3, #0
 800543c:	e9d7 ab04 	ldrd	sl, fp, [r7, #16]
 8005440:	4659      	mov	r1, fp
 8005442:	00cb      	lsls	r3, r1, #3
 8005444:	4651      	mov	r1, sl
 8005446:	ea43 7351 	orr.w	r3, r3, r1, lsr #29
 800544a:	4651      	mov	r1, sl
 800544c:	00ca      	lsls	r2, r1, #3
 800544e:	4610      	mov	r0, r2
 8005450:	4619      	mov	r1, r3
 8005452:	4603      	mov	r3, r0
 8005454:	4642      	mov	r2, r8
 8005456:	189b      	adds	r3, r3, r2
 8005458:	f8c7 3080 	str.w	r3, [r7, #128]	@ 0x80
 800545c:	464b      	mov	r3, r9
 800545e:	460a      	mov	r2, r1
 8005460:	eb42 0303 	adc.w	r3, r2, r3
 8005464:	f8c7 3084 	str.w	r3, [r7, #132]	@ 0x84
 8005468:	f8d7 30f4 	ldr.w	r3, [r7, #244]	@ 0xf4
 800546c:	685b      	ldr	r3, [r3, #4]
 800546e:	2200      	movs	r2, #0
 8005470:	67bb      	str	r3, [r7, #120]	@ 0x78
 8005472:	67fa      	str	r2, [r7, #124]	@ 0x7c
 8005474:	f04f 0200 	mov.w	r2, #0
 8005478:	f04f 0300 	mov.w	r3, #0
 800547c:	e9d7 891e 	ldrd	r8, r9, [r7, #120]	@ 0x78
 8005480:	4649      	mov	r1, r9
 8005482:	008b      	lsls	r3, r1, #2
 8005484:	4641      	mov	r1, r8
 8005486:	ea43 7391 	orr.w	r3, r3, r1, lsr #30
 800548a:	4641      	mov	r1, r8
 800548c:	008a      	lsls	r2, r1, #2
 800548e:	e9d7 0120 	ldrd	r0, r1, [r7, #128]	@ 0x80
 8005492:	f7fb faeb 	bl	8000a6c <__aeabi_uldivmod>
 8005496:	4602      	mov	r2, r0
 8005498:	460b      	mov	r3, r1
 800549a:	4611      	mov	r1, r2
 800549c:	4b38      	ldr	r3, [pc, #224]	@ (8005580 <UART_SetConfig+0x4e4>)
 800549e:	fba3 2301 	umull	r2, r3, r3, r1
 80054a2:	095b      	lsrs	r3, r3, #5
 80054a4:	2264      	movs	r2, #100	@ 0x64
 80054a6:	fb02 f303 	mul.w	r3, r2, r3
 80054aa:	1acb      	subs	r3, r1, r3
 80054ac:	011b      	lsls	r3, r3, #4
 80054ae:	3332      	adds	r3, #50	@ 0x32
 80054b0:	4a33      	ldr	r2, [pc, #204]	@ (8005580 <UART_SetConfig+0x4e4>)
 80054b2:	fba2 2303 	umull	r2, r3, r2, r3
 80054b6:	095b      	lsrs	r3, r3, #5
 80054b8:	f003 03f0 	and.w	r3, r3, #240	@ 0xf0
 80054bc:	441c      	add	r4, r3
 80054be:	f8d7 30fc 	ldr.w	r3, [r7, #252]	@ 0xfc
 80054c2:	2200      	movs	r2, #0
 80054c4:	673b      	str	r3, [r7, #112]	@ 0x70
 80054c6:	677a      	str	r2, [r7, #116]	@ 0x74
 80054c8:	e9d7 891c 	ldrd	r8, r9, [r7, #112]	@ 0x70
 80054cc:	4642      	mov	r2, r8
 80054ce:	464b      	mov	r3, r9
 80054d0:	1891      	adds	r1, r2, r2
 80054d2:	60b9      	str	r1, [r7, #8]
 80054d4:	415b      	adcs	r3, r3
 80054d6:	60fb      	str	r3, [r7, #12]
 80054d8:	e9d7 2302 	ldrd	r2, r3, [r7, #8]
 80054dc:	4641      	mov	r1, r8
 80054de:	1851      	adds	r1, r2, r1
 80054e0:	6039      	str	r1, [r7, #0]
 80054e2:	4649      	mov	r1, r9
 80054e4:	414b      	adcs	r3, r1
 80054e6:	607b      	str	r3, [r7, #4]
 80054e8:	f04f 0200 	mov.w	r2, #0
 80054ec:	f04f 0300 	mov.w	r3, #0
 80054f0:	e9d7 ab00 	ldrd	sl, fp, [r7]
 80054f4:	4659      	mov	r1, fp
 80054f6:	00cb      	lsls	r3, r1, #3
 80054f8:	4651      	mov	r1, sl
 80054fa:	ea43 7351 	orr.w	r3, r3, r1, lsr #29
 80054fe:	4651      	mov	r1, sl
 8005500:	00ca      	lsls	r2, r1, #3
 8005502:	4610      	mov	r0, r2
 8005504:	4619      	mov	r1, r3
 8005506:	4603      	mov	r3, r0
 8005508:	4642      	mov	r2, r8
 800550a:	189b      	adds	r3, r3, r2
 800550c:	66bb      	str	r3, [r7, #104]	@ 0x68
 800550e:	464b      	mov	r3, r9
 8005510:	460a      	mov	r2, r1
 8005512:	eb42 0303 	adc.w	r3, r2, r3
 8005516:	66fb      	str	r3, [r7, #108]	@ 0x6c
 8005518:	f8d7 30f4 	ldr.w	r3, [r7, #244]	@ 0xf4
 800551c:	685b      	ldr	r3, [r3, #4]
 800551e:	2200      	movs	r2, #0
 8005520:	663b      	str	r3, [r7, #96]	@ 0x60
 8005522:	667a      	str	r2, [r7, #100]	@ 0x64
 8005524:	f04f 0200 	mov.w	r2, #0
 8005528:	f04f 0300 	mov.w	r3, #0
 800552c:	e9d7 8918 	ldrd	r8, r9, [r7, #96]	@ 0x60
 8005530:	4649      	mov	r1, r9
 8005532:	008b      	lsls	r3, r1, #2
 8005534:	4641      	mov	r1, r8
 8005536:	ea43 7391 	orr.w	r3, r3, r1, lsr #30
 800553a:	4641      	mov	r1, r8
 800553c:	008a      	lsls	r2, r1, #2
 800553e:	e9d7 011a 	ldrd	r0, r1, [r7, #104]	@ 0x68
 8005542:	f7fb fa93 	bl	8000a6c <__aeabi_uldivmod>
 8005546:	4602      	mov	r2, r0
 8005548:	460b      	mov	r3, r1
 800554a:	4b0d      	ldr	r3, [pc, #52]	@ (8005580 <UART_SetConfig+0x4e4>)
 800554c:	fba3 1302 	umull	r1, r3, r3, r2
 8005550:	095b      	lsrs	r3, r3, #5
 8005552:	2164      	movs	r1, #100	@ 0x64
 8005554:	fb01 f303 	mul.w	r3, r1, r3
 8005558:	1ad3      	subs	r3, r2, r3
 800555a:	011b      	lsls	r3, r3, #4
 800555c:	3332      	adds	r3, #50	@ 0x32
 800555e:	4a08      	ldr	r2, [pc, #32]	@ (8005580 <UART_SetConfig+0x4e4>)
 8005560:	fba2 2303 	umull	r2, r3, r2, r3
 8005564:	095b      	lsrs	r3, r3, #5
 8005566:	f003 020f 	and.w	r2, r3, #15
 800556a:	f8d7 30f4 	ldr.w	r3, [r7, #244]	@ 0xf4
 800556e:	681b      	ldr	r3, [r3, #0]
 8005570:	4422      	add	r2, r4
 8005572:	609a      	str	r2, [r3, #8]
 8005574:	bf00      	nop
 8005576:	f507 7780 	add.w	r7, r7, #256	@ 0x100
 800557a:	46bd      	mov	sp, r7
 800557c:	e8bd 8fb0 	ldmia.w	sp!, {r4, r5, r7, r8, r9, sl, fp, pc}
 8005580:	51eb851f 	.word	0x51eb851f

08005584 <siprintf>:
 8005584:	b40e      	push	{r1, r2, r3}
 8005586:	b500      	push	{lr}
 8005588:	b09c      	sub	sp, #112	@ 0x70
 800558a:	ab1d      	add	r3, sp, #116	@ 0x74
 800558c:	9002      	str	r0, [sp, #8]
 800558e:	9006      	str	r0, [sp, #24]
 8005590:	f06f 4100 	mvn.w	r1, #2147483648	@ 0x80000000
 8005594:	4809      	ldr	r0, [pc, #36]	@ (80055bc <siprintf+0x38>)
 8005596:	9107      	str	r1, [sp, #28]
 8005598:	9104      	str	r1, [sp, #16]
 800559a:	4909      	ldr	r1, [pc, #36]	@ (80055c0 <siprintf+0x3c>)
 800559c:	f853 2b04 	ldr.w	r2, [r3], #4
 80055a0:	9105      	str	r1, [sp, #20]
 80055a2:	6800      	ldr	r0, [r0, #0]
 80055a4:	9301      	str	r3, [sp, #4]
 80055a6:	a902      	add	r1, sp, #8
 80055a8:	f000 f994 	bl	80058d4 <_svfiprintf_r>
 80055ac:	9b02      	ldr	r3, [sp, #8]
 80055ae:	2200      	movs	r2, #0
 80055b0:	701a      	strb	r2, [r3, #0]
 80055b2:	b01c      	add	sp, #112	@ 0x70
 80055b4:	f85d eb04 	ldr.w	lr, [sp], #4
 80055b8:	b003      	add	sp, #12
 80055ba:	4770      	bx	lr
 80055bc:	20000024 	.word	0x20000024
 80055c0:	ffff0208 	.word	0xffff0208

080055c4 <memset>:
 80055c4:	4402      	add	r2, r0
 80055c6:	4603      	mov	r3, r0
 80055c8:	4293      	cmp	r3, r2
 80055ca:	d100      	bne.n	80055ce <memset+0xa>
 80055cc:	4770      	bx	lr
 80055ce:	f803 1b01 	strb.w	r1, [r3], #1
 80055d2:	e7f9      	b.n	80055c8 <memset+0x4>

080055d4 <__errno>:
 80055d4:	4b01      	ldr	r3, [pc, #4]	@ (80055dc <__errno+0x8>)
 80055d6:	6818      	ldr	r0, [r3, #0]
 80055d8:	4770      	bx	lr
 80055da:	bf00      	nop
 80055dc:	20000024 	.word	0x20000024

080055e0 <__libc_init_array>:
 80055e0:	b570      	push	{r4, r5, r6, lr}
 80055e2:	4d0d      	ldr	r5, [pc, #52]	@ (8005618 <__libc_init_array+0x38>)
 80055e4:	4c0d      	ldr	r4, [pc, #52]	@ (800561c <__libc_init_array+0x3c>)
 80055e6:	1b64      	subs	r4, r4, r5
 80055e8:	10a4      	asrs	r4, r4, #2
 80055ea:	2600      	movs	r6, #0
 80055ec:	42a6      	cmp	r6, r4
 80055ee:	d109      	bne.n	8005604 <__libc_init_array+0x24>
 80055f0:	4d0b      	ldr	r5, [pc, #44]	@ (8005620 <__libc_init_array+0x40>)
 80055f2:	4c0c      	ldr	r4, [pc, #48]	@ (8005624 <__libc_init_array+0x44>)
 80055f4:	f000 fc66 	bl	8005ec4 <_init>
 80055f8:	1b64      	subs	r4, r4, r5
 80055fa:	10a4      	asrs	r4, r4, #2
 80055fc:	2600      	movs	r6, #0
 80055fe:	42a6      	cmp	r6, r4
 8005600:	d105      	bne.n	800560e <__libc_init_array+0x2e>
 8005602:	bd70      	pop	{r4, r5, r6, pc}
 8005604:	f855 3b04 	ldr.w	r3, [r5], #4
 8005608:	4798      	blx	r3
 800560a:	3601      	adds	r6, #1
 800560c:	e7ee      	b.n	80055ec <__libc_init_array+0xc>
 800560e:	f855 3b04 	ldr.w	r3, [r5], #4
 8005612:	4798      	blx	r3
 8005614:	3601      	adds	r6, #1
 8005616:	e7f2      	b.n	80055fe <__libc_init_array+0x1e>
 8005618:	08005f5c 	.word	0x08005f5c
 800561c:	08005f5c 	.word	0x08005f5c
 8005620:	08005f5c 	.word	0x08005f5c
 8005624:	08005f60 	.word	0x08005f60

08005628 <__retarget_lock_acquire_recursive>:
 8005628:	4770      	bx	lr

0800562a <__retarget_lock_release_recursive>:
 800562a:	4770      	bx	lr

0800562c <_free_r>:
 800562c:	b538      	push	{r3, r4, r5, lr}
 800562e:	4605      	mov	r5, r0
 8005630:	2900      	cmp	r1, #0
 8005632:	d041      	beq.n	80056b8 <_free_r+0x8c>
 8005634:	f851 3c04 	ldr.w	r3, [r1, #-4]
 8005638:	1f0c      	subs	r4, r1, #4
 800563a:	2b00      	cmp	r3, #0
 800563c:	bfb8      	it	lt
 800563e:	18e4      	addlt	r4, r4, r3
 8005640:	f000 f8e0 	bl	8005804 <__malloc_lock>
 8005644:	4a1d      	ldr	r2, [pc, #116]	@ (80056bc <_free_r+0x90>)
 8005646:	6813      	ldr	r3, [r2, #0]
 8005648:	b933      	cbnz	r3, 8005658 <_free_r+0x2c>
 800564a:	6063      	str	r3, [r4, #4]
 800564c:	6014      	str	r4, [r2, #0]
 800564e:	4628      	mov	r0, r5
 8005650:	e8bd 4038 	ldmia.w	sp!, {r3, r4, r5, lr}
 8005654:	f000 b8dc 	b.w	8005810 <__malloc_unlock>
 8005658:	42a3      	cmp	r3, r4
 800565a:	d908      	bls.n	800566e <_free_r+0x42>
 800565c:	6820      	ldr	r0, [r4, #0]
 800565e:	1821      	adds	r1, r4, r0
 8005660:	428b      	cmp	r3, r1
 8005662:	bf01      	itttt	eq
 8005664:	6819      	ldreq	r1, [r3, #0]
 8005666:	685b      	ldreq	r3, [r3, #4]
 8005668:	1809      	addeq	r1, r1, r0
 800566a:	6021      	streq	r1, [r4, #0]
 800566c:	e7ed      	b.n	800564a <_free_r+0x1e>
 800566e:	461a      	mov	r2, r3
 8005670:	685b      	ldr	r3, [r3, #4]
 8005672:	b10b      	cbz	r3, 8005678 <_free_r+0x4c>
 8005674:	42a3      	cmp	r3, r4
 8005676:	d9fa      	bls.n	800566e <_free_r+0x42>
 8005678:	6811      	ldr	r1, [r2, #0]
 800567a:	1850      	adds	r0, r2, r1
 800567c:	42a0      	cmp	r0, r4
 800567e:	d10b      	bne.n	8005698 <_free_r+0x6c>
 8005680:	6820      	ldr	r0, [r4, #0]
 8005682:	4401      	add	r1, r0
 8005684:	1850      	adds	r0, r2, r1
 8005686:	4283      	cmp	r3, r0
 8005688:	6011      	str	r1, [r2, #0]
 800568a:	d1e0      	bne.n	800564e <_free_r+0x22>
 800568c:	6818      	ldr	r0, [r3, #0]
 800568e:	685b      	ldr	r3, [r3, #4]
 8005690:	6053      	str	r3, [r2, #4]
 8005692:	4408      	add	r0, r1
 8005694:	6010      	str	r0, [r2, #0]
 8005696:	e7da      	b.n	800564e <_free_r+0x22>
 8005698:	d902      	bls.n	80056a0 <_free_r+0x74>
 800569a:	230c      	movs	r3, #12
 800569c:	602b      	str	r3, [r5, #0]
 800569e:	e7d6      	b.n	800564e <_free_r+0x22>
 80056a0:	6820      	ldr	r0, [r4, #0]
 80056a2:	1821      	adds	r1, r4, r0
 80056a4:	428b      	cmp	r3, r1
 80056a6:	bf04      	itt	eq
 80056a8:	6819      	ldreq	r1, [r3, #0]
 80056aa:	685b      	ldreq	r3, [r3, #4]
 80056ac:	6063      	str	r3, [r4, #4]
 80056ae:	bf04      	itt	eq
 80056b0:	1809      	addeq	r1, r1, r0
 80056b2:	6021      	streq	r1, [r4, #0]
 80056b4:	6054      	str	r4, [r2, #4]
 80056b6:	e7ca      	b.n	800564e <_free_r+0x22>
 80056b8:	bd38      	pop	{r3, r4, r5, pc}
 80056ba:	bf00      	nop
 80056bc:	2000037c 	.word	0x2000037c

080056c0 <sbrk_aligned>:
 80056c0:	b570      	push	{r4, r5, r6, lr}
 80056c2:	4e0f      	ldr	r6, [pc, #60]	@ (8005700 <sbrk_aligned+0x40>)
 80056c4:	460c      	mov	r4, r1
 80056c6:	6831      	ldr	r1, [r6, #0]
 80056c8:	4605      	mov	r5, r0
 80056ca:	b911      	cbnz	r1, 80056d2 <sbrk_aligned+0x12>
 80056cc:	f000 fba6 	bl	8005e1c <_sbrk_r>
 80056d0:	6030      	str	r0, [r6, #0]
 80056d2:	4621      	mov	r1, r4
 80056d4:	4628      	mov	r0, r5
 80056d6:	f000 fba1 	bl	8005e1c <_sbrk_r>
 80056da:	1c43      	adds	r3, r0, #1
 80056dc:	d103      	bne.n	80056e6 <sbrk_aligned+0x26>
 80056de:	f04f 34ff 	mov.w	r4, #4294967295
 80056e2:	4620      	mov	r0, r4
 80056e4:	bd70      	pop	{r4, r5, r6, pc}
 80056e6:	1cc4      	adds	r4, r0, #3
 80056e8:	f024 0403 	bic.w	r4, r4, #3
 80056ec:	42a0      	cmp	r0, r4
 80056ee:	d0f8      	beq.n	80056e2 <sbrk_aligned+0x22>
 80056f0:	1a21      	subs	r1, r4, r0
 80056f2:	4628      	mov	r0, r5
 80056f4:	f000 fb92 	bl	8005e1c <_sbrk_r>
 80056f8:	3001      	adds	r0, #1
 80056fa:	d1f2      	bne.n	80056e2 <sbrk_aligned+0x22>
 80056fc:	e7ef      	b.n	80056de <sbrk_aligned+0x1e>
 80056fe:	bf00      	nop
 8005700:	20000378 	.word	0x20000378

08005704 <_malloc_r>:
 8005704:	e92d 43f8 	stmdb	sp!, {r3, r4, r5, r6, r7, r8, r9, lr}
 8005708:	1ccd      	adds	r5, r1, #3
 800570a:	f025 0503 	bic.w	r5, r5, #3
 800570e:	3508      	adds	r5, #8
 8005710:	2d0c      	cmp	r5, #12
 8005712:	bf38      	it	cc
 8005714:	250c      	movcc	r5, #12
 8005716:	2d00      	cmp	r5, #0
 8005718:	4606      	mov	r6, r0
 800571a:	db01      	blt.n	8005720 <_malloc_r+0x1c>
 800571c:	42a9      	cmp	r1, r5
 800571e:	d904      	bls.n	800572a <_malloc_r+0x26>
 8005720:	230c      	movs	r3, #12
 8005722:	6033      	str	r3, [r6, #0]
 8005724:	2000      	movs	r0, #0
 8005726:	e8bd 83f8 	ldmia.w	sp!, {r3, r4, r5, r6, r7, r8, r9, pc}
 800572a:	f8df 80d4 	ldr.w	r8, [pc, #212]	@ 8005800 <_malloc_r+0xfc>
 800572e:	f000 f869 	bl	8005804 <__malloc_lock>
 8005732:	f8d8 3000 	ldr.w	r3, [r8]
 8005736:	461c      	mov	r4, r3
 8005738:	bb44      	cbnz	r4, 800578c <_malloc_r+0x88>
 800573a:	4629      	mov	r1, r5
 800573c:	4630      	mov	r0, r6
 800573e:	f7ff ffbf 	bl	80056c0 <sbrk_aligned>
 8005742:	1c43      	adds	r3, r0, #1
 8005744:	4604      	mov	r4, r0
 8005746:	d158      	bne.n	80057fa <_malloc_r+0xf6>
 8005748:	f8d8 4000 	ldr.w	r4, [r8]
 800574c:	4627      	mov	r7, r4
 800574e:	2f00      	cmp	r7, #0
 8005750:	d143      	bne.n	80057da <_malloc_r+0xd6>
 8005752:	2c00      	cmp	r4, #0
 8005754:	d04b      	beq.n	80057ee <_malloc_r+0xea>
 8005756:	6823      	ldr	r3, [r4, #0]
 8005758:	4639      	mov	r1, r7
 800575a:	4630      	mov	r0, r6
 800575c:	eb04 0903 	add.w	r9, r4, r3
 8005760:	f000 fb5c 	bl	8005e1c <_sbrk_r>
 8005764:	4581      	cmp	r9, r0
 8005766:	d142      	bne.n	80057ee <_malloc_r+0xea>
 8005768:	6821      	ldr	r1, [r4, #0]
 800576a:	1a6d      	subs	r5, r5, r1
 800576c:	4629      	mov	r1, r5
 800576e:	4630      	mov	r0, r6
 8005770:	f7ff ffa6 	bl	80056c0 <sbrk_aligned>
 8005774:	3001      	adds	r0, #1
 8005776:	d03a      	beq.n	80057ee <_malloc_r+0xea>
 8005778:	6823      	ldr	r3, [r4, #0]
 800577a:	442b      	add	r3, r5
 800577c:	6023      	str	r3, [r4, #0]
 800577e:	f8d8 3000 	ldr.w	r3, [r8]
 8005782:	685a      	ldr	r2, [r3, #4]
 8005784:	bb62      	cbnz	r2, 80057e0 <_malloc_r+0xdc>
 8005786:	f8c8 7000 	str.w	r7, [r8]
 800578a:	e00f      	b.n	80057ac <_malloc_r+0xa8>
 800578c:	6822      	ldr	r2, [r4, #0]
 800578e:	1b52      	subs	r2, r2, r5
 8005790:	d420      	bmi.n	80057d4 <_malloc_r+0xd0>
 8005792:	2a0b      	cmp	r2, #11
 8005794:	d917      	bls.n	80057c6 <_malloc_r+0xc2>
 8005796:	1961      	adds	r1, r4, r5
 8005798:	42a3      	cmp	r3, r4
 800579a:	6025      	str	r5, [r4, #0]
 800579c:	bf18      	it	ne
 800579e:	6059      	strne	r1, [r3, #4]
 80057a0:	6863      	ldr	r3, [r4, #4]
 80057a2:	bf08      	it	eq
 80057a4:	f8c8 1000 	streq.w	r1, [r8]
 80057a8:	5162      	str	r2, [r4, r5]
 80057aa:	604b      	str	r3, [r1, #4]
 80057ac:	4630      	mov	r0, r6
 80057ae:	f000 f82f 	bl	8005810 <__malloc_unlock>
 80057b2:	f104 000b 	add.w	r0, r4, #11
 80057b6:	1d23      	adds	r3, r4, #4
 80057b8:	f020 0007 	bic.w	r0, r0, #7
 80057bc:	1ac2      	subs	r2, r0, r3
 80057be:	bf1c      	itt	ne
 80057c0:	1a1b      	subne	r3, r3, r0
 80057c2:	50a3      	strne	r3, [r4, r2]
 80057c4:	e7af      	b.n	8005726 <_malloc_r+0x22>
 80057c6:	6862      	ldr	r2, [r4, #4]
 80057c8:	42a3      	cmp	r3, r4
 80057ca:	bf0c      	ite	eq
 80057cc:	f8c8 2000 	streq.w	r2, [r8]
 80057d0:	605a      	strne	r2, [r3, #4]
 80057d2:	e7eb      	b.n	80057ac <_malloc_r+0xa8>
 80057d4:	4623      	mov	r3, r4
 80057d6:	6864      	ldr	r4, [r4, #4]
 80057d8:	e7ae      	b.n	8005738 <_malloc_r+0x34>
 80057da:	463c      	mov	r4, r7
 80057dc:	687f      	ldr	r7, [r7, #4]
 80057de:	e7b6      	b.n	800574e <_malloc_r+0x4a>
 80057e0:	461a      	mov	r2, r3
 80057e2:	685b      	ldr	r3, [r3, #4]
 80057e4:	42a3      	cmp	r3, r4
 80057e6:	d1fb      	bne.n	80057e0 <_malloc_r+0xdc>
 80057e8:	2300      	movs	r3, #0
 80057ea:	6053      	str	r3, [r2, #4]
 80057ec:	e7de      	b.n	80057ac <_malloc_r+0xa8>
 80057ee:	230c      	movs	r3, #12
 80057f0:	6033      	str	r3, [r6, #0]
 80057f2:	4630      	mov	r0, r6
 80057f4:	f000 f80c 	bl	8005810 <__malloc_unlock>
 80057f8:	e794      	b.n	8005724 <_malloc_r+0x20>
 80057fa:	6005      	str	r5, [r0, #0]
 80057fc:	e7d6      	b.n	80057ac <_malloc_r+0xa8>
 80057fe:	bf00      	nop
 8005800:	2000037c 	.word	0x2000037c

08005804 <__malloc_lock>:
 8005804:	4801      	ldr	r0, [pc, #4]	@ (800580c <__malloc_lock+0x8>)
 8005806:	f7ff bf0f 	b.w	8005628 <__retarget_lock_acquire_recursive>
 800580a:	bf00      	nop
 800580c:	20000374 	.word	0x20000374

08005810 <__malloc_unlock>:
 8005810:	4801      	ldr	r0, [pc, #4]	@ (8005818 <__malloc_unlock+0x8>)
 8005812:	f7ff bf0a 	b.w	800562a <__retarget_lock_release_recursive>
 8005816:	bf00      	nop
 8005818:	20000374 	.word	0x20000374

0800581c <__ssputs_r>:
 800581c:	e92d 47f0 	stmdb	sp!, {r4, r5, r6, r7, r8, r9, sl, lr}
 8005820:	688e      	ldr	r6, [r1, #8]
 8005822:	461f      	mov	r7, r3
 8005824:	42be      	cmp	r6, r7
 8005826:	680b      	ldr	r3, [r1, #0]
 8005828:	4682      	mov	sl, r0
 800582a:	460c      	mov	r4, r1
 800582c:	4690      	mov	r8, r2
 800582e:	d82d      	bhi.n	800588c <__ssputs_r+0x70>
 8005830:	f9b1 200c 	ldrsh.w	r2, [r1, #12]
 8005834:	f412 6f90 	tst.w	r2, #1152	@ 0x480
 8005838:	d026      	beq.n	8005888 <__ssputs_r+0x6c>
 800583a:	6965      	ldr	r5, [r4, #20]
 800583c:	6909      	ldr	r1, [r1, #16]
 800583e:	eb05 0545 	add.w	r5, r5, r5, lsl #1
 8005842:	eba3 0901 	sub.w	r9, r3, r1
 8005846:	eb05 75d5 	add.w	r5, r5, r5, lsr #31
 800584a:	1c7b      	adds	r3, r7, #1
 800584c:	444b      	add	r3, r9
 800584e:	106d      	asrs	r5, r5, #1
 8005850:	429d      	cmp	r5, r3
 8005852:	bf38      	it	cc
 8005854:	461d      	movcc	r5, r3
 8005856:	0553      	lsls	r3, r2, #21
 8005858:	d527      	bpl.n	80058aa <__ssputs_r+0x8e>
 800585a:	4629      	mov	r1, r5
 800585c:	f7ff ff52 	bl	8005704 <_malloc_r>
 8005860:	4606      	mov	r6, r0
 8005862:	b360      	cbz	r0, 80058be <__ssputs_r+0xa2>
 8005864:	6921      	ldr	r1, [r4, #16]
 8005866:	464a      	mov	r2, r9
 8005868:	f000 fae8 	bl	8005e3c <memcpy>
 800586c:	89a3      	ldrh	r3, [r4, #12]
 800586e:	f423 6390 	bic.w	r3, r3, #1152	@ 0x480
 8005872:	f043 0380 	orr.w	r3, r3, #128	@ 0x80
 8005876:	81a3      	strh	r3, [r4, #12]
 8005878:	6126      	str	r6, [r4, #16]
 800587a:	6165      	str	r5, [r4, #20]
 800587c:	444e      	add	r6, r9
 800587e:	eba5 0509 	sub.w	r5, r5, r9
 8005882:	6026      	str	r6, [r4, #0]
 8005884:	60a5      	str	r5, [r4, #8]
 8005886:	463e      	mov	r6, r7
 8005888:	42be      	cmp	r6, r7
 800588a:	d900      	bls.n	800588e <__ssputs_r+0x72>
 800588c:	463e      	mov	r6, r7
 800588e:	6820      	ldr	r0, [r4, #0]
 8005890:	4632      	mov	r2, r6
 8005892:	4641      	mov	r1, r8
 8005894:	f000 faa8 	bl	8005de8 <memmove>
 8005898:	68a3      	ldr	r3, [r4, #8]
 800589a:	1b9b      	subs	r3, r3, r6
 800589c:	60a3      	str	r3, [r4, #8]
 800589e:	6823      	ldr	r3, [r4, #0]
 80058a0:	4433      	add	r3, r6
 80058a2:	6023      	str	r3, [r4, #0]
 80058a4:	2000      	movs	r0, #0
 80058a6:	e8bd 87f0 	ldmia.w	sp!, {r4, r5, r6, r7, r8, r9, sl, pc}
 80058aa:	462a      	mov	r2, r5
 80058ac:	f000 fad4 	bl	8005e58 <_realloc_r>
 80058b0:	4606      	mov	r6, r0
 80058b2:	2800      	cmp	r0, #0
 80058b4:	d1e0      	bne.n	8005878 <__ssputs_r+0x5c>
 80058b6:	6921      	ldr	r1, [r4, #16]
 80058b8:	4650      	mov	r0, sl
 80058ba:	f7ff feb7 	bl	800562c <_free_r>
 80058be:	230c      	movs	r3, #12
 80058c0:	f8ca 3000 	str.w	r3, [sl]
 80058c4:	89a3      	ldrh	r3, [r4, #12]
 80058c6:	f043 0340 	orr.w	r3, r3, #64	@ 0x40
 80058ca:	81a3      	strh	r3, [r4, #12]
 80058cc:	f04f 30ff 	mov.w	r0, #4294967295
 80058d0:	e7e9      	b.n	80058a6 <__ssputs_r+0x8a>
	...

080058d4 <_svfiprintf_r>:
 80058d4:	e92d 4ff0 	stmdb	sp!, {r4, r5, r6, r7, r8, r9, sl, fp, lr}
 80058d8:	4698      	mov	r8, r3
 80058da:	898b      	ldrh	r3, [r1, #12]
 80058dc:	061b      	lsls	r3, r3, #24
 80058de:	b09d      	sub	sp, #116	@ 0x74
 80058e0:	4607      	mov	r7, r0
 80058e2:	460d      	mov	r5, r1
 80058e4:	4614      	mov	r4, r2
 80058e6:	d510      	bpl.n	800590a <_svfiprintf_r+0x36>
 80058e8:	690b      	ldr	r3, [r1, #16]
 80058ea:	b973      	cbnz	r3, 800590a <_svfiprintf_r+0x36>
 80058ec:	2140      	movs	r1, #64	@ 0x40
 80058ee:	f7ff ff09 	bl	8005704 <_malloc_r>
 80058f2:	6028      	str	r0, [r5, #0]
 80058f4:	6128      	str	r0, [r5, #16]
 80058f6:	b930      	cbnz	r0, 8005906 <_svfiprintf_r+0x32>
 80058f8:	230c      	movs	r3, #12
 80058fa:	603b      	str	r3, [r7, #0]
 80058fc:	f04f 30ff 	mov.w	r0, #4294967295
 8005900:	b01d      	add	sp, #116	@ 0x74
 8005902:	e8bd 8ff0 	ldmia.w	sp!, {r4, r5, r6, r7, r8, r9, sl, fp, pc}
 8005906:	2340      	movs	r3, #64	@ 0x40
 8005908:	616b      	str	r3, [r5, #20]
 800590a:	2300      	movs	r3, #0
 800590c:	9309      	str	r3, [sp, #36]	@ 0x24
 800590e:	2320      	movs	r3, #32
 8005910:	f88d 3029 	strb.w	r3, [sp, #41]	@ 0x29
 8005914:	f8cd 800c 	str.w	r8, [sp, #12]
 8005918:	2330      	movs	r3, #48	@ 0x30
 800591a:	f8df 819c 	ldr.w	r8, [pc, #412]	@ 8005ab8 <_svfiprintf_r+0x1e4>
 800591e:	f88d 302a 	strb.w	r3, [sp, #42]	@ 0x2a
 8005922:	f04f 0901 	mov.w	r9, #1
 8005926:	4623      	mov	r3, r4
 8005928:	469a      	mov	sl, r3
 800592a:	f813 2b01 	ldrb.w	r2, [r3], #1
 800592e:	b10a      	cbz	r2, 8005934 <_svfiprintf_r+0x60>
 8005930:	2a25      	cmp	r2, #37	@ 0x25
 8005932:	d1f9      	bne.n	8005928 <_svfiprintf_r+0x54>
 8005934:	ebba 0b04 	subs.w	fp, sl, r4
 8005938:	d00b      	beq.n	8005952 <_svfiprintf_r+0x7e>
 800593a:	465b      	mov	r3, fp
 800593c:	4622      	mov	r2, r4
 800593e:	4629      	mov	r1, r5
 8005940:	4638      	mov	r0, r7
 8005942:	f7ff ff6b 	bl	800581c <__ssputs_r>
 8005946:	3001      	adds	r0, #1
 8005948:	f000 80a7 	beq.w	8005a9a <_svfiprintf_r+0x1c6>
 800594c:	9a09      	ldr	r2, [sp, #36]	@ 0x24
 800594e:	445a      	add	r2, fp
 8005950:	9209      	str	r2, [sp, #36]	@ 0x24
 8005952:	f89a 3000 	ldrb.w	r3, [sl]
 8005956:	2b00      	cmp	r3, #0
 8005958:	f000 809f 	beq.w	8005a9a <_svfiprintf_r+0x1c6>
 800595c:	2300      	movs	r3, #0
 800595e:	f04f 32ff 	mov.w	r2, #4294967295
 8005962:	e9cd 2305 	strd	r2, r3, [sp, #20]
 8005966:	f10a 0a01 	add.w	sl, sl, #1
 800596a:	9304      	str	r3, [sp, #16]
 800596c:	9307      	str	r3, [sp, #28]
 800596e:	f88d 3053 	strb.w	r3, [sp, #83]	@ 0x53
 8005972:	931a      	str	r3, [sp, #104]	@ 0x68
 8005974:	4654      	mov	r4, sl
 8005976:	2205      	movs	r2, #5
 8005978:	f814 1b01 	ldrb.w	r1, [r4], #1
 800597c:	484e      	ldr	r0, [pc, #312]	@ (8005ab8 <_svfiprintf_r+0x1e4>)
 800597e:	f7fa fc2f 	bl	80001e0 <memchr>
 8005982:	9a04      	ldr	r2, [sp, #16]
 8005984:	b9d8      	cbnz	r0, 80059be <_svfiprintf_r+0xea>
 8005986:	06d0      	lsls	r0, r2, #27
 8005988:	bf44      	itt	mi
 800598a:	2320      	movmi	r3, #32
 800598c:	f88d 3053 	strbmi.w	r3, [sp, #83]	@ 0x53
 8005990:	0711      	lsls	r1, r2, #28
 8005992:	bf44      	itt	mi
 8005994:	232b      	movmi	r3, #43	@ 0x2b
 8005996:	f88d 3053 	strbmi.w	r3, [sp, #83]	@ 0x53
 800599a:	f89a 3000 	ldrb.w	r3, [sl]
 800599e:	2b2a      	cmp	r3, #42	@ 0x2a
 80059a0:	d015      	beq.n	80059ce <_svfiprintf_r+0xfa>
 80059a2:	9a07      	ldr	r2, [sp, #28]
 80059a4:	4654      	mov	r4, sl
 80059a6:	2000      	movs	r0, #0
 80059a8:	f04f 0c0a 	mov.w	ip, #10
 80059ac:	4621      	mov	r1, r4
 80059ae:	f811 3b01 	ldrb.w	r3, [r1], #1
 80059b2:	3b30      	subs	r3, #48	@ 0x30
 80059b4:	2b09      	cmp	r3, #9
 80059b6:	d94b      	bls.n	8005a50 <_svfiprintf_r+0x17c>
 80059b8:	b1b0      	cbz	r0, 80059e8 <_svfiprintf_r+0x114>
 80059ba:	9207      	str	r2, [sp, #28]
 80059bc:	e014      	b.n	80059e8 <_svfiprintf_r+0x114>
 80059be:	eba0 0308 	sub.w	r3, r0, r8
 80059c2:	fa09 f303 	lsl.w	r3, r9, r3
 80059c6:	4313      	orrs	r3, r2
 80059c8:	9304      	str	r3, [sp, #16]
 80059ca:	46a2      	mov	sl, r4
 80059cc:	e7d2      	b.n	8005974 <_svfiprintf_r+0xa0>
 80059ce:	9b03      	ldr	r3, [sp, #12]
 80059d0:	1d19      	adds	r1, r3, #4
 80059d2:	681b      	ldr	r3, [r3, #0]
 80059d4:	9103      	str	r1, [sp, #12]
 80059d6:	2b00      	cmp	r3, #0
 80059d8:	bfbb      	ittet	lt
 80059da:	425b      	neglt	r3, r3
 80059dc:	f042 0202 	orrlt.w	r2, r2, #2
 80059e0:	9307      	strge	r3, [sp, #28]
 80059e2:	9307      	strlt	r3, [sp, #28]
 80059e4:	bfb8      	it	lt
 80059e6:	9204      	strlt	r2, [sp, #16]
 80059e8:	7823      	ldrb	r3, [r4, #0]
 80059ea:	2b2e      	cmp	r3, #46	@ 0x2e
 80059ec:	d10a      	bne.n	8005a04 <_svfiprintf_r+0x130>
 80059ee:	7863      	ldrb	r3, [r4, #1]
 80059f0:	2b2a      	cmp	r3, #42	@ 0x2a
 80059f2:	d132      	bne.n	8005a5a <_svfiprintf_r+0x186>
 80059f4:	9b03      	ldr	r3, [sp, #12]
 80059f6:	1d1a      	adds	r2, r3, #4
 80059f8:	681b      	ldr	r3, [r3, #0]
 80059fa:	9203      	str	r2, [sp, #12]
 80059fc:	ea43 73e3 	orr.w	r3, r3, r3, asr #31
 8005a00:	3402      	adds	r4, #2
 8005a02:	9305      	str	r3, [sp, #20]
 8005a04:	f8df a0c0 	ldr.w	sl, [pc, #192]	@ 8005ac8 <_svfiprintf_r+0x1f4>
 8005a08:	7821      	ldrb	r1, [r4, #0]
 8005a0a:	2203      	movs	r2, #3
 8005a0c:	4650      	mov	r0, sl
 8005a0e:	f7fa fbe7 	bl	80001e0 <memchr>
 8005a12:	b138      	cbz	r0, 8005a24 <_svfiprintf_r+0x150>
 8005a14:	9b04      	ldr	r3, [sp, #16]
 8005a16:	eba0 000a 	sub.w	r0, r0, sl
 8005a1a:	2240      	movs	r2, #64	@ 0x40
 8005a1c:	4082      	lsls	r2, r0
 8005a1e:	4313      	orrs	r3, r2
 8005a20:	3401      	adds	r4, #1
 8005a22:	9304      	str	r3, [sp, #16]
 8005a24:	f814 1b01 	ldrb.w	r1, [r4], #1
 8005a28:	4824      	ldr	r0, [pc, #144]	@ (8005abc <_svfiprintf_r+0x1e8>)
 8005a2a:	f88d 1028 	strb.w	r1, [sp, #40]	@ 0x28
 8005a2e:	2206      	movs	r2, #6
 8005a30:	f7fa fbd6 	bl	80001e0 <memchr>
 8005a34:	2800      	cmp	r0, #0
 8005a36:	d036      	beq.n	8005aa6 <_svfiprintf_r+0x1d2>
 8005a38:	4b21      	ldr	r3, [pc, #132]	@ (8005ac0 <_svfiprintf_r+0x1ec>)
 8005a3a:	bb1b      	cbnz	r3, 8005a84 <_svfiprintf_r+0x1b0>
 8005a3c:	9b03      	ldr	r3, [sp, #12]
 8005a3e:	3307      	adds	r3, #7
 8005a40:	f023 0307 	bic.w	r3, r3, #7
 8005a44:	3308      	adds	r3, #8
 8005a46:	9303      	str	r3, [sp, #12]
 8005a48:	9b09      	ldr	r3, [sp, #36]	@ 0x24
 8005a4a:	4433      	add	r3, r6
 8005a4c:	9309      	str	r3, [sp, #36]	@ 0x24
 8005a4e:	e76a      	b.n	8005926 <_svfiprintf_r+0x52>
 8005a50:	fb0c 3202 	mla	r2, ip, r2, r3
 8005a54:	460c      	mov	r4, r1
 8005a56:	2001      	movs	r0, #1
 8005a58:	e7a8      	b.n	80059ac <_svfiprintf_r+0xd8>
 8005a5a:	2300      	movs	r3, #0
 8005a5c:	3401      	adds	r4, #1
 8005a5e:	9305      	str	r3, [sp, #20]
 8005a60:	4619      	mov	r1, r3
 8005a62:	f04f 0c0a 	mov.w	ip, #10
 8005a66:	4620      	mov	r0, r4
 8005a68:	f810 2b01 	ldrb.w	r2, [r0], #1
 8005a6c:	3a30      	subs	r2, #48	@ 0x30
 8005a6e:	2a09      	cmp	r2, #9
 8005a70:	d903      	bls.n	8005a7a <_svfiprintf_r+0x1a6>
 8005a72:	2b00      	cmp	r3, #0
 8005a74:	d0c6      	beq.n	8005a04 <_svfiprintf_r+0x130>
 8005a76:	9105      	str	r1, [sp, #20]
 8005a78:	e7c4      	b.n	8005a04 <_svfiprintf_r+0x130>
 8005a7a:	fb0c 2101 	mla	r1, ip, r1, r2
 8005a7e:	4604      	mov	r4, r0
 8005a80:	2301      	movs	r3, #1
 8005a82:	e7f0      	b.n	8005a66 <_svfiprintf_r+0x192>
 8005a84:	ab03      	add	r3, sp, #12
 8005a86:	9300      	str	r3, [sp, #0]
 8005a88:	462a      	mov	r2, r5
 8005a8a:	4b0e      	ldr	r3, [pc, #56]	@ (8005ac4 <_svfiprintf_r+0x1f0>)
 8005a8c:	a904      	add	r1, sp, #16
 8005a8e:	4638      	mov	r0, r7
 8005a90:	f3af 8000 	nop.w
 8005a94:	1c42      	adds	r2, r0, #1
 8005a96:	4606      	mov	r6, r0
 8005a98:	d1d6      	bne.n	8005a48 <_svfiprintf_r+0x174>
 8005a9a:	89ab      	ldrh	r3, [r5, #12]
 8005a9c:	065b      	lsls	r3, r3, #25
 8005a9e:	f53f af2d 	bmi.w	80058fc <_svfiprintf_r+0x28>
 8005aa2:	9809      	ldr	r0, [sp, #36]	@ 0x24
 8005aa4:	e72c      	b.n	8005900 <_svfiprintf_r+0x2c>
 8005aa6:	ab03      	add	r3, sp, #12
 8005aa8:	9300      	str	r3, [sp, #0]
 8005aaa:	462a      	mov	r2, r5
 8005aac:	4b05      	ldr	r3, [pc, #20]	@ (8005ac4 <_svfiprintf_r+0x1f0>)
 8005aae:	a904      	add	r1, sp, #16
 8005ab0:	4638      	mov	r0, r7
 8005ab2:	f000 f879 	bl	8005ba8 <_printf_i>
 8005ab6:	e7ed      	b.n	8005a94 <_svfiprintf_r+0x1c0>
 8005ab8:	08005f20 	.word	0x08005f20
 8005abc:	08005f2a 	.word	0x08005f2a
 8005ac0:	00000000 	.word	0x00000000
 8005ac4:	0800581d 	.word	0x0800581d
 8005ac8:	08005f26 	.word	0x08005f26

08005acc <_printf_common>:
 8005acc:	e92d 47f0 	stmdb	sp!, {r4, r5, r6, r7, r8, r9, sl, lr}
 8005ad0:	4616      	mov	r6, r2
 8005ad2:	4698      	mov	r8, r3
 8005ad4:	688a      	ldr	r2, [r1, #8]
 8005ad6:	690b      	ldr	r3, [r1, #16]
 8005ad8:	f8dd 9020 	ldr.w	r9, [sp, #32]
 8005adc:	4293      	cmp	r3, r2
 8005ade:	bfb8      	it	lt
 8005ae0:	4613      	movlt	r3, r2
 8005ae2:	6033      	str	r3, [r6, #0]
 8005ae4:	f891 2043 	ldrb.w	r2, [r1, #67]	@ 0x43
 8005ae8:	4607      	mov	r7, r0
 8005aea:	460c      	mov	r4, r1
 8005aec:	b10a      	cbz	r2, 8005af2 <_printf_common+0x26>
 8005aee:	3301      	adds	r3, #1
 8005af0:	6033      	str	r3, [r6, #0]
 8005af2:	6823      	ldr	r3, [r4, #0]
 8005af4:	0699      	lsls	r1, r3, #26
 8005af6:	bf42      	ittt	mi
 8005af8:	6833      	ldrmi	r3, [r6, #0]
 8005afa:	3302      	addmi	r3, #2
 8005afc:	6033      	strmi	r3, [r6, #0]
 8005afe:	6825      	ldr	r5, [r4, #0]
 8005b00:	f015 0506 	ands.w	r5, r5, #6
 8005b04:	d106      	bne.n	8005b14 <_printf_common+0x48>
 8005b06:	f104 0a19 	add.w	sl, r4, #25
 8005b0a:	68e3      	ldr	r3, [r4, #12]
 8005b0c:	6832      	ldr	r2, [r6, #0]
 8005b0e:	1a9b      	subs	r3, r3, r2
 8005b10:	42ab      	cmp	r3, r5
 8005b12:	dc26      	bgt.n	8005b62 <_printf_common+0x96>
 8005b14:	f894 3043 	ldrb.w	r3, [r4, #67]	@ 0x43
 8005b18:	6822      	ldr	r2, [r4, #0]
 8005b1a:	3b00      	subs	r3, #0
 8005b1c:	bf18      	it	ne
 8005b1e:	2301      	movne	r3, #1
 8005b20:	0692      	lsls	r2, r2, #26
 8005b22:	d42b      	bmi.n	8005b7c <_printf_common+0xb0>
 8005b24:	f104 0243 	add.w	r2, r4, #67	@ 0x43
 8005b28:	4641      	mov	r1, r8
 8005b2a:	4638      	mov	r0, r7
 8005b2c:	47c8      	blx	r9
 8005b2e:	3001      	adds	r0, #1
 8005b30:	d01e      	beq.n	8005b70 <_printf_common+0xa4>
 8005b32:	6823      	ldr	r3, [r4, #0]
 8005b34:	6922      	ldr	r2, [r4, #16]
 8005b36:	f003 0306 	and.w	r3, r3, #6
 8005b3a:	2b04      	cmp	r3, #4
 8005b3c:	bf02      	ittt	eq
 8005b3e:	68e5      	ldreq	r5, [r4, #12]
 8005b40:	6833      	ldreq	r3, [r6, #0]
 8005b42:	1aed      	subeq	r5, r5, r3
 8005b44:	68a3      	ldr	r3, [r4, #8]
 8005b46:	bf0c      	ite	eq
 8005b48:	ea25 75e5 	biceq.w	r5, r5, r5, asr #31
 8005b4c:	2500      	movne	r5, #0
 8005b4e:	4293      	cmp	r3, r2
 8005b50:	bfc4      	itt	gt
 8005b52:	1a9b      	subgt	r3, r3, r2
 8005b54:	18ed      	addgt	r5, r5, r3
 8005b56:	2600      	movs	r6, #0
 8005b58:	341a      	adds	r4, #26
 8005b5a:	42b5      	cmp	r5, r6
 8005b5c:	d11a      	bne.n	8005b94 <_printf_common+0xc8>
 8005b5e:	2000      	movs	r0, #0
 8005b60:	e008      	b.n	8005b74 <_printf_common+0xa8>
 8005b62:	2301      	movs	r3, #1
 8005b64:	4652      	mov	r2, sl
 8005b66:	4641      	mov	r1, r8
 8005b68:	4638      	mov	r0, r7
 8005b6a:	47c8      	blx	r9
 8005b6c:	3001      	adds	r0, #1
 8005b6e:	d103      	bne.n	8005b78 <_printf_common+0xac>
 8005b70:	f04f 30ff 	mov.w	r0, #4294967295
 8005b74:	e8bd 87f0 	ldmia.w	sp!, {r4, r5, r6, r7, r8, r9, sl, pc}
 8005b78:	3501      	adds	r5, #1
 8005b7a:	e7c6      	b.n	8005b0a <_printf_common+0x3e>
 8005b7c:	18e1      	adds	r1, r4, r3
 8005b7e:	1c5a      	adds	r2, r3, #1
 8005b80:	2030      	movs	r0, #48	@ 0x30
 8005b82:	f881 0043 	strb.w	r0, [r1, #67]	@ 0x43
 8005b86:	4422      	add	r2, r4
 8005b88:	f894 1045 	ldrb.w	r1, [r4, #69]	@ 0x45
 8005b8c:	f882 1043 	strb.w	r1, [r2, #67]	@ 0x43
 8005b90:	3302      	adds	r3, #2
 8005b92:	e7c7      	b.n	8005b24 <_printf_common+0x58>
 8005b94:	2301      	movs	r3, #1
 8005b96:	4622      	mov	r2, r4
 8005b98:	4641      	mov	r1, r8
 8005b9a:	4638      	mov	r0, r7
 8005b9c:	47c8      	blx	r9
 8005b9e:	3001      	adds	r0, #1
 8005ba0:	d0e6      	beq.n	8005b70 <_printf_common+0xa4>
 8005ba2:	3601      	adds	r6, #1
 8005ba4:	e7d9      	b.n	8005b5a <_printf_common+0x8e>
	...

08005ba8 <_printf_i>:
 8005ba8:	e92d 47ff 	stmdb	sp!, {r0, r1, r2, r3, r4, r5, r6, r7, r8, r9, sl, lr}
 8005bac:	7e0f      	ldrb	r7, [r1, #24]
 8005bae:	9e0c      	ldr	r6, [sp, #48]	@ 0x30
 8005bb0:	2f78      	cmp	r7, #120	@ 0x78
 8005bb2:	4691      	mov	r9, r2
 8005bb4:	4680      	mov	r8, r0
 8005bb6:	460c      	mov	r4, r1
 8005bb8:	469a      	mov	sl, r3
 8005bba:	f101 0243 	add.w	r2, r1, #67	@ 0x43
 8005bbe:	d807      	bhi.n	8005bd0 <_printf_i+0x28>
 8005bc0:	2f62      	cmp	r7, #98	@ 0x62
 8005bc2:	d80a      	bhi.n	8005bda <_printf_i+0x32>
 8005bc4:	2f00      	cmp	r7, #0
 8005bc6:	f000 80d2 	beq.w	8005d6e <_printf_i+0x1c6>
 8005bca:	2f58      	cmp	r7, #88	@ 0x58
 8005bcc:	f000 80b9 	beq.w	8005d42 <_printf_i+0x19a>
 8005bd0:	f104 0642 	add.w	r6, r4, #66	@ 0x42
 8005bd4:	f884 7042 	strb.w	r7, [r4, #66]	@ 0x42
 8005bd8:	e03a      	b.n	8005c50 <_printf_i+0xa8>
 8005bda:	f1a7 0363 	sub.w	r3, r7, #99	@ 0x63
 8005bde:	2b15      	cmp	r3, #21
 8005be0:	d8f6      	bhi.n	8005bd0 <_printf_i+0x28>
 8005be2:	a101      	add	r1, pc, #4	@ (adr r1, 8005be8 <_printf_i+0x40>)
 8005be4:	f851 f023 	ldr.w	pc, [r1, r3, lsl #2]
 8005be8:	08005c41 	.word	0x08005c41
 8005bec:	08005c55 	.word	0x08005c55
 8005bf0:	08005bd1 	.word	0x08005bd1
 8005bf4:	08005bd1 	.word	0x08005bd1
 8005bf8:	08005bd1 	.word	0x08005bd1
 8005bfc:	08005bd1 	.word	0x08005bd1
 8005c00:	08005c55 	.word	0x08005c55
 8005c04:	08005bd1 	.word	0x08005bd1
 8005c08:	08005bd1 	.word	0x08005bd1
 8005c0c:	08005bd1 	.word	0x08005bd1
 8005c10:	08005bd1 	.word	0x08005bd1
 8005c14:	08005d55 	.word	0x08005d55
 8005c18:	08005c7f 	.word	0x08005c7f
 8005c1c:	08005d0f 	.word	0x08005d0f
 8005c20:	08005bd1 	.word	0x08005bd1
 8005c24:	08005bd1 	.word	0x08005bd1
 8005c28:	08005d77 	.word	0x08005d77
 8005c2c:	08005bd1 	.word	0x08005bd1
 8005c30:	08005c7f 	.word	0x08005c7f
 8005c34:	08005bd1 	.word	0x08005bd1
 8005c38:	08005bd1 	.word	0x08005bd1
 8005c3c:	08005d17 	.word	0x08005d17
 8005c40:	6833      	ldr	r3, [r6, #0]
 8005c42:	1d1a      	adds	r2, r3, #4
 8005c44:	681b      	ldr	r3, [r3, #0]
 8005c46:	6032      	str	r2, [r6, #0]
 8005c48:	f104 0642 	add.w	r6, r4, #66	@ 0x42
 8005c4c:	f884 3042 	strb.w	r3, [r4, #66]	@ 0x42
 8005c50:	2301      	movs	r3, #1
 8005c52:	e09d      	b.n	8005d90 <_printf_i+0x1e8>
 8005c54:	6833      	ldr	r3, [r6, #0]
 8005c56:	6820      	ldr	r0, [r4, #0]
 8005c58:	1d19      	adds	r1, r3, #4
 8005c5a:	6031      	str	r1, [r6, #0]
 8005c5c:	0606      	lsls	r6, r0, #24
 8005c5e:	d501      	bpl.n	8005c64 <_printf_i+0xbc>
 8005c60:	681d      	ldr	r5, [r3, #0]
 8005c62:	e003      	b.n	8005c6c <_printf_i+0xc4>
 8005c64:	0645      	lsls	r5, r0, #25
 8005c66:	d5fb      	bpl.n	8005c60 <_printf_i+0xb8>
 8005c68:	f9b3 5000 	ldrsh.w	r5, [r3]
 8005c6c:	2d00      	cmp	r5, #0
 8005c6e:	da03      	bge.n	8005c78 <_printf_i+0xd0>
 8005c70:	232d      	movs	r3, #45	@ 0x2d
 8005c72:	426d      	negs	r5, r5
 8005c74:	f884 3043 	strb.w	r3, [r4, #67]	@ 0x43
 8005c78:	4859      	ldr	r0, [pc, #356]	@ (8005de0 <_printf_i+0x238>)
 8005c7a:	230a      	movs	r3, #10
 8005c7c:	e011      	b.n	8005ca2 <_printf_i+0xfa>
 8005c7e:	6821      	ldr	r1, [r4, #0]
 8005c80:	6833      	ldr	r3, [r6, #0]
 8005c82:	0608      	lsls	r0, r1, #24
 8005c84:	f853 5b04 	ldr.w	r5, [r3], #4
 8005c88:	d402      	bmi.n	8005c90 <_printf_i+0xe8>
 8005c8a:	0649      	lsls	r1, r1, #25
 8005c8c:	bf48      	it	mi
 8005c8e:	b2ad      	uxthmi	r5, r5
 8005c90:	2f6f      	cmp	r7, #111	@ 0x6f
 8005c92:	4853      	ldr	r0, [pc, #332]	@ (8005de0 <_printf_i+0x238>)
 8005c94:	6033      	str	r3, [r6, #0]
 8005c96:	bf14      	ite	ne
 8005c98:	230a      	movne	r3, #10
 8005c9a:	2308      	moveq	r3, #8
 8005c9c:	2100      	movs	r1, #0
 8005c9e:	f884 1043 	strb.w	r1, [r4, #67]	@ 0x43
 8005ca2:	6866      	ldr	r6, [r4, #4]
 8005ca4:	60a6      	str	r6, [r4, #8]
 8005ca6:	2e00      	cmp	r6, #0
 8005ca8:	bfa2      	ittt	ge
 8005caa:	6821      	ldrge	r1, [r4, #0]
 8005cac:	f021 0104 	bicge.w	r1, r1, #4
 8005cb0:	6021      	strge	r1, [r4, #0]
 8005cb2:	b90d      	cbnz	r5, 8005cb8 <_printf_i+0x110>
 8005cb4:	2e00      	cmp	r6, #0
 8005cb6:	d04b      	beq.n	8005d50 <_printf_i+0x1a8>
 8005cb8:	4616      	mov	r6, r2
 8005cba:	fbb5 f1f3 	udiv	r1, r5, r3
 8005cbe:	fb03 5711 	mls	r7, r3, r1, r5
 8005cc2:	5dc7      	ldrb	r7, [r0, r7]
 8005cc4:	f806 7d01 	strb.w	r7, [r6, #-1]!
 8005cc8:	462f      	mov	r7, r5
 8005cca:	42bb      	cmp	r3, r7
 8005ccc:	460d      	mov	r5, r1
 8005cce:	d9f4      	bls.n	8005cba <_printf_i+0x112>
 8005cd0:	2b08      	cmp	r3, #8
 8005cd2:	d10b      	bne.n	8005cec <_printf_i+0x144>
 8005cd4:	6823      	ldr	r3, [r4, #0]
 8005cd6:	07df      	lsls	r7, r3, #31
 8005cd8:	d508      	bpl.n	8005cec <_printf_i+0x144>
 8005cda:	6923      	ldr	r3, [r4, #16]
 8005cdc:	6861      	ldr	r1, [r4, #4]
 8005cde:	4299      	cmp	r1, r3
 8005ce0:	bfde      	ittt	le
 8005ce2:	2330      	movle	r3, #48	@ 0x30
 8005ce4:	f806 3c01 	strble.w	r3, [r6, #-1]
 8005ce8:	f106 36ff 	addle.w	r6, r6, #4294967295
 8005cec:	1b92      	subs	r2, r2, r6
 8005cee:	6122      	str	r2, [r4, #16]
 8005cf0:	f8cd a000 	str.w	sl, [sp]
 8005cf4:	464b      	mov	r3, r9
 8005cf6:	aa03      	add	r2, sp, #12
 8005cf8:	4621      	mov	r1, r4
 8005cfa:	4640      	mov	r0, r8
 8005cfc:	f7ff fee6 	bl	8005acc <_printf_common>
 8005d00:	3001      	adds	r0, #1
 8005d02:	d14a      	bne.n	8005d9a <_printf_i+0x1f2>
 8005d04:	f04f 30ff 	mov.w	r0, #4294967295
 8005d08:	b004      	add	sp, #16
 8005d0a:	e8bd 87f0 	ldmia.w	sp!, {r4, r5, r6, r7, r8, r9, sl, pc}
 8005d0e:	6823      	ldr	r3, [r4, #0]
 8005d10:	f043 0320 	orr.w	r3, r3, #32
 8005d14:	6023      	str	r3, [r4, #0]
 8005d16:	4833      	ldr	r0, [pc, #204]	@ (8005de4 <_printf_i+0x23c>)
 8005d18:	2778      	movs	r7, #120	@ 0x78
 8005d1a:	f884 7045 	strb.w	r7, [r4, #69]	@ 0x45
 8005d1e:	6823      	ldr	r3, [r4, #0]
 8005d20:	6831      	ldr	r1, [r6, #0]
 8005d22:	061f      	lsls	r7, r3, #24
 8005d24:	f851 5b04 	ldr.w	r5, [r1], #4
 8005d28:	d402      	bmi.n	8005d30 <_printf_i+0x188>
 8005d2a:	065f      	lsls	r7, r3, #25
 8005d2c:	bf48      	it	mi
 8005d2e:	b2ad      	uxthmi	r5, r5
 8005d30:	6031      	str	r1, [r6, #0]
 8005d32:	07d9      	lsls	r1, r3, #31
 8005d34:	bf44      	itt	mi
 8005d36:	f043 0320 	orrmi.w	r3, r3, #32
 8005d3a:	6023      	strmi	r3, [r4, #0]
 8005d3c:	b11d      	cbz	r5, 8005d46 <_printf_i+0x19e>
 8005d3e:	2310      	movs	r3, #16
 8005d40:	e7ac      	b.n	8005c9c <_printf_i+0xf4>
 8005d42:	4827      	ldr	r0, [pc, #156]	@ (8005de0 <_printf_i+0x238>)
 8005d44:	e7e9      	b.n	8005d1a <_printf_i+0x172>
 8005d46:	6823      	ldr	r3, [r4, #0]
 8005d48:	f023 0320 	bic.w	r3, r3, #32
 8005d4c:	6023      	str	r3, [r4, #0]
 8005d4e:	e7f6      	b.n	8005d3e <_printf_i+0x196>
 8005d50:	4616      	mov	r6, r2
 8005d52:	e7bd      	b.n	8005cd0 <_printf_i+0x128>
 8005d54:	6833      	ldr	r3, [r6, #0]
 8005d56:	6825      	ldr	r5, [r4, #0]
 8005d58:	6961      	ldr	r1, [r4, #20]
 8005d5a:	1d18      	adds	r0, r3, #4
 8005d5c:	6030      	str	r0, [r6, #0]
 8005d5e:	062e      	lsls	r6, r5, #24
 8005d60:	681b      	ldr	r3, [r3, #0]
 8005d62:	d501      	bpl.n	8005d68 <_printf_i+0x1c0>
 8005d64:	6019      	str	r1, [r3, #0]
 8005d66:	e002      	b.n	8005d6e <_printf_i+0x1c6>
 8005d68:	0668      	lsls	r0, r5, #25
 8005d6a:	d5fb      	bpl.n	8005d64 <_printf_i+0x1bc>
 8005d6c:	8019      	strh	r1, [r3, #0]
 8005d6e:	2300      	movs	r3, #0
 8005d70:	6123      	str	r3, [r4, #16]
 8005d72:	4616      	mov	r6, r2
 8005d74:	e7bc      	b.n	8005cf0 <_printf_i+0x148>
 8005d76:	6833      	ldr	r3, [r6, #0]
 8005d78:	1d1a      	adds	r2, r3, #4
 8005d7a:	6032      	str	r2, [r6, #0]
 8005d7c:	681e      	ldr	r6, [r3, #0]
 8005d7e:	6862      	ldr	r2, [r4, #4]
 8005d80:	2100      	movs	r1, #0
 8005d82:	4630      	mov	r0, r6
 8005d84:	f7fa fa2c 	bl	80001e0 <memchr>
 8005d88:	b108      	cbz	r0, 8005d8e <_printf_i+0x1e6>
 8005d8a:	1b80      	subs	r0, r0, r6
 8005d8c:	6060      	str	r0, [r4, #4]
 8005d8e:	6863      	ldr	r3, [r4, #4]
 8005d90:	6123      	str	r3, [r4, #16]
 8005d92:	2300      	movs	r3, #0
 8005d94:	f884 3043 	strb.w	r3, [r4, #67]	@ 0x43
 8005d98:	e7aa      	b.n	8005cf0 <_printf_i+0x148>
 8005d9a:	6923      	ldr	r3, [r4, #16]
 8005d9c:	4632      	mov	r2, r6
 8005d9e:	4649      	mov	r1, r9
 8005da0:	4640      	mov	r0, r8
 8005da2:	47d0      	blx	sl
 8005da4:	3001      	adds	r0, #1
 8005da6:	d0ad      	beq.n	8005d04 <_printf_i+0x15c>
 8005da8:	6823      	ldr	r3, [r4, #0]
 8005daa:	079b      	lsls	r3, r3, #30
 8005dac:	d413      	bmi.n	8005dd6 <_printf_i+0x22e>
 8005dae:	68e0      	ldr	r0, [r4, #12]
 8005db0:	9b03      	ldr	r3, [sp, #12]
 8005db2:	4298      	cmp	r0, r3
 8005db4:	bfb8      	it	lt
 8005db6:	4618      	movlt	r0, r3
 8005db8:	e7a6      	b.n	8005d08 <_printf_i+0x160>
 8005dba:	2301      	movs	r3, #1
 8005dbc:	4632      	mov	r2, r6
 8005dbe:	4649      	mov	r1, r9
 8005dc0:	4640      	mov	r0, r8
 8005dc2:	47d0      	blx	sl
 8005dc4:	3001      	adds	r0, #1
 8005dc6:	d09d      	beq.n	8005d04 <_printf_i+0x15c>
 8005dc8:	3501      	adds	r5, #1
 8005dca:	68e3      	ldr	r3, [r4, #12]
 8005dcc:	9903      	ldr	r1, [sp, #12]
 8005dce:	1a5b      	subs	r3, r3, r1
 8005dd0:	42ab      	cmp	r3, r5
 8005dd2:	dcf2      	bgt.n	8005dba <_printf_i+0x212>
 8005dd4:	e7eb      	b.n	8005dae <_printf_i+0x206>
 8005dd6:	2500      	movs	r5, #0
 8005dd8:	f104 0619 	add.w	r6, r4, #25
 8005ddc:	e7f5      	b.n	8005dca <_printf_i+0x222>
 8005dde:	bf00      	nop
 8005de0:	08005f31 	.word	0x08005f31
 8005de4:	08005f42 	.word	0x08005f42

08005de8 <memmove>:
 8005de8:	4288      	cmp	r0, r1
 8005dea:	b510      	push	{r4, lr}
 8005dec:	eb01 0402 	add.w	r4, r1, r2
 8005df0:	d902      	bls.n	8005df8 <memmove+0x10>
 8005df2:	4284      	cmp	r4, r0
 8005df4:	4623      	mov	r3, r4
 8005df6:	d807      	bhi.n	8005e08 <memmove+0x20>
 8005df8:	1e43      	subs	r3, r0, #1
 8005dfa:	42a1      	cmp	r1, r4
 8005dfc:	d008      	beq.n	8005e10 <memmove+0x28>
 8005dfe:	f811 2b01 	ldrb.w	r2, [r1], #1
 8005e02:	f803 2f01 	strb.w	r2, [r3, #1]!
 8005e06:	e7f8      	b.n	8005dfa <memmove+0x12>
 8005e08:	4402      	add	r2, r0
 8005e0a:	4601      	mov	r1, r0
 8005e0c:	428a      	cmp	r2, r1
 8005e0e:	d100      	bne.n	8005e12 <memmove+0x2a>
 8005e10:	bd10      	pop	{r4, pc}
 8005e12:	f813 4d01 	ldrb.w	r4, [r3, #-1]!
 8005e16:	f802 4d01 	strb.w	r4, [r2, #-1]!
 8005e1a:	e7f7      	b.n	8005e0c <memmove+0x24>

08005e1c <_sbrk_r>:
 8005e1c:	b538      	push	{r3, r4, r5, lr}
 8005e1e:	4d06      	ldr	r5, [pc, #24]	@ (8005e38 <_sbrk_r+0x1c>)
 8005e20:	2300      	movs	r3, #0
 8005e22:	4604      	mov	r4, r0
 8005e24:	4608      	mov	r0, r1
 8005e26:	602b      	str	r3, [r5, #0]
 8005e28:	f7fb fcc0 	bl	80017ac <_sbrk>
 8005e2c:	1c43      	adds	r3, r0, #1
 8005e2e:	d102      	bne.n	8005e36 <_sbrk_r+0x1a>
 8005e30:	682b      	ldr	r3, [r5, #0]
 8005e32:	b103      	cbz	r3, 8005e36 <_sbrk_r+0x1a>
 8005e34:	6023      	str	r3, [r4, #0]
 8005e36:	bd38      	pop	{r3, r4, r5, pc}
 8005e38:	20000370 	.word	0x20000370

08005e3c <memcpy>:
 8005e3c:	440a      	add	r2, r1
 8005e3e:	4291      	cmp	r1, r2
 8005e40:	f100 33ff 	add.w	r3, r0, #4294967295
 8005e44:	d100      	bne.n	8005e48 <memcpy+0xc>
 8005e46:	4770      	bx	lr
 8005e48:	b510      	push	{r4, lr}
 8005e4a:	f811 4b01 	ldrb.w	r4, [r1], #1
 8005e4e:	f803 4f01 	strb.w	r4, [r3, #1]!
 8005e52:	4291      	cmp	r1, r2
 8005e54:	d1f9      	bne.n	8005e4a <memcpy+0xe>
 8005e56:	bd10      	pop	{r4, pc}

08005e58 <_realloc_r>:
 8005e58:	e92d 41f0 	stmdb	sp!, {r4, r5, r6, r7, r8, lr}
 8005e5c:	4680      	mov	r8, r0
 8005e5e:	4615      	mov	r5, r2
 8005e60:	460c      	mov	r4, r1
 8005e62:	b921      	cbnz	r1, 8005e6e <_realloc_r+0x16>
 8005e64:	e8bd 41f0 	ldmia.w	sp!, {r4, r5, r6, r7, r8, lr}
 8005e68:	4611      	mov	r1, r2
 8005e6a:	f7ff bc4b 	b.w	8005704 <_malloc_r>
 8005e6e:	b92a      	cbnz	r2, 8005e7c <_realloc_r+0x24>
 8005e70:	f7ff fbdc 	bl	800562c <_free_r>
 8005e74:	2400      	movs	r4, #0
 8005e76:	4620      	mov	r0, r4
 8005e78:	e8bd 81f0 	ldmia.w	sp!, {r4, r5, r6, r7, r8, pc}
 8005e7c:	f000 f81a 	bl	8005eb4 <_malloc_usable_size_r>
 8005e80:	4285      	cmp	r5, r0
 8005e82:	4606      	mov	r6, r0
 8005e84:	d802      	bhi.n	8005e8c <_realloc_r+0x34>
 8005e86:	ebb5 0f50 	cmp.w	r5, r0, lsr #1
 8005e8a:	d8f4      	bhi.n	8005e76 <_realloc_r+0x1e>
 8005e8c:	4629      	mov	r1, r5
 8005e8e:	4640      	mov	r0, r8
 8005e90:	f7ff fc38 	bl	8005704 <_malloc_r>
 8005e94:	4607      	mov	r7, r0
 8005e96:	2800      	cmp	r0, #0
 8005e98:	d0ec      	beq.n	8005e74 <_realloc_r+0x1c>
 8005e9a:	42b5      	cmp	r5, r6
 8005e9c:	462a      	mov	r2, r5
 8005e9e:	4621      	mov	r1, r4
 8005ea0:	bf28      	it	cs
 8005ea2:	4632      	movcs	r2, r6
 8005ea4:	f7ff ffca 	bl	8005e3c <memcpy>
 8005ea8:	4621      	mov	r1, r4
 8005eaa:	4640      	mov	r0, r8
 8005eac:	f7ff fbbe 	bl	800562c <_free_r>
 8005eb0:	463c      	mov	r4, r7
 8005eb2:	e7e0      	b.n	8005e76 <_realloc_r+0x1e>

08005eb4 <_malloc_usable_size_r>:
 8005eb4:	f851 3c04 	ldr.w	r3, [r1, #-4]
 8005eb8:	1f18      	subs	r0, r3, #4
 8005eba:	2b00      	cmp	r3, #0
 8005ebc:	bfbc      	itt	lt
 8005ebe:	580b      	ldrlt	r3, [r1, r0]
 8005ec0:	18c0      	addlt	r0, r0, r3
 8005ec2:	4770      	bx	lr

08005ec4 <_init>:
 8005ec4:	b5f8      	push	{r3, r4, r5, r6, r7, lr}
 8005ec6:	bf00      	nop
 8005ec8:	bcf8      	pop	{r3, r4, r5, r6, r7}
 8005eca:	bc08      	pop	{r3}
 8005ecc:	469e      	mov	lr, r3
 8005ece:	4770      	bx	lr

08005ed0 <_fini>:
 8005ed0:	b5f8      	push	{r3, r4, r5, r6, r7, lr}
 8005ed2:	bf00      	nop
 8005ed4:	bcf8      	pop	{r3, r4, r5, r6, r7}
 8005ed6:	bc08      	pop	{r3}
 8005ed8:	469e      	mov	lr, r3
 8005eda:	4770      	bx	lr
